

Microchip MPLAB XC8 Assembler V2.40 build 20220703182018 
                                                                                               Wed Jan 25 17:08:54 2023

Microchip MPLAB XC8 C Compiler v2.40 (Free license) build 20220703182018 Og1 
     1                           	processor	18F57Q43
     2                           	fnconf	rparam,??,?,0
     3                           	pagewidth 120
     4                           	opt	flic
     5                           	psect	cinit,global,reloc=2,class=CODE,delta=1
     6                           	psect	bssCOMRAM,global,class=COMRAM,space=1,delta=1,lowdata,noexec
     7                           	psect	cstackCOMRAM,global,class=COMRAM,space=1,delta=1,lowdata,noexec
     8                           	psect	text0,global,reloc=2,class=CODE,delta=1
     9                           	psect	text1,global,reloc=2,class=CODE,delta=1
    10                           	psect	text2,global,reloc=2,class=CODE,delta=1
    11                           	psect	text3,global,reloc=2,class=CODE,delta=1
    12                           	psect	text4,global,reloc=2,class=CODE,delta=1
    13                           	psect	text5,global,reloc=2,class=CODE,delta=1
    14                           	psect	text6,global,reloc=2,class=CODE,delta=1
    15                           	psect	text7,global,reloc=2,class=CODE,delta=1
    16                           	psect	text8,global,reloc=2,class=CODE,delta=1,inline
    17                           	psect	text9,global,reloc=2,class=CODE,delta=1
    18                           	psect	text10,global,reloc=2,class=CODE,delta=1,inline
    19                           	psect	text11,global,reloc=2,class=CODE,delta=1
    20                           	psect	text12,global,reloc=2,class=CODE,delta=1,inline
    21                           	psect	text13,global,reloc=2,class=CODE,delta=1
    22                           	psect	text14,global,reloc=2,class=CODE,delta=1
    23                           	psect	text15,global,reloc=2,class=CODE,delta=1
    24                           	psect	text16,global,reloc=2,class=CODE,delta=1,inline
    25                           	psect	text17,global,reloc=2,class=CODE,delta=1,inline
    26                           	psect	text18,global,reloc=2,class=CODE,delta=1
    27                           	psect	text19,global,reloc=2,class=CODE,delta=1
    28                           	psect	text20,global,reloc=2,class=CODE,delta=1
    29                           	psect	text21,global,reloc=2,class=CODE,delta=1
    30                           	psect	text22,global,reloc=2,class=CODE,delta=1,inline
    31                           	psect	text23,global,reloc=2,class=CODE,delta=1,inline
    32                           	psect	text24,global,reloc=2,class=CODE,delta=1
    33                           	psect	text25,global,reloc=2,class=CODE,delta=1
    34                           	psect	text26,global,reloc=2,class=CODE,delta=1
    35                           	psect	text27,global,reloc=2,class=CODE,delta=1
    36                           	psect	text28,global,reloc=2,class=CODE,delta=1,inline
    37                           	psect	text29,global,reloc=2,class=CODE,delta=1,inline
    38                           	psect	text30,global,reloc=2,class=CODE,delta=1,inline
    39                           	psect	text31,global,reloc=2,class=CODE,delta=1
    40                           	psect	text32,global,reloc=2,class=CODE,delta=1
    41                           	psect	text33,global,reloc=2,class=CODE,delta=1,inline
    42                           	psect	text34,global,reloc=2,class=CODE,delta=1,inline
    43                           	psect	text35,global,reloc=2,class=CODE,delta=1,inline
    44                           	psect	text36,global,reloc=2,class=CODE,delta=1,inline
    45                           	psect	text37,global,reloc=2,class=CODE,delta=1,inline
    46                           	psect	text38,global,reloc=2,class=CODE,delta=1,inline
    47                           	psect	text39,global,reloc=2,class=CODE,delta=1,inline
    48                           	psect	text40,global,reloc=2,class=CODE,delta=1,inline
    49                           	psect	text41,global,reloc=2,class=CODE,delta=1
    50                           	psect	text42,global,reloc=2,class=CODE,delta=1
    51                           	psect	text43,global,reloc=2,class=CODE,delta=1,inline
    52                           	psect	ivt0x8,global,reloc=2,class=CODE,delta=1,noexec,keep,optim=
    53                           	psect	intsave_regs,global,class=BIGRAM,space=1,delta=1,noexec
    54                           	psect	text44,global,reloc=2,class=CODE,delta=1,inline
    55                           	psect	rparam,global,class=COMRAM,space=1,delta=1,noexec
    56                           	psect	idloc,global,abs,ovrld,class=IDLOC,space=5,delta=1,noexec
    57                           	psect	config,global,abs,ovrld,class=CONFIG,space=4,delta=1,noexec
    58   000000                     
    59                           ; Generated 17/06/2022 GMT
    60                           ; 
    61                           ; Copyright © 2022, Microchip Technology Inc. and its subsidiaries ("Microchip")
    62                           ; All rights reserved.
    63                           ; 
    64                           ; This software is developed by Microchip Technology Inc. and its subsidiaries ("Microch
      +                          ip").
    65                           ; 
    66                           ; Redistribution and use in source and binary forms, with or without modification, are
    67                           ; permitted provided that the following conditions are met:
    68                           ; 
    69                           ;     1. Redistributions of source code must retain the above copyright notice, this lis
      +                          t of
    70                           ;        conditions and the following disclaimer.
    71                           ; 
    72                           ;     2. Redistributions in binary form must reproduce the above copyright notice, this 
      +                          list
    73                           ;        of conditions and the following disclaimer in the documentation and/or other
    74                           ;        materials provided with the distribution. Publication is not required when
    75                           ;        this file is used in an embedded application.
    76                           ; 
    77                           ;     3. Microchip's name may not be used to endorse or promote products derived from th
      +                          is
    78                           ;        software without specific prior written permission.
    79                           ; 
    80                           ; THIS SOFTWARE IS PROVIDED BY MICROCHIP "AS IS" AND ANY EXPRESS OR IMPLIED WARRANTIES,
    81                           ; INCLUDING, BUT NOT LIMITED TO, THE IMPLIED WARRANTIES OF MERCHANTABILITY AND FITNESS F
      +                          OR
    82                           ; PURPOSE ARE DISCLAIMED.  IN NO EVENT SHALL MICROCHIP BE LIABLE FOR ANY DIRECT, INDIREC
      +                          T,
    83                           ; INCIDENTAL, SPECIAL, EXEMPLARY, OR CONSEQUENTIAL DAMAGES (INCLUDING BUT NOT LIMITED TO
    84                           ; PROCUREMENT OF SUBSTITUTE GOODS OR SERVICES; LOSS OF USE, DATA OR PROFITS; OR BUSINESS
    85                           ; INTERRUPTION) HOWSOEVER CAUSED AND ON ANY THEORY OF LIABILITY, WHETHER IN CONTRACT, ST
      +                          RICT
    86                           ; LIABILITY, OR TORT (INCLUDING NEGLIGENCE OR OTHERWISE) ARISING IN ANY WAY OUT OF THE U
      +                          SE OF
    87                           ; THIS SOFTWARE, EVEN IF ADVISED OF THE POSSIBILITY OF SUCH DAMAGE.
    88                           ; 
    89                           ; 
    90                           ; Code-generator required, PIC18F57Q43 Definitions
    91                           ; 
    92                           ; SFR Addresses
    93   000000                     
    94 ;; Function _I2C1_SlaveDefWrColInterruptHandler is unused but had its address taken
    95   000000                     
    96 ;; Function _I2C1_SlaveDefBusColInterruptHandler is unused but had its address taken
    97   000000                     _OSCTUNE	set	176
    98   000000                     _OSCFRQ	set	177
    99   000000                     _OSCEN	set	179
   100   000000                     _RB2I2C	set	648
   101   000000                     _RB1I2C	set	649
   102   000000                     _TRISD	set	1225
   103   000000                     _TRISC	set	1224
   104   000000                     _TRISB	set	1223
   105   000000                     _LATC	set	1216
   106   000000                     _LATB	set	1215
   107   000000                     _I2C1RXB	set	651
   108   000000                     _I2C1TXB	set	652
   109   000000                     _I2C1STAT0bits	set	664
   110   000000                     _I2C1ERRbits	set	663
   111   000000                     _I2C1ADR3	set	659
   112   000000                     _I2C1ADR1	set	657
   113   000000                     _I2C1ADR2	set	658
   114   000000                     _I2C1STAT1bits	set	665
   115   000000                     _I2C1PIR	set	666
   116   000000                     _I2C1CON2	set	662
   117   000000                     _I2C1CON1	set	661
   118   000000                     _I2C1CON1bits	set	661
   119   000000                     _I2C1PIRbits	set	666
   120   000000                     _I2C1CON0bits	set	660
   121   000000                     _PMD0	set	96
   122   000000                     _ACTCON	set	172
   123   000000                     _OSCCON1	set	173
   124   000000                     _RC3PPS	set	532
   125   000000                     _I2C1SDAPPS	set	624
   126   000000                     _RC4I2C	set	646
   127   000000                     _RC3I2C	set	647
   128   000000                     _I2C1CNT	set	653
   129   000000                     _I2C1CON0	set	660
   130   000000                     _I2C1ADB0	set	654
   131   000000                     _I2C1ADR0	set	656
   132   000000                     _ANSELA	set	1024
   133   000000                     _ANSELB	set	1032
   134   000000                     _ANSELC	set	1040
   135   000000                     _ANSELD	set	1048
   136   000000                     _I2C1PIEbits	set	667
   137   000000                     _PIE7bits	set	1189
   138   000000                     _PIR7bits	set	1205
   139   000000                     _INTCON0bits	set	1238
   140   000000                     _LATA	set	1214
   141   000000                     _LATD	set	1217
   142   000000                     _LATE	set	1218
   143   000000                     _TRISA	set	1222
   144   000000                     _TRISE	set	1226
   145   000000                     _LATF	set	1219
   146   000000                     _TRISF	set	1227
   147   000000                     _INLVLD	set	1052
   148   000000                     _SLRCOND	set	1051
   149   000000                     _ODCOND	set	1050
   150   000000                     _WPUD	set	1049
   151   000000                     _ANSELE	set	1056
   152   000000                     _INLVLC	set	1044
   153   000000                     _SLRCONC	set	1043
   154   000000                     _ODCONC	set	1042
   155   000000                     _WPUC	set	1041
   156   000000                     _INLVLB	set	1036
   157   000000                     _SLRCONB	set	1035
   158   000000                     _ODCONB	set	1034
   159   000000                     _WPUB	set	1033
   160   000000                     _INLVLE	set	1060
   161   000000                     _SLRCONE	set	1059
   162   000000                     _ODCONE	set	1058
   163   000000                     _WPUE	set	1057
   164   000000                     _ANSELF	set	1064
   165   000000                     _INLVLF	set	1068
   166   000000                     _SLRCONF	set	1067
   167   000000                     _ODCONF	set	1066
   168   000000                     _WPUF	set	1065
   169   000000                     _INLVLA	set	1028
   170   000000                     _SLRCONA	set	1027
   171   000000                     _ODCONA	set	1026
   172   000000                     _WPUA	set	1025
   173   000000                     _I2C1SCLPPS	set	625
   174   000000                     _RC4PPS	set	533
   175   000000                     _OSCCON3	set	175
   176   000000                     _PMD3	set	99
   177   000000                     _PMD1	set	97
   178   000000                     _PMD8	set	104
   179   000000                     _PMD7	set	103
   180   000000                     _PMD6	set	102
   181   000000                     _PMD5	set	101
   182   000000                     _PMD4	set	100
   183                           
   184                           ; #config settings
   185                           
   186                           	psect	cinit
   187   000408                     __pcinit:
   188                           	callstack 0
   189   000408                     start_initialization:
   190                           	callstack 0
   191   000408                     __initialization:
   192                           	callstack 0
   193                           
   194                           ; Clear objects allocated to COMRAM (23 bytes)
   195   000408  EE01  F101         	lfsr	0,__pbssCOMRAM
   196   00040C  0E17               	movlw	23
   197   00040E                     clear_0:
   198   00040E  6AEE               	clrf	postinc0,c
   199   000410  06E8               	decf	wreg,f,c
   200   000412  E1FD               	bnz	clear_0
   201                           
   202                           ;
   203                           ; Setup IVTBASE
   204                           ;
   205   000414  0104               	movlb	4
   206   000416  0E08               	movlw	(ivt0x8_base shr 0)& (0+255)
   207   000418  6F5D               	movwf	93,b
   208   00041A  0E00               	movlw	(ivt0x8_base shr (0+8))& (0+255)
   209   00041C  6F5E               	movwf	94,b
   210   00041E  0E00               	movlw	(ivt0x8_base shr (0+16))& (0+255)
   211   000420  6F5F               	movwf	95,b
   212   000422                     end_of_initialization:
   213                           	callstack 0
   214   000422                     __end_of__initialization:
   215                           	callstack 0
   216   000422  0100               	movlb	0
   217   000424  EF90  F001         	goto	_main	;jump to C main() function
   218                           
   219                           	psect	bssCOMRAM
   220   000501                     __pbssCOMRAM:
   221                           	callstack 0
   222   000501                     _I2C1_SlaveWrColInterruptHandler:
   223                           	callstack 0
   224   000501                     	ds	3
   225   000504                     _I2C1_SlaveBusColInterruptHandler:
   226                           	callstack 0
   227   000504                     	ds	3
   228   000507                     _I2C1_SlaveAddrInterruptHandler:
   229                           	callstack 0
   230   000507                     	ds	3
   231   00050A                     _I2C1_SlaveWrInterruptHandler:
   232                           	callstack 0
   233   00050A                     	ds	3
   234   00050D                     _I2C1_SlaveRdInterruptHandler:
   235                           	callstack 0
   236   00050D                     	ds	3
   237   000510                     _I2C1_InterruptHandler:
   238                           	callstack 0
   239   000510                     	ds	3
   240   000513                     _Receive:
   241                           	callstack 0
   242   000513                     	ds	1
   243   000514                     _i2c1SlaveState:
   244                           	callstack 0
   245   000514                     	ds	1
   246   000515                     _i2c1SlaveAddr:
   247                           	callstack 0
   248   000515                     	ds	1
   249   000516                     _i2c1RdData:
   250                           	callstack 0
   251   000516                     	ds	1
   252   000517                     _i2c1WrData:
   253                           	callstack 0
   254   000517                     	ds	1
   255                           
   256                           	psect	cstackCOMRAM
   257   000518                     __pcstackCOMRAM:
   258                           	callstack 0
   259   000518                     I2C1_SlaveSetCounter@counter:
   260                           	callstack 0
   261   000518                     I2C1_SlaveSendTxData@data:
   262                           	callstack 0
   263                           
   264                           ; 1 bytes @ 0x0
   265   000518                     	ds	1
   266   000519                     ??_I2C1_Isr:
   267   000519                     
   268                           ; 1 bytes @ 0x1
   269   000519                     	ds	2
   270   00051B                     ??_INTERRUPT_InterruptManager:
   271                           
   272                           ; 1 bytes @ 0x3
   273   00051B                     	ds	2
   274   00051D                     I2C1_SlaveSetSlaveAddr@slaveAddr:
   275                           	callstack 0
   276   00051D                     I2C1_SlaveSetSlaveMask@maskAddr:
   277                           	callstack 0
   278   00051D                     I2C1_SlaveSetIsrHandler@handler:
   279                           	callstack 0
   280   00051D                     I2C1_SlaveSetReadIntHandler@handler:
   281                           	callstack 0
   282   00051D                     I2C1_SlaveSetWriteIntHandler@handler:
   283                           	callstack 0
   284   00051D                     I2C1_SlaveSetAddrIntHandler@handler:
   285                           	callstack 0
   286   00051D                     I2C1_SlaveSetWrColIntHandler@handler:
   287                           	callstack 0
   288   00051D                     I2C1_SlaveSetBusColIntHandler@handler:
   289                           	callstack 0
   290                           
   291                           ; 3 bytes @ 0x5
   292   00051D                     	ds	3
   293   000520                     
   294                           ; 1 bytes @ 0x8
   295 ;;
   296 ;;Main: autosize = 0, tempsize = 0, incstack = 0, save=0
   297 ;;
   298 ;; *************** function _main *****************
   299 ;; Defined at:
   300 ;;		line 50 in file "main.c"
   301 ;; Parameters:    Size  Location     Type
   302 ;;		None
   303 ;; Auto vars:     Size  Location     Type
   304 ;;		None
   305 ;; Return value:  Size  Location     Type
   306 ;;                  1    wreg      void 
   307 ;; Registers used:
   308 ;;		wreg, status,2, status,0, cstack
   309 ;; Tracked objects:
   310 ;;		On entry : 0/0
   311 ;;		On exit  : 0/0
   312 ;;		Unchanged: 0/0
   313 ;; Data sizes:     COMRAM   BANK5   BANK6   BANK7   BANK8   BANK9  BANK10  BANK11  BANK12  BANK13  BANK14  BANK15  BANK1
      +6  BANK17  BANK18  BANK19  BANK20  BANK21  BANK22  BANK23  BANK24  BANK25  BANK26  BANK27  BANK28  BANK29  BANK30  BANK3
      +1  BANK32  BANK33  BANK34  BANK35  BANK36
   314 ;;      Params:         0       0       0       0       0       0       0       0       0       0       0       0       
      +0       0       0       0       0       0       0       0       0       0       0       0       0       0       0       
      +0       0       0       0       0       0
   315 ;;      Locals:         0       0       0       0       0       0       0       0       0       0       0       0       
      +0       0       0       0       0       0       0       0       0       0       0       0       0       0       0       
      +0       0       0       0       0       0
   316 ;;      Temps:          0       0       0       0       0       0       0       0       0       0       0       0       
      +0       0       0       0       0       0       0       0       0       0       0       0       0       0       0       
      +0       0       0       0       0       0
   317 ;;      Totals:         0       0       0       0       0       0       0       0       0       0       0       0       
      +0       0       0       0       0       0       0       0       0       0       0       0       0       0       0       
      +0       0       0       0       0       0
   318 ;;Total ram usage:        0 bytes
   319 ;; Hardware stack levels required when called: 7
   320 ;; This function calls:
   321 ;;		_I2C1_Initialize
   322 ;;		_I2C1_Open
   323 ;;		_I2C1_Read
   324 ;;		_I2C1_ReadAddr
   325 ;;		_I2C1_SendAck
   326 ;;		_SYSTEM_Initialize
   327 ;; This function is called by:
   328 ;;		Startup code after reset
   329 ;; This function uses a non-reentrant model
   330 ;;
   331                           
   332                           	psect	text0
   333   000320                     __ptext0:
   334                           	callstack 0
   335   000320                     _main:
   336                           	callstack 120
   337   000320                     
   338                           ;main.c: 53:     SYSTEM_Initialize();
   339   000320  EC2F  F002         	call	_SYSTEM_Initialize	;wreg free
   340                           
   341                           ;main.c: 54:     I2C1_Initialize();
   342   000324  EC22  F002         	call	_I2C1_Initialize	;wreg free
   343   000328                     
   344                           ;main.c: 60:     (INTCON0bits.GIE = 1);
   345   000328  8ED6               	bsf	214,7,c	;volatile
   346   00032A                     l1584:
   347                           
   348                           ;main.c: 66:     {;main.c: 67:         I2C1_Open();
   349   00032A  EC55  F001         	call	_I2C1_Open	;wreg free
   350   00032E                     
   351                           ;main.c: 68:         if(I2C1_ReadAddr() == 19)
   352   00032E  ECE6  F002         	call	_I2C1_ReadAddr	;wreg free
   353   000332  0A13               	xorlw	19
   354   000334  A4D8               	btfss	status,2,c
   355   000336  EF9F  F001         	goto	u351
   356   00033A  EFA1  F001         	goto	u350
   357   00033E                     u351:
   358   00033E  EF95  F001         	goto	l1584
   359   000342                     u350:
   360   000342                     
   361                           ;main.c: 69:         {;main.c: 70:             I2C1_SendAck();
   362   000342  ECE0  F002         	call	_I2C1_SendAck	;wreg free
   363   000346                     
   364                           ;main.c: 71:             Receive = I2C1_Read();
   365   000346  ECE9  F002         	call	_I2C1_Read	;wreg free
   366   00034A  6E13               	movwf	_Receive^(0+1280),c
   367   00034C  EF95  F001         	goto	l1584
   368   000350  EF0D  F000         	goto	start
   369   000354                     __end_of_main:
   370                           	callstack 0
   371                           
   372 ;; *************** function _SYSTEM_Initialize *****************
   373 ;; Defined at:
   374 ;;		line 50 in file "mcc_generated_files/mcc.c"
   375 ;; Parameters:    Size  Location     Type
   376 ;;		None
   377 ;; Auto vars:     Size  Location     Type
   378 ;;		None
   379 ;; Return value:  Size  Location     Type
   380 ;;                  1    wreg      void 
   381 ;; Registers used:
   382 ;;		wreg, status,2, cstack
   383 ;; Tracked objects:
   384 ;;		On entry : 0/0
   385 ;;		On exit  : 0/0
   386 ;;		Unchanged: 0/0
   387 ;; Data sizes:     COMRAM   BANK5   BANK6   BANK7   BANK8   BANK9  BANK10  BANK11  BANK12  BANK13  BANK14  BANK15  BANK1
      +6  BANK17  BANK18  BANK19  BANK20  BANK21  BANK22  BANK23  BANK24  BANK25  BANK26  BANK27  BANK28  BANK29  BANK30  BANK3
      +1  BANK32  BANK33  BANK34  BANK35  BANK36
   388 ;;      Params:         0       0       0       0       0       0       0       0       0       0       0       0       
      +0       0       0       0       0       0       0       0       0       0       0       0       0       0       0       
      +0       0       0       0       0       0
   389 ;;      Locals:         0       0       0       0       0       0       0       0       0       0       0       0       
      +0       0       0       0       0       0       0       0       0       0       0       0       0       0       0       
      +0       0       0       0       0       0
   390 ;;      Temps:          0       0       0       0       0       0       0       0       0       0       0       0       
      +0       0       0       0       0       0       0       0       0       0       0       0       0       0       0       
      +0       0       0       0       0       0
   391 ;;      Totals:         0       0       0       0       0       0       0       0       0       0       0       0       
      +0       0       0       0       0       0       0       0       0       0       0       0       0       0       0       
      +0       0       0       0       0       0
   392 ;;Total ram usage:        0 bytes
   393 ;; Hardware stack levels used: 1
   394 ;; Hardware stack levels required when called: 6
   395 ;; This function calls:
   396 ;;		_I2C1_Initialize
   397 ;;		_INTERRUPT_Initialize
   398 ;;		_OSCILLATOR_Initialize
   399 ;;		_PIN_MANAGER_Initialize
   400 ;;		_PMD_Initialize
   401 ;; This function is called by:
   402 ;;		_main
   403 ;; This function uses a non-reentrant model
   404 ;;
   405                           
   406                           	psect	text1
   407   00045E                     __ptext1:
   408                           	callstack 0
   409   00045E                     _SYSTEM_Initialize:
   410                           	callstack 120
   411   00045E                     
   412                           ;mcc_generated_files/mcc.c: 52:     INTERRUPT_Initialize();
   413   00045E  ECF8  F002         	call	_INTERRUPT_Initialize	;wreg free
   414   000462                     
   415                           ;mcc_generated_files/mcc.c: 53:     PMD_Initialize();
   416   000462  ECF2  F001         	call	_PMD_Initialize	;wreg free
   417   000466                     
   418                           ;mcc_generated_files/mcc.c: 54:     I2C1_Initialize();
   419   000466  EC22  F002         	call	_I2C1_Initialize	;wreg free
   420   00046A                     
   421                           ;mcc_generated_files/mcc.c: 55:     PIN_MANAGER_Initialize();
   422   00046A  ECA8  F000         	call	_PIN_MANAGER_Initialize	;wreg free
   423   00046E                     
   424                           ;mcc_generated_files/mcc.c: 56:     OSCILLATOR_Initialize();
   425   00046E  EC14  F002         	call	_OSCILLATOR_Initialize	;wreg free
   426   000472  0012               	return		;funcret
   427   000474                     __end_of_SYSTEM_Initialize:
   428                           	callstack 0
   429                           
   430 ;; *************** function _PMD_Initialize *****************
   431 ;; Defined at:
   432 ;;		line 75 in file "mcc_generated_files/mcc.c"
   433 ;; Parameters:    Size  Location     Type
   434 ;;		None
   435 ;; Auto vars:     Size  Location     Type
   436 ;;		None
   437 ;; Return value:  Size  Location     Type
   438 ;;                  1    wreg      void 
   439 ;; Registers used:
   440 ;;		wreg, status,2
   441 ;; Tracked objects:
   442 ;;		On entry : 0/0
   443 ;;		On exit  : 0/0
   444 ;;		Unchanged: 0/0
   445 ;; Data sizes:     COMRAM   BANK5   BANK6   BANK7   BANK8   BANK9  BANK10  BANK11  BANK12  BANK13  BANK14  BANK15  BANK1
      +6  BANK17  BANK18  BANK19  BANK20  BANK21  BANK22  BANK23  BANK24  BANK25  BANK26  BANK27  BANK28  BANK29  BANK30  BANK3
      +1  BANK32  BANK33  BANK34  BANK35  BANK36
   446 ;;      Params:         0       0       0       0       0       0       0       0       0       0       0       0       
      +0       0       0       0       0       0       0       0       0       0       0       0       0       0       0       
      +0       0       0       0       0       0
   447 ;;      Locals:         0       0       0       0       0       0       0       0       0       0       0       0       
      +0       0       0       0       0       0       0       0       0       0       0       0       0       0       0       
      +0       0       0       0       0       0
   448 ;;      Temps:          0       0       0       0       0       0       0       0       0       0       0       0       
      +0       0       0       0       0       0       0       0       0       0       0       0       0       0       0       
      +0       0       0       0       0       0
   449 ;;      Totals:         0       0       0       0       0       0       0       0       0       0       0       0       
      +0       0       0       0       0       0       0       0       0       0       0       0       0       0       0       
      +0       0       0       0       0       0
   450 ;;Total ram usage:        0 bytes
   451 ;; Hardware stack levels used: 1
   452 ;; Hardware stack levels required when called: 5
   453 ;; This function calls:
   454 ;;		Nothing
   455 ;; This function is called by:
   456 ;;		_SYSTEM_Initialize
   457 ;; This function uses a non-reentrant model
   458 ;;
   459                           
   460                           	psect	text2
   461   0003E4                     __ptext2:
   462                           	callstack 0
   463   0003E4                     _PMD_Initialize:
   464                           	callstack 120
   465   0003E4                     
   466                           ;mcc_generated_files/mcc.c: 78:     PMD0 = 0x00;
   467   0003E4  0E00               	movlw	0
   468   0003E6  0100               	movlb	0	; () banked
   469   0003E8  6F60               	movwf	96,b	;volatile
   470                           
   471                           ;mcc_generated_files/mcc.c: 80:     PMD1 = 0x00;
   472   0003EA  0E00               	movlw	0
   473   0003EC  6F61               	movwf	97,b	;volatile
   474                           
   475                           ;mcc_generated_files/mcc.c: 82:     PMD3 = 0x00;
   476   0003EE  0E00               	movlw	0
   477   0003F0  6F63               	movwf	99,b	;volatile
   478                           
   479                           ;mcc_generated_files/mcc.c: 84:     PMD4 = 0x00;
   480   0003F2  0E00               	movlw	0
   481   0003F4  6F64               	movwf	100,b	;volatile
   482                           
   483                           ;mcc_generated_files/mcc.c: 86:     PMD5 = 0x00;
   484   0003F6  0E00               	movlw	0
   485   0003F8  6F65               	movwf	101,b	;volatile
   486                           
   487                           ;mcc_generated_files/mcc.c: 88:     PMD6 = 0x00;
   488   0003FA  0E00               	movlw	0
   489   0003FC  6F66               	movwf	102,b	;volatile
   490                           
   491                           ;mcc_generated_files/mcc.c: 90:     PMD7 = 0x00;
   492   0003FE  0E00               	movlw	0
   493   000400  6F67               	movwf	103,b	;volatile
   494                           
   495                           ;mcc_generated_files/mcc.c: 92:     PMD8 = 0x00;
   496   000402  0E00               	movlw	0
   497   000404  6F68               	movwf	104,b	;volatile
   498   000406                     
   499                           ; BSR set to: 0
   500   000406  0012               	return		;funcret
   501   000408                     __end_of_PMD_Initialize:
   502                           	callstack 0
   503                           
   504 ;; *************** function _PIN_MANAGER_Initialize *****************
   505 ;; Defined at:
   506 ;;		line 55 in file "mcc_generated_files/pin_manager.c"
   507 ;; Parameters:    Size  Location     Type
   508 ;;		None
   509 ;; Auto vars:     Size  Location     Type
   510 ;;		None
   511 ;; Return value:  Size  Location     Type
   512 ;;                  1    wreg      void 
   513 ;; Registers used:
   514 ;;		wreg, status,2
   515 ;; Tracked objects:
   516 ;;		On entry : 0/0
   517 ;;		On exit  : 0/0
   518 ;;		Unchanged: 0/0
   519 ;; Data sizes:     COMRAM   BANK5   BANK6   BANK7   BANK8   BANK9  BANK10  BANK11  BANK12  BANK13  BANK14  BANK15  BANK1
      +6  BANK17  BANK18  BANK19  BANK20  BANK21  BANK22  BANK23  BANK24  BANK25  BANK26  BANK27  BANK28  BANK29  BANK30  BANK3
      +1  BANK32  BANK33  BANK34  BANK35  BANK36
   520 ;;      Params:         0       0       0       0       0       0       0       0       0       0       0       0       
      +0       0       0       0       0       0       0       0       0       0       0       0       0       0       0       
      +0       0       0       0       0       0
   521 ;;      Locals:         0       0       0       0       0       0       0       0       0       0       0       0       
      +0       0       0       0       0       0       0       0       0       0       0       0       0       0       0       
      +0       0       0       0       0       0
   522 ;;      Temps:          0       0       0       0       0       0       0       0       0       0       0       0       
      +0       0       0       0       0       0       0       0       0       0       0       0       0       0       0       
      +0       0       0       0       0       0
   523 ;;      Totals:         0       0       0       0       0       0       0       0       0       0       0       0       
      +0       0       0       0       0       0       0       0       0       0       0       0       0       0       0       
      +0       0       0       0       0       0
   524 ;;Total ram usage:        0 bytes
   525 ;; Hardware stack levels used: 1
   526 ;; Hardware stack levels required when called: 5
   527 ;; This function calls:
   528 ;;		Nothing
   529 ;; This function is called by:
   530 ;;		_SYSTEM_Initialize
   531 ;; This function uses a non-reentrant model
   532 ;;
   533                           
   534                           	psect	text3
   535   000150                     __ptext3:
   536                           	callstack 0
   537   000150                     _PIN_MANAGER_Initialize:
   538                           	callstack 120
   539   000150                     
   540                           ;mcc_generated_files/pin_manager.c: 60:     LATE = 0x00;
   541   000150  0E00               	movlw	0
   542   000152  6EC2               	movwf	194,c	;volatile
   543                           
   544                           ;mcc_generated_files/pin_manager.c: 61:     LATD = 0x00;
   545   000154  0E00               	movlw	0
   546   000156  6EC1               	movwf	193,c	;volatile
   547                           
   548                           ;mcc_generated_files/pin_manager.c: 62:     LATA = 0x00;
   549   000158  0E00               	movlw	0
   550   00015A  6EBE               	movwf	190,c	;volatile
   551                           
   552                           ;mcc_generated_files/pin_manager.c: 63:     LATF = 0x00;
   553   00015C  0E00               	movlw	0
   554   00015E  6EC3               	movwf	195,c	;volatile
   555                           
   556                           ;mcc_generated_files/pin_manager.c: 64:     LATB = 0x00;
   557   000160  0E00               	movlw	0
   558   000162  6EBF               	movwf	191,c	;volatile
   559                           
   560                           ;mcc_generated_files/pin_manager.c: 65:     LATC = 0x00;
   561   000164  0E00               	movlw	0
   562   000166  6EC0               	movwf	192,c	;volatile
   563                           
   564                           ;mcc_generated_files/pin_manager.c: 70:     TRISE = 0x07;
   565   000168  0E07               	movlw	7
   566   00016A  6ECA               	movwf	202,c	;volatile
   567   00016C                     
   568                           ;mcc_generated_files/pin_manager.c: 71:     TRISF = 0xFF;
   569   00016C  68CB               	setf	203,c	;volatile
   570   00016E                     
   571                           ;mcc_generated_files/pin_manager.c: 72:     TRISA = 0xFF;
   572   00016E  68C6               	setf	198,c	;volatile
   573   000170                     
   574                           ;mcc_generated_files/pin_manager.c: 73:     TRISB = 0xFF;
   575   000170  68C7               	setf	199,c	;volatile
   576                           
   577                           ;mcc_generated_files/pin_manager.c: 74:     TRISC = 0xE7;
   578   000172  0EE7               	movlw	231
   579   000174  6EC8               	movwf	200,c	;volatile
   580   000176                     
   581                           ;mcc_generated_files/pin_manager.c: 75:     TRISD = 0xFF;
   582   000176  68C9               	setf	201,c	;volatile
   583   000178                     
   584                           ;mcc_generated_files/pin_manager.c: 80:     ANSELD = 0xFF;
   585   000178  0104               	movlb	4	; () banked
   586   00017A  6918               	setf	24,b	;volatile
   587                           
   588                           ;mcc_generated_files/pin_manager.c: 81:     ANSELC = 0xE7;
   589   00017C  0EE7               	movlw	231
   590   00017E  6F10               	movwf	16,b	;volatile
   591   000180                     
   592                           ; BSR set to: 4
   593                           ;mcc_generated_files/pin_manager.c: 82:     ANSELB = 0xFF;
   594   000180  6908               	setf	8,b	;volatile
   595                           
   596                           ;mcc_generated_files/pin_manager.c: 83:     ANSELE = 0x07;
   597   000182  0E07               	movlw	7
   598   000184  6F20               	movwf	32,b	;volatile
   599   000186                     
   600                           ; BSR set to: 4
   601                           ;mcc_generated_files/pin_manager.c: 84:     ANSELF = 0xFF;
   602   000186  6928               	setf	40,b	;volatile
   603   000188                     
   604                           ; BSR set to: 4
   605                           ;mcc_generated_files/pin_manager.c: 85:     ANSELA = 0xFF;
   606   000188  6900               	setf	0,b	;volatile
   607                           
   608                           ;mcc_generated_files/pin_manager.c: 90:     WPUD = 0x00;
   609   00018A  0E00               	movlw	0
   610   00018C  6F19               	movwf	25,b	;volatile
   611                           
   612                           ;mcc_generated_files/pin_manager.c: 91:     WPUF = 0x00;
   613   00018E  0E00               	movlw	0
   614   000190  6F29               	movwf	41,b	;volatile
   615                           
   616                           ;mcc_generated_files/pin_manager.c: 92:     WPUE = 0x00;
   617   000192  0E00               	movlw	0
   618   000194  6F21               	movwf	33,b	;volatile
   619                           
   620                           ;mcc_generated_files/pin_manager.c: 93:     WPUB = 0x00;
   621   000196  0E00               	movlw	0
   622   000198  6F09               	movwf	9,b	;volatile
   623                           
   624                           ;mcc_generated_files/pin_manager.c: 94:     WPUA = 0x00;
   625   00019A  0E00               	movlw	0
   626   00019C  6F01               	movwf	1,b	;volatile
   627                           
   628                           ;mcc_generated_files/pin_manager.c: 95:     WPUC = 0x00;
   629   00019E  0E00               	movlw	0
   630   0001A0  6F11               	movwf	17,b	;volatile
   631                           
   632                           ;mcc_generated_files/pin_manager.c: 100:     RB1I2C = 0x00;
   633   0001A2  0E00               	movlw	0
   634   0001A4  0102               	movlb	2	; () banked
   635   0001A6  6F89               	movwf	137,b	;volatile
   636                           
   637                           ;mcc_generated_files/pin_manager.c: 101:     RB2I2C = 0x00;
   638   0001A8  0E00               	movlw	0
   639   0001AA  6F88               	movwf	136,b	;volatile
   640                           
   641                           ;mcc_generated_files/pin_manager.c: 102:     RC3I2C = 0x00;
   642   0001AC  0E00               	movlw	0
   643   0001AE  6F87               	movwf	135,b	;volatile
   644                           
   645                           ;mcc_generated_files/pin_manager.c: 103:     RC4I2C = 0x00;
   646   0001B0  0E00               	movlw	0
   647   0001B2  6F86               	movwf	134,b	;volatile
   648                           
   649                           ;mcc_generated_files/pin_manager.c: 108:     ODCONE = 0x00;
   650   0001B4  0E00               	movlw	0
   651   0001B6  0104               	movlb	4	; () banked
   652   0001B8  6F22               	movwf	34,b	;volatile
   653                           
   654                           ;mcc_generated_files/pin_manager.c: 109:     ODCONF = 0x00;
   655   0001BA  0E00               	movlw	0
   656   0001BC  6F2A               	movwf	42,b	;volatile
   657                           
   658                           ;mcc_generated_files/pin_manager.c: 110:     ODCONA = 0x00;
   659   0001BE  0E00               	movlw	0
   660   0001C0  6F02               	movwf	2,b	;volatile
   661                           
   662                           ;mcc_generated_files/pin_manager.c: 111:     ODCONB = 0x00;
   663   0001C2  0E00               	movlw	0
   664   0001C4  6F0A               	movwf	10,b	;volatile
   665                           
   666                           ;mcc_generated_files/pin_manager.c: 112:     ODCONC = 0x18;
   667   0001C6  0E18               	movlw	24
   668   0001C8  6F12               	movwf	18,b	;volatile
   669                           
   670                           ;mcc_generated_files/pin_manager.c: 113:     ODCOND = 0x00;
   671   0001CA  0E00               	movlw	0
   672   0001CC  6F1A               	movwf	26,b	;volatile
   673   0001CE                     
   674                           ; BSR set to: 4
   675                           ;mcc_generated_files/pin_manager.c: 118:     SLRCONA = 0xFF;
   676   0001CE  6903               	setf	3,b	;volatile
   677   0001D0                     
   678                           ; BSR set to: 4
   679                           ;mcc_generated_files/pin_manager.c: 119:     SLRCONB = 0xFF;
   680   0001D0  690B               	setf	11,b	;volatile
   681   0001D2                     
   682                           ; BSR set to: 4
   683                           ;mcc_generated_files/pin_manager.c: 120:     SLRCONC = 0xFF;
   684   0001D2  6913               	setf	19,b	;volatile
   685   0001D4                     
   686                           ; BSR set to: 4
   687                           ;mcc_generated_files/pin_manager.c: 121:     SLRCOND = 0xFF;
   688   0001D4  691B               	setf	27,b	;volatile
   689                           
   690                           ;mcc_generated_files/pin_manager.c: 122:     SLRCONE = 0x07;
   691   0001D6  0E07               	movlw	7
   692   0001D8  6F23               	movwf	35,b	;volatile
   693   0001DA                     
   694                           ; BSR set to: 4
   695                           ;mcc_generated_files/pin_manager.c: 123:     SLRCONF = 0xFF;
   696   0001DA  692B               	setf	43,b	;volatile
   697   0001DC                     
   698                           ; BSR set to: 4
   699                           ;mcc_generated_files/pin_manager.c: 128:     INLVLA = 0xFF;
   700   0001DC  6904               	setf	4,b	;volatile
   701   0001DE                     
   702                           ; BSR set to: 4
   703                           ;mcc_generated_files/pin_manager.c: 129:     INLVLB = 0xFF;
   704   0001DE  690C               	setf	12,b	;volatile
   705   0001E0                     
   706                           ; BSR set to: 4
   707                           ;mcc_generated_files/pin_manager.c: 130:     INLVLC = 0xFF;
   708   0001E0  6914               	setf	20,b	;volatile
   709   0001E2                     
   710                           ; BSR set to: 4
   711                           ;mcc_generated_files/pin_manager.c: 131:     INLVLD = 0xFF;
   712   0001E2  691C               	setf	28,b	;volatile
   713                           
   714                           ;mcc_generated_files/pin_manager.c: 132:     INLVLE = 0x0F;
   715   0001E4  0E0F               	movlw	15
   716   0001E6  6F24               	movwf	36,b	;volatile
   717   0001E8                     
   718                           ; BSR set to: 4
   719                           ;mcc_generated_files/pin_manager.c: 133:     INLVLF = 0xFF;
   720   0001E8  692C               	setf	44,b	;volatile
   721                           
   722                           ;mcc_generated_files/pin_manager.c: 142:     I2C1SDAPPS = 0x14;
   723   0001EA  0E14               	movlw	20
   724   0001EC  0102               	movlb	2	; () banked
   725   0001EE  6F70               	movwf	112,b	;volatile
   726                           
   727                           ;mcc_generated_files/pin_manager.c: 143:     RC3PPS = 0x37;
   728   0001F0  0E37               	movlw	55
   729   0001F2  6F14               	movwf	20,b	;volatile
   730                           
   731                           ;mcc_generated_files/pin_manager.c: 144:     RC4PPS = 0x38;
   732   0001F4  0E38               	movlw	56
   733   0001F6  6F15               	movwf	21,b	;volatile
   734                           
   735                           ;mcc_generated_files/pin_manager.c: 145:     I2C1SCLPPS = 0x13;
   736   0001F8  0E13               	movlw	19
   737   0001FA  6F71               	movwf	113,b	;volatile
   738   0001FC                     
   739                           ; BSR set to: 2
   740   0001FC  0012               	return		;funcret
   741   0001FE                     __end_of_PIN_MANAGER_Initialize:
   742                           	callstack 0
   743                           
   744 ;; *************** function _OSCILLATOR_Initialize *****************
   745 ;; Defined at:
   746 ;;		line 59 in file "mcc_generated_files/mcc.c"
   747 ;; Parameters:    Size  Location     Type
   748 ;;		None
   749 ;; Auto vars:     Size  Location     Type
   750 ;;		None
   751 ;; Return value:  Size  Location     Type
   752 ;;                  1    wreg      void 
   753 ;; Registers used:
   754 ;;		wreg, status,2
   755 ;; Tracked objects:
   756 ;;		On entry : 0/0
   757 ;;		On exit  : 0/0
   758 ;;		Unchanged: 0/0
   759 ;; Data sizes:     COMRAM   BANK5   BANK6   BANK7   BANK8   BANK9  BANK10  BANK11  BANK12  BANK13  BANK14  BANK15  BANK1
      +6  BANK17  BANK18  BANK19  BANK20  BANK21  BANK22  BANK23  BANK24  BANK25  BANK26  BANK27  BANK28  BANK29  BANK30  BANK3
      +1  BANK32  BANK33  BANK34  BANK35  BANK36
   760 ;;      Params:         0       0       0       0       0       0       0       0       0       0       0       0       
      +0       0       0       0       0       0       0       0       0       0       0       0       0       0       0       
      +0       0       0       0       0       0
   761 ;;      Locals:         0       0       0       0       0       0       0       0       0       0       0       0       
      +0       0       0       0       0       0       0       0       0       0       0       0       0       0       0       
      +0       0       0       0       0       0
   762 ;;      Temps:          0       0       0       0       0       0       0       0       0       0       0       0       
      +0       0       0       0       0       0       0       0       0       0       0       0       0       0       0       
      +0       0       0       0       0       0
   763 ;;      Totals:         0       0       0       0       0       0       0       0       0       0       0       0       
      +0       0       0       0       0       0       0       0       0       0       0       0       0       0       0       
      +0       0       0       0       0       0
   764 ;;Total ram usage:        0 bytes
   765 ;; Hardware stack levels used: 1
   766 ;; Hardware stack levels required when called: 5
   767 ;; This function calls:
   768 ;;		Nothing
   769 ;; This function is called by:
   770 ;;		_SYSTEM_Initialize
   771 ;; This function uses a non-reentrant model
   772 ;;
   773                           
   774                           	psect	text4
   775   000428                     __ptext4:
   776                           	callstack 0
   777   000428                     _OSCILLATOR_Initialize:
   778                           	callstack 120
   779   000428                     
   780                           ;mcc_generated_files/mcc.c: 62:     OSCCON1 = 0x63;
   781   000428  0E63               	movlw	99
   782   00042A  0100               	movlb	0	; () banked
   783   00042C  6FAD               	movwf	173,b	;volatile
   784                           
   785                           ;mcc_generated_files/mcc.c: 64:     OSCCON3 = 0x00;
   786   00042E  0E00               	movlw	0
   787   000430  6FAF               	movwf	175,b	;volatile
   788                           
   789                           ;mcc_generated_files/mcc.c: 66:     OSCEN = 0x00;
   790   000432  0E00               	movlw	0
   791   000434  6FB3               	movwf	179,b	;volatile
   792                           
   793                           ;mcc_generated_files/mcc.c: 68:     OSCFRQ = 0x02;
   794   000436  0E02               	movlw	2
   795   000438  6FB1               	movwf	177,b	;volatile
   796                           
   797                           ;mcc_generated_files/mcc.c: 70:     OSCTUNE = 0x00;
   798   00043A  0E00               	movlw	0
   799   00043C  6FB0               	movwf	176,b	;volatile
   800                           
   801                           ;mcc_generated_files/mcc.c: 72:     ACTCON = 0x00;
   802   00043E  0E00               	movlw	0
   803   000440  6FAC               	movwf	172,b	;volatile
   804   000442                     
   805                           ; BSR set to: 0
   806   000442  0012               	return		;funcret
   807   000444                     __end_of_OSCILLATOR_Initialize:
   808                           	callstack 0
   809                           
   810 ;; *************** function _INTERRUPT_Initialize *****************
   811 ;; Defined at:
   812 ;;		line 52 in file "mcc_generated_files/interrupt_manager.c"
   813 ;; Parameters:    Size  Location     Type
   814 ;;		None
   815 ;; Auto vars:     Size  Location     Type
   816 ;;		None
   817 ;; Return value:  Size  Location     Type
   818 ;;                  1    wreg      void 
   819 ;; Registers used:
   820 ;;		None
   821 ;; Tracked objects:
   822 ;;		On entry : 0/0
   823 ;;		On exit  : 0/0
   824 ;;		Unchanged: 0/0
   825 ;; Data sizes:     COMRAM   BANK5   BANK6   BANK7   BANK8   BANK9  BANK10  BANK11  BANK12  BANK13  BANK14  BANK15  BANK1
      +6  BANK17  BANK18  BANK19  BANK20  BANK21  BANK22  BANK23  BANK24  BANK25  BANK26  BANK27  BANK28  BANK29  BANK30  BANK3
      +1  BANK32  BANK33  BANK34  BANK35  BANK36
   826 ;;      Params:         0       0       0       0       0       0       0       0       0       0       0       0       
      +0       0       0       0       0       0       0       0       0       0       0       0       0       0       0       
      +0       0       0       0       0       0
   827 ;;      Locals:         0       0       0       0       0       0       0       0       0       0       0       0       
      +0       0       0       0       0       0       0       0       0       0       0       0       0       0       0       
      +0       0       0       0       0       0
   828 ;;      Temps:          0       0       0       0       0       0       0       0       0       0       0       0       
      +0       0       0       0       0       0       0       0       0       0       0       0       0       0       0       
      +0       0       0       0       0       0
   829 ;;      Totals:         0       0       0       0       0       0       0       0       0       0       0       0       
      +0       0       0       0       0       0       0       0       0       0       0       0       0       0       0       
      +0       0       0       0       0       0
   830 ;;Total ram usage:        0 bytes
   831 ;; Hardware stack levels used: 1
   832 ;; Hardware stack levels required when called: 5
   833 ;; This function calls:
   834 ;;		Nothing
   835 ;; This function is called by:
   836 ;;		_SYSTEM_Initialize
   837 ;; This function uses a non-reentrant model
   838 ;;
   839                           
   840                           	psect	text5
   841   0005F0                     __ptext5:
   842                           	callstack 0
   843   0005F0                     _INTERRUPT_Initialize:
   844                           	callstack 120
   845   0005F0                     
   846                           ;mcc_generated_files/interrupt_manager.c: 55:     INTCON0bits.IPEN = 0;
   847   0005F0  9AD6               	bcf	214,5,c	;volatile
   848   0005F2  0012               	return		;funcret
   849   0005F4                     __end_of_INTERRUPT_Initialize:
   850                           	callstack 0
   851                           
   852 ;; *************** function _I2C1_Initialize *****************
   853 ;; Defined at:
   854 ;;		line 112 in file "mcc_generated_files/i2c1_slave.c"
   855 ;; Parameters:    Size  Location     Type
   856 ;;		None
   857 ;; Auto vars:     Size  Location     Type
   858 ;;		None
   859 ;; Return value:  Size  Location     Type
   860 ;;                  1    wreg      void 
   861 ;; Registers used:
   862 ;;		wreg, status,2
   863 ;; Tracked objects:
   864 ;;		On entry : 0/0
   865 ;;		On exit  : 0/0
   866 ;;		Unchanged: 0/0
   867 ;; Data sizes:     COMRAM   BANK5   BANK6   BANK7   BANK8   BANK9  BANK10  BANK11  BANK12  BANK13  BANK14  BANK15  BANK1
      +6  BANK17  BANK18  BANK19  BANK20  BANK21  BANK22  BANK23  BANK24  BANK25  BANK26  BANK27  BANK28  BANK29  BANK30  BANK3
      +1  BANK32  BANK33  BANK34  BANK35  BANK36
   868 ;;      Params:         0       0       0       0       0       0       0       0       0       0       0       0       
      +0       0       0       0       0       0       0       0       0       0       0       0       0       0       0       
      +0       0       0       0       0       0
   869 ;;      Locals:         0       0       0       0       0       0       0       0       0       0       0       0       
      +0       0       0       0       0       0       0       0       0       0       0       0       0       0       0       
      +0       0       0       0       0       0
   870 ;;      Temps:          0       0       0       0       0       0       0       0       0       0       0       0       
      +0       0       0       0       0       0       0       0       0       0       0       0       0       0       0       
      +0       0       0       0       0       0
   871 ;;      Totals:         0       0       0       0       0       0       0       0       0       0       0       0       
      +0       0       0       0       0       0       0       0       0       0       0       0       0       0       0       
      +0       0       0       0       0       0
   872 ;;Total ram usage:        0 bytes
   873 ;; Hardware stack levels used: 1
   874 ;; Hardware stack levels required when called: 5
   875 ;; This function calls:
   876 ;;		Nothing
   877 ;; This function is called by:
   878 ;;		_SYSTEM_Initialize
   879 ;;		_main
   880 ;;		_I2C1_Enable
   881 ;; This function uses a non-reentrant model
   882 ;;
   883                           
   884                           	psect	text6
   885   000444                     __ptext6:
   886                           	callstack 0
   887   000444                     _I2C1_Initialize:
   888                           	callstack 120
   889   000444                     
   890                           ;mcc_generated_files/i2c1_slave.c: 115:     I2C1CON0 = 0x01;
   891   000444  0E01               	movlw	1
   892   000446  0102               	movlb	2	; () banked
   893   000448  6F94               	movwf	148,b	;volatile
   894                           
   895                           ;mcc_generated_files/i2c1_slave.c: 117:     I2C1CON1 = 0x00;
   896   00044A  0E00               	movlw	0
   897   00044C  6F95               	movwf	149,b	;volatile
   898                           
   899                           ;mcc_generated_files/i2c1_slave.c: 119:     I2C1CON2 = 0x00;
   900   00044E  0E00               	movlw	0
   901   000450  6F96               	movwf	150,b	;volatile
   902   000452                     
   903                           ; BSR set to: 2
   904                           ;mcc_generated_files/i2c1_slave.c: 121:     I2C1CNT = 0xFF;
   905   000452  698D               	setf	141,b	;volatile
   906                           
   907                           ;mcc_generated_files/i2c1_slave.c: 123:     RC3I2C = 0x51;
   908   000454  0E51               	movlw	81
   909   000456  6F87               	movwf	135,b	;volatile
   910                           
   911                           ;mcc_generated_files/i2c1_slave.c: 125:     RC4I2C = 0x51;
   912   000458  0E51               	movlw	81
   913   00045A  6F86               	movwf	134,b	;volatile
   914   00045C                     
   915                           ; BSR set to: 2
   916   00045C  0012               	return		;funcret
   917   00045E                     __end_of_I2C1_Initialize:
   918                           	callstack 0
   919                           
   920 ;; *************** function _I2C1_SendAck *****************
   921 ;; Defined at:
   922 ;;		line 172 in file "mcc_generated_files/i2c1_slave.c"
   923 ;; Parameters:    Size  Location     Type
   924 ;;		None
   925 ;; Auto vars:     Size  Location     Type
   926 ;;		None
   927 ;; Return value:  Size  Location     Type
   928 ;;                  1    wreg      void 
   929 ;; Registers used:
   930 ;;		cstack
   931 ;; Tracked objects:
   932 ;;		On entry : 0/0
   933 ;;		On exit  : 0/0
   934 ;;		Unchanged: 0/0
   935 ;; Data sizes:     COMRAM   BANK5   BANK6   BANK7   BANK8   BANK9  BANK10  BANK11  BANK12  BANK13  BANK14  BANK15  BANK1
      +6  BANK17  BANK18  BANK19  BANK20  BANK21  BANK22  BANK23  BANK24  BANK25  BANK26  BANK27  BANK28  BANK29  BANK30  BANK3
      +1  BANK32  BANK33  BANK34  BANK35  BANK36
   936 ;;      Params:         0       0       0       0       0       0       0       0       0       0       0       0       
      +0       0       0       0       0       0       0       0       0       0       0       0       0       0       0       
      +0       0       0       0       0       0
   937 ;;      Locals:         0       0       0       0       0       0       0       0       0       0       0       0       
      +0       0       0       0       0       0       0       0       0       0       0       0       0       0       0       
      +0       0       0       0       0       0
   938 ;;      Temps:          0       0       0       0       0       0       0       0       0       0       0       0       
      +0       0       0       0       0       0       0       0       0       0       0       0       0       0       0       
      +0       0       0       0       0       0
   939 ;;      Totals:         0       0       0       0       0       0       0       0       0       0       0       0       
      +0       0       0       0       0       0       0       0       0       0       0       0       0       0       0       
      +0       0       0       0       0       0
   940 ;;Total ram usage:        0 bytes
   941 ;; Hardware stack levels used: 1
   942 ;; Hardware stack levels required when called: 6
   943 ;; This function calls:
   944 ;;		_I2C1_SlaveSendAck
   945 ;; This function is called by:
   946 ;;		_main
   947 ;; This function uses a non-reentrant model
   948 ;;
   949                           
   950                           	psect	text7
   951   0005C0                     __ptext7:
   952                           	callstack 0
   953   0005C0                     _I2C1_SendAck:
   954                           	callstack 120
   955   0005C0                     
   956                           ;mcc_generated_files/i2c1_slave.c: 174:     I2C1_SlaveSendAck();
   957   0005C0  ECE3  F002         	call	_I2C1_SlaveSendAck	;wreg free
   958   0005C4  0012               	return		;funcret
   959   0005C6                     __end_of_I2C1_SendAck:
   960                           	callstack 0
   961                           
   962 ;; *************** function _I2C1_SlaveSendAck *****************
   963 ;; Defined at:
   964 ;;		line 460 in file "mcc_generated_files/i2c1_slave.c"
   965 ;; Parameters:    Size  Location     Type
   966 ;;		None
   967 ;; Auto vars:     Size  Location     Type
   968 ;;		None
   969 ;; Return value:  Size  Location     Type
   970 ;;                  1    wreg      void 
   971 ;; Registers used:
   972 ;;		None
   973 ;; Tracked objects:
   974 ;;		On entry : 0/0
   975 ;;		On exit  : 0/0
   976 ;;		Unchanged: 0/0
   977 ;; Data sizes:     COMRAM   BANK5   BANK6   BANK7   BANK8   BANK9  BANK10  BANK11  BANK12  BANK13  BANK14  BANK15  BANK1
      +6  BANK17  BANK18  BANK19  BANK20  BANK21  BANK22  BANK23  BANK24  BANK25  BANK26  BANK27  BANK28  BANK29  BANK30  BANK3
      +1  BANK32  BANK33  BANK34  BANK35  BANK36
   978 ;;      Params:         0       0       0       0       0       0       0       0       0       0       0       0       
      +0       0       0       0       0       0       0       0       0       0       0       0       0       0       0       
      +0       0       0       0       0       0
   979 ;;      Locals:         0       0       0       0       0       0       0       0       0       0       0       0       
      +0       0       0       0       0       0       0       0       0       0       0       0       0       0       0       
      +0       0       0       0       0       0
   980 ;;      Temps:          0       0       0       0       0       0       0       0       0       0       0       0       
      +0       0       0       0       0       0       0       0       0       0       0       0       0       0       0       
      +0       0       0       0       0       0
   981 ;;      Totals:         0       0       0       0       0       0       0       0       0       0       0       0       
      +0       0       0       0       0       0       0       0       0       0       0       0       0       0       0       
      +0       0       0       0       0       0
   982 ;;Total ram usage:        0 bytes
   983 ;; Hardware stack levels used: 1
   984 ;; Hardware stack levels required when called: 5
   985 ;; This function calls:
   986 ;;		Nothing
   987 ;; This function is called by:
   988 ;;		_I2C1_SendAck
   989 ;; This function uses a non-reentrant model
   990 ;;
   991                           
   992                           	psect	text8
   993   0005C6                     __ptext8:
   994                           	callstack 0
   995   0005C6                     _I2C1_SlaveSendAck:
   996                           	callstack 120
   997   0005C6                     
   998                           ;mcc_generated_files/i2c1_slave.c: 462:     I2C1CON1bits.ACKDT = 0;
   999   0005C6  0102               	movlb	2	; () banked
  1000   0005C8  9D95               	bcf	149,6,b	;volatile
  1001   0005CA                     
  1002                           ; BSR set to: 2
  1003   0005CA  0012               	return		;funcret
  1004   0005CC                     __end_of_I2C1_SlaveSendAck:
  1005                           	callstack 0
  1006                           
  1007 ;; *************** function _I2C1_ReadAddr *****************
  1008 ;; Defined at:
  1009 ;;		line 157 in file "mcc_generated_files/i2c1_slave.c"
  1010 ;; Parameters:    Size  Location     Type
  1011 ;;		None
  1012 ;; Auto vars:     Size  Location     Type
  1013 ;;		None
  1014 ;; Return value:  Size  Location     Type
  1015 ;;                  1    wreg      unsigned char 
  1016 ;; Registers used:
  1017 ;;		wreg, status,2, status,0, cstack
  1018 ;; Tracked objects:
  1019 ;;		On entry : 0/0
  1020 ;;		On exit  : 0/0
  1021 ;;		Unchanged: 0/0
  1022 ;; Data sizes:     COMRAM   BANK5   BANK6   BANK7   BANK8   BANK9  BANK10  BANK11  BANK12  BANK13  BANK14  BANK15  BANK1
      +6  BANK17  BANK18  BANK19  BANK20  BANK21  BANK22  BANK23  BANK24  BANK25  BANK26  BANK27  BANK28  BANK29  BANK30  BANK3
      +1  BANK32  BANK33  BANK34  BANK35  BANK36
  1023 ;;      Params:         0       0       0       0       0       0       0       0       0       0       0       0       
      +0       0       0       0       0       0       0       0       0       0       0       0       0       0       0       
      +0       0       0       0       0       0
  1024 ;;      Locals:         0       0       0       0       0       0       0       0       0       0       0       0       
      +0       0       0       0       0       0       0       0       0       0       0       0       0       0       0       
      +0       0       0       0       0       0
  1025 ;;      Temps:          0       0       0       0       0       0       0       0       0       0       0       0       
      +0       0       0       0       0       0       0       0       0       0       0       0       0       0       0       
      +0       0       0       0       0       0
  1026 ;;      Totals:         0       0       0       0       0       0       0       0       0       0       0       0       
      +0       0       0       0       0       0       0       0       0       0       0       0       0       0       0       
      +0       0       0       0       0       0
  1027 ;;Total ram usage:        0 bytes
  1028 ;; Hardware stack levels used: 1
  1029 ;; Hardware stack levels required when called: 6
  1030 ;; This function calls:
  1031 ;;		_I2C1_SlaveGetAddr
  1032 ;; This function is called by:
  1033 ;;		_main
  1034 ;; This function uses a non-reentrant model
  1035 ;;
  1036                           
  1037                           	psect	text9
  1038   0005CC                     __ptext9:
  1039                           	callstack 0
  1040   0005CC                     _I2C1_ReadAddr:
  1041                           	callstack 120
  1042   0005CC                     
  1043                           ;mcc_generated_files/i2c1_slave.c: 159:    return I2C1_SlaveGetAddr();
  1044   0005CC  ECC0  F002         	call	_I2C1_SlaveGetAddr	;wreg free
  1045   0005D0  0012               	return		;funcret
  1046   0005D2                     __end_of_I2C1_ReadAddr:
  1047                           	callstack 0
  1048                           
  1049 ;; *************** function _I2C1_SlaveGetAddr *****************
  1050 ;; Defined at:
  1051 ;;		line 455 in file "mcc_generated_files/i2c1_slave.c"
  1052 ;; Parameters:    Size  Location     Type
  1053 ;;		None
  1054 ;; Auto vars:     Size  Location     Type
  1055 ;;		None
  1056 ;; Return value:  Size  Location     Type
  1057 ;;                  1    wreg      unsigned char 
  1058 ;; Registers used:
  1059 ;;		wreg, status,2, status,0
  1060 ;; Tracked objects:
  1061 ;;		On entry : 0/0
  1062 ;;		On exit  : 0/0
  1063 ;;		Unchanged: 0/0
  1064 ;; Data sizes:     COMRAM   BANK5   BANK6   BANK7   BANK8   BANK9  BANK10  BANK11  BANK12  BANK13  BANK14  BANK15  BANK1
      +6  BANK17  BANK18  BANK19  BANK20  BANK21  BANK22  BANK23  BANK24  BANK25  BANK26  BANK27  BANK28  BANK29  BANK30  BANK3
      +1  BANK32  BANK33  BANK34  BANK35  BANK36
  1065 ;;      Params:         0       0       0       0       0       0       0       0       0       0       0       0       
      +0       0       0       0       0       0       0       0       0       0       0       0       0       0       0       
      +0       0       0       0       0       0
  1066 ;;      Locals:         0       0       0       0       0       0       0       0       0       0       0       0       
      +0       0       0       0       0       0       0       0       0       0       0       0       0       0       0       
      +0       0       0       0       0       0
  1067 ;;      Temps:          0       0       0       0       0       0       0       0       0       0       0       0       
      +0       0       0       0       0       0       0       0       0       0       0       0       0       0       0       
      +0       0       0       0       0       0
  1068 ;;      Totals:         0       0       0       0       0       0       0       0       0       0       0       0       
      +0       0       0       0       0       0       0       0       0       0       0       0       0       0       0       
      +0       0       0       0       0       0
  1069 ;;Total ram usage:        0 bytes
  1070 ;; Hardware stack levels used: 1
  1071 ;; Hardware stack levels required when called: 5
  1072 ;; This function calls:
  1073 ;;		Nothing
  1074 ;; This function is called by:
  1075 ;;		_I2C1_ReadAddr
  1076 ;; This function uses a non-reentrant model
  1077 ;;
  1078                           
  1079                           	psect	text10
  1080   000580                     __ptext10:
  1081                           	callstack 0
  1082   000580                     _I2C1_SlaveGetAddr:
  1083                           	callstack 120
  1084   000580                     
  1085                           ;mcc_generated_files/i2c1_slave.c: 457:     return I2C1ADB0 >> 1;
  1086   000580  0102               	movlb	2	; () banked
  1087   000582  90D8               	bcf	status,0,c
  1088   000584  318E               	rrcf	142,w,b	;volatile
  1089   000586                     
  1090                           ; BSR set to: 2
  1091   000586  0012               	return		;funcret
  1092   000588                     __end_of_I2C1_SlaveGetAddr:
  1093                           	callstack 0
  1094                           
  1095 ;; *************** function _I2C1_Read *****************
  1096 ;; Defined at:
  1097 ;;		line 147 in file "mcc_generated_files/i2c1_slave.c"
  1098 ;; Parameters:    Size  Location     Type
  1099 ;;		None
  1100 ;; Auto vars:     Size  Location     Type
  1101 ;;		None
  1102 ;; Return value:  Size  Location     Type
  1103 ;;                  1    wreg      unsigned char 
  1104 ;; Registers used:
  1105 ;;		wreg, status,2, cstack
  1106 ;; Tracked objects:
  1107 ;;		On entry : 0/0
  1108 ;;		On exit  : 0/0
  1109 ;;		Unchanged: 0/0
  1110 ;; Data sizes:     COMRAM   BANK5   BANK6   BANK7   BANK8   BANK9  BANK10  BANK11  BANK12  BANK13  BANK14  BANK15  BANK1
      +6  BANK17  BANK18  BANK19  BANK20  BANK21  BANK22  BANK23  BANK24  BANK25  BANK26  BANK27  BANK28  BANK29  BANK30  BANK3
      +1  BANK32  BANK33  BANK34  BANK35  BANK36
  1111 ;;      Params:         0       0       0       0       0       0       0       0       0       0       0       0       
      +0       0       0       0       0       0       0       0       0       0       0       0       0       0       0       
      +0       0       0       0       0       0
  1112 ;;      Locals:         0       0       0       0       0       0       0       0       0       0       0       0       
      +0       0       0       0       0       0       0       0       0       0       0       0       0       0       0       
      +0       0       0       0       0       0
  1113 ;;      Temps:          0       0       0       0       0       0       0       0       0       0       0       0       
      +0       0       0       0       0       0       0       0       0       0       0       0       0       0       0       
      +0       0       0       0       0       0
  1114 ;;      Totals:         0       0       0       0       0       0       0       0       0       0       0       0       
      +0       0       0       0       0       0       0       0       0       0       0       0       0       0       0       
      +0       0       0       0       0       0
  1115 ;;Total ram usage:        0 bytes
  1116 ;; Hardware stack levels used: 1
  1117 ;; Hardware stack levels required when called: 6
  1118 ;; This function calls:
  1119 ;;		_I2C1_SlaveGetRxData
  1120 ;; This function is called by:
  1121 ;;		_main
  1122 ;; This function uses a non-reentrant model
  1123 ;;
  1124                           
  1125                           	psect	text11
  1126   0005D2                     __ptext11:
  1127                           	callstack 0
  1128   0005D2                     _I2C1_Read:
  1129                           	callstack 120
  1130   0005D2                     
  1131                           ;mcc_generated_files/i2c1_slave.c: 149:    return I2C1_SlaveGetRxData();
  1132   0005D2  ECEC  F002         	call	_I2C1_SlaveGetRxData	;wreg free
  1133   0005D6  0012               	return		;funcret
  1134   0005D8                     __end_of_I2C1_Read:
  1135                           	callstack 0
  1136                           
  1137 ;; *************** function _I2C1_SlaveGetRxData *****************
  1138 ;; Defined at:
  1139 ;;		line 450 in file "mcc_generated_files/i2c1_slave.c"
  1140 ;; Parameters:    Size  Location     Type
  1141 ;;		None
  1142 ;; Auto vars:     Size  Location     Type
  1143 ;;		None
  1144 ;; Return value:  Size  Location     Type
  1145 ;;                  1    wreg      unsigned char 
  1146 ;; Registers used:
  1147 ;;		wreg, status,2
  1148 ;; Tracked objects:
  1149 ;;		On entry : 0/0
  1150 ;;		On exit  : 0/0
  1151 ;;		Unchanged: 0/0
  1152 ;; Data sizes:     COMRAM   BANK5   BANK6   BANK7   BANK8   BANK9  BANK10  BANK11  BANK12  BANK13  BANK14  BANK15  BANK1
      +6  BANK17  BANK18  BANK19  BANK20  BANK21  BANK22  BANK23  BANK24  BANK25  BANK26  BANK27  BANK28  BANK29  BANK30  BANK3
      +1  BANK32  BANK33  BANK34  BANK35  BANK36
  1153 ;;      Params:         0       0       0       0       0       0       0       0       0       0       0       0       
      +0       0       0       0       0       0       0       0       0       0       0       0       0       0       0       
      +0       0       0       0       0       0
  1154 ;;      Locals:         0       0       0       0       0       0       0       0       0       0       0       0       
      +0       0       0       0       0       0       0       0       0       0       0       0       0       0       0       
      +0       0       0       0       0       0
  1155 ;;      Temps:          0       0       0       0       0       0       0       0       0       0       0       0       
      +0       0       0       0       0       0       0       0       0       0       0       0       0       0       0       
      +0       0       0       0       0       0
  1156 ;;      Totals:         0       0       0       0       0       0       0       0       0       0       0       0       
      +0       0       0       0       0       0       0       0       0       0       0       0       0       0       0       
      +0       0       0       0       0       0
  1157 ;;Total ram usage:        0 bytes
  1158 ;; Hardware stack levels used: 1
  1159 ;; Hardware stack levels required when called: 5
  1160 ;; This function calls:
  1161 ;;		Nothing
  1162 ;; This function is called by:
  1163 ;;		_I2C1_Read
  1164 ;; This function uses a non-reentrant model
  1165 ;;
  1166                           
  1167                           	psect	text12
  1168   0005D8                     __ptext12:
  1169                           	callstack 0
  1170   0005D8                     _I2C1_SlaveGetRxData:
  1171                           	callstack 120
  1172   0005D8                     
  1173                           ;mcc_generated_files/i2c1_slave.c: 452:     return I2C1RXB;
  1174   0005D8  0102               	movlb	2	; () banked
  1175   0005DA  518B               	movf	139,w,b	;volatile
  1176   0005DC                     
  1177                           ; BSR set to: 2
  1178   0005DC  0012               	return		;funcret
  1179   0005DE                     __end_of_I2C1_SlaveGetRxData:
  1180                           	callstack 0
  1181                           
  1182 ;; *************** function _I2C1_Open *****************
  1183 ;; Defined at:
  1184 ;;		line 128 in file "mcc_generated_files/i2c1_slave.c"
  1185 ;; Parameters:    Size  Location     Type
  1186 ;;		None
  1187 ;; Auto vars:     Size  Location     Type
  1188 ;;		None
  1189 ;; Return value:  Size  Location     Type
  1190 ;;                  1    wreg      void 
  1191 ;; Registers used:
  1192 ;;		wreg, status,2, status,0, cstack
  1193 ;; Tracked objects:
  1194 ;;		On entry : 0/0
  1195 ;;		On exit  : 0/0
  1196 ;;		Unchanged: 0/0
  1197 ;; Data sizes:     COMRAM   BANK5   BANK6   BANK7   BANK8   BANK9  BANK10  BANK11  BANK12  BANK13  BANK14  BANK15  BANK1
      +6  BANK17  BANK18  BANK19  BANK20  BANK21  BANK22  BANK23  BANK24  BANK25  BANK26  BANK27  BANK28  BANK29  BANK30  BANK3
      +1  BANK32  BANK33  BANK34  BANK35  BANK36
  1198 ;;      Params:         0       0       0       0       0       0       0       0       0       0       0       0       
      +0       0       0       0       0       0       0       0       0       0       0       0       0       0       0       
      +0       0       0       0       0       0
  1199 ;;      Locals:         0       0       0       0       0       0       0       0       0       0       0       0       
      +0       0       0       0       0       0       0       0       0       0       0       0       0       0       0       
      +0       0       0       0       0       0
  1200 ;;      Temps:          0       0       0       0       0       0       0       0       0       0       0       0       
      +0       0       0       0       0       0       0       0       0       0       0       0       0       0       0       
      +0       0       0       0       0       0
  1201 ;;      Totals:         0       0       0       0       0       0       0       0       0       0       0       0       
      +0       0       0       0       0       0       0       0       0       0       0       0       0       0       0       
      +0       0       0       0       0       0
  1202 ;;Total ram usage:        0 bytes
  1203 ;; Hardware stack levels used: 1
  1204 ;; Hardware stack levels required when called: 6
  1205 ;; This function calls:
  1206 ;;		_I2C1_SlaveEnableIrq
  1207 ;;		_I2C1_SlaveOpen
  1208 ;;		_I2C1_SlaveSetAddrIntHandler
  1209 ;;		_I2C1_SlaveSetBusColIntHandler
  1210 ;;		_I2C1_SlaveSetIsrHandler
  1211 ;;		_I2C1_SlaveSetReadIntHandler
  1212 ;;		_I2C1_SlaveSetSlaveAddr
  1213 ;;		_I2C1_SlaveSetSlaveMask
  1214 ;;		_I2C1_SlaveSetWrColIntHandler
  1215 ;;		_I2C1_SlaveSetWriteIntHandler
  1216 ;; This function is called by:
  1217 ;;		_main
  1218 ;; This function uses a non-reentrant model
  1219 ;;
  1220                           
  1221                           	psect	text13
  1222   0002AA                     __ptext13:
  1223                           	callstack 0
  1224   0002AA                     _I2C1_Open:
  1225                           	callstack 120
  1226   0002AA                     
  1227                           ;mcc_generated_files/i2c1_slave.c: 130:     I2C1_SlaveOpen();
  1228   0002AA  EC71  F002         	call	_I2C1_SlaveOpen	;wreg free
  1229   0002AE                     
  1230                           ;mcc_generated_files/i2c1_slave.c: 131:     I2C1_SlaveSetSlaveAddr(19);
  1231   0002AE  0E13               	movlw	19
  1232   0002B0  EC84  F002         	call	_I2C1_SlaveSetSlaveAddr
  1233   0002B4                     
  1234                           ;mcc_generated_files/i2c1_slave.c: 132:     I2C1_SlaveSetSlaveMask(127);
  1235   0002B4  0E7F               	movlw	127
  1236   0002B6  EC7B  F002         	call	_I2C1_SlaveSetSlaveMask
  1237   0002BA                     
  1238                           ;mcc_generated_files/i2c1_slave.c: 133:     I2C1_SlaveSetIsrHandler(I2C1_Isr);
  1239   0002BA  0E1E               	movlw	low _I2C1_Isr
  1240   0002BC  6E1D               	movwf	I2C1_SlaveSetIsrHandler@handler^(0+1280),c
  1241   0002BE  0E00               	movlw	high _I2C1_Isr
  1242   0002C0  6E1E               	movwf	(I2C1_SlaveSetIsrHandler@handler+1)^(0+1280),c
  1243   0002C2  0E00               	movlw	low (_I2C1_Isr shr (0+16))
  1244   0002C4  6E1F               	movwf	(I2C1_SlaveSetIsrHandler@handler+2)^(0+1280),c
  1245   0002C6  ECAB  F002         	call	_I2C1_SlaveSetIsrHandler	;wreg free
  1246   0002CA                     
  1247                           ;mcc_generated_files/i2c1_slave.c: 134:     I2C1_SlaveSetBusColIntHandler(I2C1_SlaveDefB
      +                          usColInterruptHandler);
  1248   0002CA  0E00               	movlw	0
  1249   0002CC  6E1D               	movwf	I2C1_SlaveSetBusColIntHandler@handler^(0+1280),c
  1250   0002CE  0E00               	movlw	0
  1251   0002D0  6E1E               	movwf	(I2C1_SlaveSetBusColIntHandler@handler+1)^(0+1280),c
  1252   0002D2  0E00               	movlw	0
  1253   0002D4  6E1F               	movwf	(I2C1_SlaveSetBusColIntHandler@handler+2)^(0+1280),c
  1254   0002D6  ECB2  F002         	call	_I2C1_SlaveSetBusColIntHandler	;wreg free
  1255   0002DA                     
  1256                           ;mcc_generated_files/i2c1_slave.c: 135:     I2C1_SlaveSetWriteIntHandler(I2C1_SlaveDefWr
      +                          InterruptHandler);
  1257   0002DA  0E88               	movlw	low _I2C1_SlaveDefWrInterruptHandler
  1258   0002DC  6E1D               	movwf	I2C1_SlaveSetWriteIntHandler@handler^(0+1280),c
  1259   0002DE  0E05               	movlw	high _I2C1_SlaveDefWrInterruptHandler
  1260   0002E0  6E1E               	movwf	(I2C1_SlaveSetWriteIntHandler@handler+1)^(0+1280),c
  1261   0002E2  0E00               	movlw	low (_I2C1_SlaveDefWrInterruptHandler shr (0+16))
  1262   0002E4  6E1F               	movwf	(I2C1_SlaveSetWriteIntHandler@handler+2)^(0+1280),c
  1263   0002E6  EC96  F002         	call	_I2C1_SlaveSetWriteIntHandler	;wreg free
  1264   0002EA                     
  1265                           ;mcc_generated_files/i2c1_slave.c: 136:     I2C1_SlaveSetReadIntHandler(I2C1_SlaveDefRdI
      +                          nterruptHandler);
  1266   0002EA  0EA0               	movlw	low _I2C1_SlaveDefRdInterruptHandler
  1267   0002EC  6E1D               	movwf	I2C1_SlaveSetReadIntHandler@handler^(0+1280),c
  1268   0002EE  0E05               	movlw	high _I2C1_SlaveDefRdInterruptHandler
  1269   0002F0  6E1E               	movwf	(I2C1_SlaveSetReadIntHandler@handler+1)^(0+1280),c
  1270   0002F2  0E00               	movlw	low (_I2C1_SlaveDefRdInterruptHandler shr (0+16))
  1271   0002F4  6E1F               	movwf	(I2C1_SlaveSetReadIntHandler@handler+2)^(0+1280),c
  1272   0002F6  ECA4  F002         	call	_I2C1_SlaveSetReadIntHandler	;wreg free
  1273   0002FA                     
  1274                           ;mcc_generated_files/i2c1_slave.c: 137:     I2C1_SlaveSetAddrIntHandler(I2C1_SlaveDefAdd
      +                          rInterruptHandler);
  1275   0002FA  0EB0               	movlw	low _I2C1_SlaveDefAddrInterruptHandler
  1276   0002FC  6E1D               	movwf	I2C1_SlaveSetAddrIntHandler@handler^(0+1280),c
  1277   0002FE  0E05               	movlw	high _I2C1_SlaveDefAddrInterruptHandler
  1278   000300  6E1E               	movwf	(I2C1_SlaveSetAddrIntHandler@handler+1)^(0+1280),c
  1279   000302  0E00               	movlw	low (_I2C1_SlaveDefAddrInterruptHandler shr (0+16))
  1280   000304  6E1F               	movwf	(I2C1_SlaveSetAddrIntHandler@handler+2)^(0+1280),c
  1281   000306  ECB9  F002         	call	_I2C1_SlaveSetAddrIntHandler	;wreg free
  1282   00030A                     
  1283                           ;mcc_generated_files/i2c1_slave.c: 138:     I2C1_SlaveSetWrColIntHandler(I2C1_SlaveDefWr
      +                          ColInterruptHandler);
  1284   00030A  0E00               	movlw	0
  1285   00030C  6E1D               	movwf	I2C1_SlaveSetWrColIntHandler@handler^(0+1280),c
  1286   00030E  0E00               	movlw	0
  1287   000310  6E1E               	movwf	(I2C1_SlaveSetWrColIntHandler@handler+1)^(0+1280),c
  1288   000312  0E00               	movlw	0
  1289   000314  6E1F               	movwf	(I2C1_SlaveSetWrColIntHandler@handler+2)^(0+1280),c
  1290   000316  EC9D  F002         	call	_I2C1_SlaveSetWrColIntHandler	;wreg free
  1291                           
  1292                           ;mcc_generated_files/i2c1_slave.c: 139:     I2C1_SlaveEnableIrq();
  1293   00031A  EC8D  F002         	call	_I2C1_SlaveEnableIrq	;wreg free
  1294   00031E  0012               	return		;funcret
  1295   000320                     __end_of_I2C1_Open:
  1296                           	callstack 0
  1297                           
  1298 ;; *************** function _I2C1_SlaveSetWriteIntHandler *****************
  1299 ;; Defined at:
  1300 ;;		line 276 in file "mcc_generated_files/i2c1_slave.c"
  1301 ;; Parameters:    Size  Location     Type
  1302 ;;  handler         3    5[COMRAM] PTR FTN()void 
  1303 ;;		 -> I2C1_SlaveDefWrInterruptHandler(1), 
  1304 ;; Auto vars:     Size  Location     Type
  1305 ;;		None
  1306 ;; Return value:  Size  Location     Type
  1307 ;;                  1    wreg      void 
  1308 ;; Registers used:
  1309 ;;		wreg, status,2, status,0
  1310 ;; Tracked objects:
  1311 ;;		On entry : 0/0
  1312 ;;		On exit  : 0/0
  1313 ;;		Unchanged: 0/0
  1314 ;; Data sizes:     COMRAM   BANK5   BANK6   BANK7   BANK8   BANK9  BANK10  BANK11  BANK12  BANK13  BANK14  BANK15  BANK1
      +6  BANK17  BANK18  BANK19  BANK20  BANK21  BANK22  BANK23  BANK24  BANK25  BANK26  BANK27  BANK28  BANK29  BANK30  BANK3
      +1  BANK32  BANK33  BANK34  BANK35  BANK36
  1315 ;;      Params:         3       0       0       0       0       0       0       0       0       0       0       0       
      +0       0       0       0       0       0       0       0       0       0       0       0       0       0       0       
      +0       0       0       0       0       0
  1316 ;;      Locals:         0       0       0       0       0       0       0       0       0       0       0       0       
      +0       0       0       0       0       0       0       0       0       0       0       0       0       0       0       
      +0       0       0       0       0       0
  1317 ;;      Temps:          0       0       0       0       0       0       0       0       0       0       0       0       
      +0       0       0       0       0       0       0       0       0       0       0       0       0       0       0       
      +0       0       0       0       0       0
  1318 ;;      Totals:         3       0       0       0       0       0       0       0       0       0       0       0       
      +0       0       0       0       0       0       0       0       0       0       0       0       0       0       0       
      +0       0       0       0       0       0
  1319 ;;Total ram usage:        3 bytes
  1320 ;; Hardware stack levels used: 1
  1321 ;; Hardware stack levels required when called: 5
  1322 ;; This function calls:
  1323 ;;		Nothing
  1324 ;; This function is called by:
  1325 ;;		_I2C1_Open
  1326 ;; This function uses a non-reentrant model
  1327 ;;
  1328                           
  1329                           	psect	text14
  1330   00052C                     __ptext14:
  1331                           	callstack 0
  1332   00052C                     _I2C1_SlaveSetWriteIntHandler:
  1333                           	callstack 120
  1334   00052C                     
  1335                           ;mcc_generated_files/i2c1_slave.c: 277:     I2C1_SlaveWrInterruptHandler = handler;
  1336   00052C  C51D  F50A         	movff	I2C1_SlaveSetWriteIntHandler@handler,_I2C1_SlaveWrInterruptHandler
  1337   000530  C51E  F50B         	movff	I2C1_SlaveSetWriteIntHandler@handler+1,_I2C1_SlaveWrInterruptHandler+1
  1338   000534  C51F  F50C         	movff	I2C1_SlaveSetWriteIntHandler@handler+2,_I2C1_SlaveWrInterruptHandler+2
  1339   000538  0012               	return		;funcret
  1340   00053A                     __end_of_I2C1_SlaveSetWriteIntHandler:
  1341                           	callstack 0
  1342                           
  1343 ;; *************** function _I2C1_SlaveSetWrColIntHandler *****************
  1344 ;; Defined at:
  1345 ;;		line 309 in file "mcc_generated_files/i2c1_slave.c"
  1346 ;; Parameters:    Size  Location     Type
  1347 ;;  handler         3    5[COMRAM] PTR FTN()void 
  1348 ;;		 -> I2C1_SlaveDefWrColInterruptHandler(1), 
  1349 ;; Auto vars:     Size  Location     Type
  1350 ;;		None
  1351 ;; Return value:  Size  Location     Type
  1352 ;;                  1    wreg      void 
  1353 ;; Registers used:
  1354 ;;		wreg, status,2, status,0
  1355 ;; Tracked objects:
  1356 ;;		On entry : 0/0
  1357 ;;		On exit  : 0/0
  1358 ;;		Unchanged: 0/0
  1359 ;; Data sizes:     COMRAM   BANK5   BANK6   BANK7   BANK8   BANK9  BANK10  BANK11  BANK12  BANK13  BANK14  BANK15  BANK1
      +6  BANK17  BANK18  BANK19  BANK20  BANK21  BANK22  BANK23  BANK24  BANK25  BANK26  BANK27  BANK28  BANK29  BANK30  BANK3
      +1  BANK32  BANK33  BANK34  BANK35  BANK36
  1360 ;;      Params:         3       0       0       0       0       0       0       0       0       0       0       0       
      +0       0       0       0       0       0       0       0       0       0       0       0       0       0       0       
      +0       0       0       0       0       0
  1361 ;;      Locals:         0       0       0       0       0       0       0       0       0       0       0       0       
      +0       0       0       0       0       0       0       0       0       0       0       0       0       0       0       
      +0       0       0       0       0       0
  1362 ;;      Temps:          0       0       0       0       0       0       0       0       0       0       0       0       
      +0       0       0       0       0       0       0       0       0       0       0       0       0       0       0       
      +0       0       0       0       0       0
  1363 ;;      Totals:         3       0       0       0       0       0       0       0       0       0       0       0       
      +0       0       0       0       0       0       0       0       0       0       0       0       0       0       0       
      +0       0       0       0       0       0
  1364 ;;Total ram usage:        3 bytes
  1365 ;; Hardware stack levels used: 1
  1366 ;; Hardware stack levels required when called: 5
  1367 ;; This function calls:
  1368 ;;		Nothing
  1369 ;; This function is called by:
  1370 ;;		_I2C1_Open
  1371 ;; This function uses a non-reentrant model
  1372 ;;
  1373                           
  1374                           	psect	text15
  1375   00053A                     __ptext15:
  1376                           	callstack 0
  1377   00053A                     _I2C1_SlaveSetWrColIntHandler:
  1378                           	callstack 120
  1379   00053A                     
  1380                           ;mcc_generated_files/i2c1_slave.c: 310:     I2C1_SlaveWrColInterruptHandler = handler;
  1381   00053A  C51D  F501         	movff	I2C1_SlaveSetWrColIntHandler@handler,_I2C1_SlaveWrColInterruptHandler
  1382   00053E  C51E  F502         	movff	I2C1_SlaveSetWrColIntHandler@handler+1,_I2C1_SlaveWrColInterruptHandler+1
  1383   000542  C51F  F503         	movff	I2C1_SlaveSetWrColIntHandler@handler+2,_I2C1_SlaveWrColInterruptHandler+2
  1384   000546  0012               	return		;funcret
  1385   000548                     __end_of_I2C1_SlaveSetWrColIntHandler:
  1386                           	callstack 0
  1387                           
  1388 ;; *************** function _I2C1_SlaveSetSlaveMask *****************
  1389 ;; Defined at:
  1390 ;;		line 363 in file "mcc_generated_files/i2c1_slave.c"
  1391 ;; Parameters:    Size  Location     Type
  1392 ;;  maskAddr        1    wreg     unsigned char 
  1393 ;; Auto vars:     Size  Location     Type
  1394 ;;  maskAddr        1    5[COMRAM] unsigned char 
  1395 ;; Return value:  Size  Location     Type
  1396 ;;                  1    wreg      void 
  1397 ;; Registers used:
  1398 ;;		wreg, status,2, status,0
  1399 ;; Tracked objects:
  1400 ;;		On entry : 0/0
  1401 ;;		On exit  : 0/0
  1402 ;;		Unchanged: 0/0
  1403 ;; Data sizes:     COMRAM   BANK5   BANK6   BANK7   BANK8   BANK9  BANK10  BANK11  BANK12  BANK13  BANK14  BANK15  BANK1
      +6  BANK17  BANK18  BANK19  BANK20  BANK21  BANK22  BANK23  BANK24  BANK25  BANK26  BANK27  BANK28  BANK29  BANK30  BANK3
      +1  BANK32  BANK33  BANK34  BANK35  BANK36
  1404 ;;      Params:         0       0       0       0       0       0       0       0       0       0       0       0       
      +0       0       0       0       0       0       0       0       0       0       0       0       0       0       0       
      +0       0       0       0       0       0
  1405 ;;      Locals:         1       0       0       0       0       0       0       0       0       0       0       0       
      +0       0       0       0       0       0       0       0       0       0       0       0       0       0       0       
      +0       0       0       0       0       0
  1406 ;;      Temps:          0       0       0       0       0       0       0       0       0       0       0       0       
      +0       0       0       0       0       0       0       0       0       0       0       0       0       0       0       
      +0       0       0       0       0       0
  1407 ;;      Totals:         1       0       0       0       0       0       0       0       0       0       0       0       
      +0       0       0       0       0       0       0       0       0       0       0       0       0       0       0       
      +0       0       0       0       0       0
  1408 ;;Total ram usage:        1 bytes
  1409 ;; Hardware stack levels used: 1
  1410 ;; Hardware stack levels required when called: 5
  1411 ;; This function calls:
  1412 ;;		Nothing
  1413 ;; This function is called by:
  1414 ;;		_I2C1_Open
  1415 ;; This function uses a non-reentrant model
  1416 ;;
  1417                           
  1418                           	psect	text16
  1419   0004F6                     __ptext16:
  1420                           	callstack 0
  1421   0004F6                     _I2C1_SlaveSetSlaveMask:
  1422                           	callstack 120
  1423                           
  1424                           ;incstack = 0
  1425                           ;I2C1_SlaveSetSlaveMask@maskAddr stored from wreg
  1426   0004F6  6E1D               	movwf	I2C1_SlaveSetSlaveMask@maskAddr^(0+1280),c
  1427   0004F8                     
  1428                           ;mcc_generated_files/i2c1_slave.c: 363: static __attribute__((inline)) void I2C1_SlaveSe
      +                          tSlaveMask(uint8_t maskAddr);mcc_generated_files/i2c1_slave.c: 364: {;mcc_generated_file
      +                          s/i2c1_slave.c: 365:     I2C1ADR1 = (uint8_t) (maskAddr << 1);
  1429   0004F8  501D               	movf	I2C1_SlaveSetSlaveMask@maskAddr^(0+1280),w,c
  1430   0004FA  241D               	addwf	I2C1_SlaveSetSlaveMask@maskAddr^(0+1280),w,c
  1431   0004FC  0102               	movlb	2	; () banked
  1432   0004FE  6F91               	movwf	145,b	;volatile
  1433                           
  1434                           ;mcc_generated_files/i2c1_slave.c: 366:     I2C1ADR3 = (uint8_t) (maskAddr << 1);
  1435   000500  501D               	movf	I2C1_SlaveSetSlaveMask@maskAddr^(0+1280),w,c
  1436   000502  241D               	addwf	I2C1_SlaveSetSlaveMask@maskAddr^(0+1280),w,c
  1437   000504  6F93               	movwf	147,b	;volatile
  1438   000506                     
  1439                           ; BSR set to: 2
  1440   000506  0012               	return		;funcret
  1441   000508                     __end_of_I2C1_SlaveSetSlaveMask:
  1442                           	callstack 0
  1443                           
  1444 ;; *************** function _I2C1_SlaveSetSlaveAddr *****************
  1445 ;; Defined at:
  1446 ;;		line 357 in file "mcc_generated_files/i2c1_slave.c"
  1447 ;; Parameters:    Size  Location     Type
  1448 ;;  slaveAddr       1    wreg     unsigned char 
  1449 ;; Auto vars:     Size  Location     Type
  1450 ;;  slaveAddr       1    5[COMRAM] unsigned char 
  1451 ;; Return value:  Size  Location     Type
  1452 ;;                  1    wreg      void 
  1453 ;; Registers used:
  1454 ;;		wreg, status,2, status,0
  1455 ;; Tracked objects:
  1456 ;;		On entry : 0/0
  1457 ;;		On exit  : 0/0
  1458 ;;		Unchanged: 0/0
  1459 ;; Data sizes:     COMRAM   BANK5   BANK6   BANK7   BANK8   BANK9  BANK10  BANK11  BANK12  BANK13  BANK14  BANK15  BANK1
      +6  BANK17  BANK18  BANK19  BANK20  BANK21  BANK22  BANK23  BANK24  BANK25  BANK26  BANK27  BANK28  BANK29  BANK30  BANK3
      +1  BANK32  BANK33  BANK34  BANK35  BANK36
  1460 ;;      Params:         0       0       0       0       0       0       0       0       0       0       0       0       
      +0       0       0       0       0       0       0       0       0       0       0       0       0       0       0       
      +0       0       0       0       0       0
  1461 ;;      Locals:         1       0       0       0       0       0       0       0       0       0       0       0       
      +0       0       0       0       0       0       0       0       0       0       0       0       0       0       0       
      +0       0       0       0       0       0
  1462 ;;      Temps:          0       0       0       0       0       0       0       0       0       0       0       0       
      +0       0       0       0       0       0       0       0       0       0       0       0       0       0       0       
      +0       0       0       0       0       0
  1463 ;;      Totals:         1       0       0       0       0       0       0       0       0       0       0       0       
      +0       0       0       0       0       0       0       0       0       0       0       0       0       0       0       
      +0       0       0       0       0       0
  1464 ;;Total ram usage:        1 bytes
  1465 ;; Hardware stack levels used: 1
  1466 ;; Hardware stack levels required when called: 5
  1467 ;; This function calls:
  1468 ;;		Nothing
  1469 ;; This function is called by:
  1470 ;;		_I2C1_Open
  1471 ;; This function uses a non-reentrant model
  1472 ;;
  1473                           
  1474                           	psect	text17
  1475   000508                     __ptext17:
  1476                           	callstack 0
  1477   000508                     _I2C1_SlaveSetSlaveAddr:
  1478                           	callstack 120
  1479                           
  1480                           ; BSR set to: 2
  1481                           ;incstack = 0
  1482                           ;I2C1_SlaveSetSlaveAddr@slaveAddr stored from wreg
  1483   000508  6E1D               	movwf	I2C1_SlaveSetSlaveAddr@slaveAddr^(0+1280),c
  1484   00050A                     
  1485                           ;mcc_generated_files/i2c1_slave.c: 357: static __attribute__((inline)) void I2C1_SlaveSe
      +                          tSlaveAddr(uint8_t slaveAddr);mcc_generated_files/i2c1_slave.c: 358: {;mcc_generated_fil
      +                          es/i2c1_slave.c: 359:     I2C1ADR0 = (uint8_t) (slaveAddr << 1);
  1486   00050A  501D               	movf	I2C1_SlaveSetSlaveAddr@slaveAddr^(0+1280),w,c
  1487   00050C  241D               	addwf	I2C1_SlaveSetSlaveAddr@slaveAddr^(0+1280),w,c
  1488   00050E  0102               	movlb	2	; () banked
  1489   000510  6F90               	movwf	144,b	;volatile
  1490                           
  1491                           ;mcc_generated_files/i2c1_slave.c: 360:     I2C1ADR2 = (uint8_t) (slaveAddr << 1);
  1492   000512  501D               	movf	I2C1_SlaveSetSlaveAddr@slaveAddr^(0+1280),w,c
  1493   000514  241D               	addwf	I2C1_SlaveSetSlaveAddr@slaveAddr^(0+1280),w,c
  1494   000516  6F92               	movwf	146,b	;volatile
  1495   000518                     
  1496                           ; BSR set to: 2
  1497   000518  0012               	return		;funcret
  1498   00051A                     __end_of_I2C1_SlaveSetSlaveAddr:
  1499                           	callstack 0
  1500                           
  1501 ;; *************** function _I2C1_SlaveSetReadIntHandler *****************
  1502 ;; Defined at:
  1503 ;;		line 259 in file "mcc_generated_files/i2c1_slave.c"
  1504 ;; Parameters:    Size  Location     Type
  1505 ;;  handler         3    5[COMRAM] PTR FTN()void 
  1506 ;;		 -> I2C1_SlaveDefRdInterruptHandler(1), 
  1507 ;; Auto vars:     Size  Location     Type
  1508 ;;		None
  1509 ;; Return value:  Size  Location     Type
  1510 ;;                  1    wreg      void 
  1511 ;; Registers used:
  1512 ;;		wreg, status,2, status,0
  1513 ;; Tracked objects:
  1514 ;;		On entry : 0/0
  1515 ;;		On exit  : 0/0
  1516 ;;		Unchanged: 0/0
  1517 ;; Data sizes:     COMRAM   BANK5   BANK6   BANK7   BANK8   BANK9  BANK10  BANK11  BANK12  BANK13  BANK14  BANK15  BANK1
      +6  BANK17  BANK18  BANK19  BANK20  BANK21  BANK22  BANK23  BANK24  BANK25  BANK26  BANK27  BANK28  BANK29  BANK30  BANK3
      +1  BANK32  BANK33  BANK34  BANK35  BANK36
  1518 ;;      Params:         3       0       0       0       0       0       0       0       0       0       0       0       
      +0       0       0       0       0       0       0       0       0       0       0       0       0       0       0       
      +0       0       0       0       0       0
  1519 ;;      Locals:         0       0       0       0       0       0       0       0       0       0       0       0       
      +0       0       0       0       0       0       0       0       0       0       0       0       0       0       0       
      +0       0       0       0       0       0
  1520 ;;      Temps:          0       0       0       0       0       0       0       0       0       0       0       0       
      +0       0       0       0       0       0       0       0       0       0       0       0       0       0       0       
      +0       0       0       0       0       0
  1521 ;;      Totals:         3       0       0       0       0       0       0       0       0       0       0       0       
      +0       0       0       0       0       0       0       0       0       0       0       0       0       0       0       
      +0       0       0       0       0       0
  1522 ;;Total ram usage:        3 bytes
  1523 ;; Hardware stack levels used: 1
  1524 ;; Hardware stack levels required when called: 5
  1525 ;; This function calls:
  1526 ;;		Nothing
  1527 ;; This function is called by:
  1528 ;;		_I2C1_Open
  1529 ;; This function uses a non-reentrant model
  1530 ;;
  1531                           
  1532                           	psect	text18
  1533   000548                     __ptext18:
  1534                           	callstack 0
  1535   000548                     _I2C1_SlaveSetReadIntHandler:
  1536                           	callstack 120
  1537   000548                     
  1538                           ;mcc_generated_files/i2c1_slave.c: 260:     I2C1_SlaveRdInterruptHandler = handler;
  1539   000548  C51D  F50D         	movff	I2C1_SlaveSetReadIntHandler@handler,_I2C1_SlaveRdInterruptHandler
  1540   00054C  C51E  F50E         	movff	I2C1_SlaveSetReadIntHandler@handler+1,_I2C1_SlaveRdInterruptHandler+1
  1541   000550  C51F  F50F         	movff	I2C1_SlaveSetReadIntHandler@handler+2,_I2C1_SlaveRdInterruptHandler+2
  1542   000554  0012               	return		;funcret
  1543   000556                     __end_of_I2C1_SlaveSetReadIntHandler:
  1544                           	callstack 0
  1545                           
  1546 ;; *************** function _I2C1_SlaveSetIsrHandler *****************
  1547 ;; Defined at:
  1548 ;;		line 253 in file "mcc_generated_files/i2c1_slave.c"
  1549 ;; Parameters:    Size  Location     Type
  1550 ;;  handler         3    5[COMRAM] PTR FTN()void 
  1551 ;;		 -> I2C1_Isr(1), 
  1552 ;; Auto vars:     Size  Location     Type
  1553 ;;		None
  1554 ;; Return value:  Size  Location     Type
  1555 ;;                  1    wreg      void 
  1556 ;; Registers used:
  1557 ;;		wreg, status,2, status,0
  1558 ;; Tracked objects:
  1559 ;;		On entry : 0/0
  1560 ;;		On exit  : 0/0
  1561 ;;		Unchanged: 0/0
  1562 ;; Data sizes:     COMRAM   BANK5   BANK6   BANK7   BANK8   BANK9  BANK10  BANK11  BANK12  BANK13  BANK14  BANK15  BANK1
      +6  BANK17  BANK18  BANK19  BANK20  BANK21  BANK22  BANK23  BANK24  BANK25  BANK26  BANK27  BANK28  BANK29  BANK30  BANK3
      +1  BANK32  BANK33  BANK34  BANK35  BANK36
  1563 ;;      Params:         3       0       0       0       0       0       0       0       0       0       0       0       
      +0       0       0       0       0       0       0       0       0       0       0       0       0       0       0       
      +0       0       0       0       0       0
  1564 ;;      Locals:         0       0       0       0       0       0       0       0       0       0       0       0       
      +0       0       0       0       0       0       0       0       0       0       0       0       0       0       0       
      +0       0       0       0       0       0
  1565 ;;      Temps:          0       0       0       0       0       0       0       0       0       0       0       0       
      +0       0       0       0       0       0       0       0       0       0       0       0       0       0       0       
      +0       0       0       0       0       0
  1566 ;;      Totals:         3       0       0       0       0       0       0       0       0       0       0       0       
      +0       0       0       0       0       0       0       0       0       0       0       0       0       0       0       
      +0       0       0       0       0       0
  1567 ;;Total ram usage:        3 bytes
  1568 ;; Hardware stack levels used: 1
  1569 ;; Hardware stack levels required when called: 5
  1570 ;; This function calls:
  1571 ;;		Nothing
  1572 ;; This function is called by:
  1573 ;;		_I2C1_Open
  1574 ;; This function uses a non-reentrant model
  1575 ;;
  1576                           
  1577                           	psect	text19
  1578   000556                     __ptext19:
  1579                           	callstack 0
  1580   000556                     _I2C1_SlaveSetIsrHandler:
  1581                           	callstack 120
  1582   000556                     
  1583                           ;mcc_generated_files/i2c1_slave.c: 253: void I2C1_SlaveSetIsrHandler(i2c1InterruptHandle
      +                          r handler);mcc_generated_files/i2c1_slave.c: 254: {;mcc_generated_files/i2c1_slave.c: 25
      +                          5:     I2C1_InterruptHandler = handler;
  1584   000556  C51D  F510         	movff	I2C1_SlaveSetIsrHandler@handler,_I2C1_InterruptHandler
  1585   00055A  C51E  F511         	movff	I2C1_SlaveSetIsrHandler@handler+1,_I2C1_InterruptHandler+1
  1586   00055E  C51F  F512         	movff	I2C1_SlaveSetIsrHandler@handler+2,_I2C1_InterruptHandler+2
  1587   000562  0012               	return		;funcret
  1588   000564                     __end_of_I2C1_SlaveSetIsrHandler:
  1589                           	callstack 0
  1590                           
  1591 ;; *************** function _I2C1_SlaveSetBusColIntHandler *****************
  1592 ;; Defined at:
  1593 ;;		line 325 in file "mcc_generated_files/i2c1_slave.c"
  1594 ;; Parameters:    Size  Location     Type
  1595 ;;  handler         3    5[COMRAM] PTR FTN()void 
  1596 ;;		 -> I2C1_SlaveDefBusColInterruptHandler(1), 
  1597 ;; Auto vars:     Size  Location     Type
  1598 ;;		None
  1599 ;; Return value:  Size  Location     Type
  1600 ;;                  1    wreg      void 
  1601 ;; Registers used:
  1602 ;;		wreg, status,2, status,0
  1603 ;; Tracked objects:
  1604 ;;		On entry : 0/0
  1605 ;;		On exit  : 0/0
  1606 ;;		Unchanged: 0/0
  1607 ;; Data sizes:     COMRAM   BANK5   BANK6   BANK7   BANK8   BANK9  BANK10  BANK11  BANK12  BANK13  BANK14  BANK15  BANK1
      +6  BANK17  BANK18  BANK19  BANK20  BANK21  BANK22  BANK23  BANK24  BANK25  BANK26  BANK27  BANK28  BANK29  BANK30  BANK3
      +1  BANK32  BANK33  BANK34  BANK35  BANK36
  1608 ;;      Params:         3       0       0       0       0       0       0       0       0       0       0       0       
      +0       0       0       0       0       0       0       0       0       0       0       0       0       0       0       
      +0       0       0       0       0       0
  1609 ;;      Locals:         0       0       0       0       0       0       0       0       0       0       0       0       
      +0       0       0       0       0       0       0       0       0       0       0       0       0       0       0       
      +0       0       0       0       0       0
  1610 ;;      Temps:          0       0       0       0       0       0       0       0       0       0       0       0       
      +0       0       0       0       0       0       0       0       0       0       0       0       0       0       0       
      +0       0       0       0       0       0
  1611 ;;      Totals:         3       0       0       0       0       0       0       0       0       0       0       0       
      +0       0       0       0       0       0       0       0       0       0       0       0       0       0       0       
      +0       0       0       0       0       0
  1612 ;;Total ram usage:        3 bytes
  1613 ;; Hardware stack levels used: 1
  1614 ;; Hardware stack levels required when called: 5
  1615 ;; This function calls:
  1616 ;;		Nothing
  1617 ;; This function is called by:
  1618 ;;		_I2C1_Open
  1619 ;; This function uses a non-reentrant model
  1620 ;;
  1621                           
  1622                           	psect	text20
  1623   000564                     __ptext20:
  1624                           	callstack 0
  1625   000564                     _I2C1_SlaveSetBusColIntHandler:
  1626                           	callstack 120
  1627   000564                     
  1628                           ;mcc_generated_files/i2c1_slave.c: 326:     I2C1_SlaveBusColInterruptHandler = handler;
  1629   000564  C51D  F504         	movff	I2C1_SlaveSetBusColIntHandler@handler,_I2C1_SlaveBusColInterruptHandler
  1630   000568  C51E  F505         	movff	I2C1_SlaveSetBusColIntHandler@handler+1,_I2C1_SlaveBusColInterruptHandler+1
  1631   00056C  C51F  F506         	movff	I2C1_SlaveSetBusColIntHandler@handler+2,_I2C1_SlaveBusColInterruptHandler+2
  1632   000570  0012               	return		;funcret
  1633   000572                     __end_of_I2C1_SlaveSetBusColIntHandler:
  1634                           	callstack 0
  1635                           
  1636 ;; *************** function _I2C1_SlaveSetAddrIntHandler *****************
  1637 ;; Defined at:
  1638 ;;		line 293 in file "mcc_generated_files/i2c1_slave.c"
  1639 ;; Parameters:    Size  Location     Type
  1640 ;;  handler         3    5[COMRAM] PTR FTN()void 
  1641 ;;		 -> I2C1_SlaveDefAddrInterruptHandler(1), 
  1642 ;; Auto vars:     Size  Location     Type
  1643 ;;		None
  1644 ;; Return value:  Size  Location     Type
  1645 ;;                  1    wreg      void 
  1646 ;; Registers used:
  1647 ;;		wreg, status,2, status,0
  1648 ;; Tracked objects:
  1649 ;;		On entry : 0/0
  1650 ;;		On exit  : 0/0
  1651 ;;		Unchanged: 0/0
  1652 ;; Data sizes:     COMRAM   BANK5   BANK6   BANK7   BANK8   BANK9  BANK10  BANK11  BANK12  BANK13  BANK14  BANK15  BANK1
      +6  BANK17  BANK18  BANK19  BANK20  BANK21  BANK22  BANK23  BANK24  BANK25  BANK26  BANK27  BANK28  BANK29  BANK30  BANK3
      +1  BANK32  BANK33  BANK34  BANK35  BANK36
  1653 ;;      Params:         3       0       0       0       0       0       0       0       0       0       0       0       
      +0       0       0       0       0       0       0       0       0       0       0       0       0       0       0       
      +0       0       0       0       0       0
  1654 ;;      Locals:         0       0       0       0       0       0       0       0       0       0       0       0       
      +0       0       0       0       0       0       0       0       0       0       0       0       0       0       0       
      +0       0       0       0       0       0
  1655 ;;      Temps:          0       0       0       0       0       0       0       0       0       0       0       0       
      +0       0       0       0       0       0       0       0       0       0       0       0       0       0       0       
      +0       0       0       0       0       0
  1656 ;;      Totals:         3       0       0       0       0       0       0       0       0       0       0       0       
      +0       0       0       0       0       0       0       0       0       0       0       0       0       0       0       
      +0       0       0       0       0       0
  1657 ;;Total ram usage:        3 bytes
  1658 ;; Hardware stack levels used: 1
  1659 ;; Hardware stack levels required when called: 5
  1660 ;; This function calls:
  1661 ;;		Nothing
  1662 ;; This function is called by:
  1663 ;;		_I2C1_Open
  1664 ;; This function uses a non-reentrant model
  1665 ;;
  1666                           
  1667                           	psect	text21
  1668   000572                     __ptext21:
  1669                           	callstack 0
  1670   000572                     _I2C1_SlaveSetAddrIntHandler:
  1671                           	callstack 120
  1672   000572                     
  1673                           ;mcc_generated_files/i2c1_slave.c: 294:     I2C1_SlaveAddrInterruptHandler = handler;
  1674   000572  C51D  F507         	movff	I2C1_SlaveSetAddrIntHandler@handler,_I2C1_SlaveAddrInterruptHandler
  1675   000576  C51E  F508         	movff	I2C1_SlaveSetAddrIntHandler@handler+1,_I2C1_SlaveAddrInterruptHandler+1
  1676   00057A  C51F  F509         	movff	I2C1_SlaveSetAddrIntHandler@handler+2,_I2C1_SlaveAddrInterruptHandler+2
  1677   00057E  0012               	return		;funcret
  1678   000580                     __end_of_I2C1_SlaveSetAddrIntHandler:
  1679                           	callstack 0
  1680                           
  1681 ;; *************** function _I2C1_SlaveOpen *****************
  1682 ;; Defined at:
  1683 ;;		line 340 in file "mcc_generated_files/i2c1_slave.c"
  1684 ;; Parameters:    Size  Location     Type
  1685 ;;		None
  1686 ;; Auto vars:     Size  Location     Type
  1687 ;;		None
  1688 ;; Return value:  Size  Location     Type
  1689 ;;                  1    wreg      _Bool 
  1690 ;; Registers used:
  1691 ;;		None
  1692 ;; Tracked objects:
  1693 ;;		On entry : 0/0
  1694 ;;		On exit  : 0/0
  1695 ;;		Unchanged: 0/0
  1696 ;; Data sizes:     COMRAM   BANK5   BANK6   BANK7   BANK8   BANK9  BANK10  BANK11  BANK12  BANK13  BANK14  BANK15  BANK1
      +6  BANK17  BANK18  BANK19  BANK20  BANK21  BANK22  BANK23  BANK24  BANK25  BANK26  BANK27  BANK28  BANK29  BANK30  BANK3
      +1  BANK32  BANK33  BANK34  BANK35  BANK36
  1697 ;;      Params:         0       0       0       0       0       0       0       0       0       0       0       0       
      +0       0       0       0       0       0       0       0       0       0       0       0       0       0       0       
      +0       0       0       0       0       0
  1698 ;;      Locals:         0       0       0       0       0       0       0       0       0       0       0       0       
      +0       0       0       0       0       0       0       0       0       0       0       0       0       0       0       
      +0       0       0       0       0       0
  1699 ;;      Temps:          0       0       0       0       0       0       0       0       0       0       0       0       
      +0       0       0       0       0       0       0       0       0       0       0       0       0       0       0       
      +0       0       0       0       0       0
  1700 ;;      Totals:         0       0       0       0       0       0       0       0       0       0       0       0       
      +0       0       0       0       0       0       0       0       0       0       0       0       0       0       0       
      +0       0       0       0       0       0
  1701 ;;Total ram usage:        0 bytes
  1702 ;; Hardware stack levels used: 1
  1703 ;; Hardware stack levels required when called: 5
  1704 ;; This function calls:
  1705 ;;		Nothing
  1706 ;; This function is called by:
  1707 ;;		_I2C1_Open
  1708 ;; This function uses a non-reentrant model
  1709 ;;
  1710                           
  1711                           	psect	text22
  1712   0004E2                     __ptext22:
  1713                           	callstack 0
  1714   0004E2                     _I2C1_SlaveOpen:
  1715                           	callstack 120
  1716   0004E2                     
  1717                           ;mcc_generated_files/i2c1_slave.c: 342:     if(!I2C1CON0bits.EN)
  1718   0004E2  0102               	movlb	2	; () banked
  1719   0004E4  BF94               	btfsc	148,7,b	;volatile
  1720   0004E6  EF77  F002         	goto	u11
  1721   0004EA  EF79  F002         	goto	u10
  1722   0004EE                     u11:
  1723   0004EE  EF7A  F002         	goto	l240
  1724   0004F2                     u10:
  1725   0004F2                     
  1726                           ; BSR set to: 2
  1727                           ;mcc_generated_files/i2c1_slave.c: 343:     {;mcc_generated_files/i2c1_slave.c: 344:    
      +                               I2C1CON0bits.EN = 1;
  1728   0004F2  8F94               	bsf	148,7,b	;volatile
  1729   0004F4                     l240:
  1730                           
  1731                           ; BSR set to: 2
  1732   0004F4  0012               	return		;funcret
  1733   0004F6                     __end_of_I2C1_SlaveOpen:
  1734                           	callstack 0
  1735                           
  1736 ;; *************** function _I2C1_SlaveEnableIrq *****************
  1737 ;; Defined at:
  1738 ;;		line 369 in file "mcc_generated_files/i2c1_slave.c"
  1739 ;; Parameters:    Size  Location     Type
  1740 ;;		None
  1741 ;; Auto vars:     Size  Location     Type
  1742 ;;		None
  1743 ;; Return value:  Size  Location     Type
  1744 ;;                  1    wreg      void 
  1745 ;; Registers used:
  1746 ;;		None
  1747 ;; Tracked objects:
  1748 ;;		On entry : 0/0
  1749 ;;		On exit  : 0/0
  1750 ;;		Unchanged: 0/0
  1751 ;; Data sizes:     COMRAM   BANK5   BANK6   BANK7   BANK8   BANK9  BANK10  BANK11  BANK12  BANK13  BANK14  BANK15  BANK1
      +6  BANK17  BANK18  BANK19  BANK20  BANK21  BANK22  BANK23  BANK24  BANK25  BANK26  BANK27  BANK28  BANK29  BANK30  BANK3
      +1  BANK32  BANK33  BANK34  BANK35  BANK36
  1752 ;;      Params:         0       0       0       0       0       0       0       0       0       0       0       0       
      +0       0       0       0       0       0       0       0       0       0       0       0       0       0       0       
      +0       0       0       0       0       0
  1753 ;;      Locals:         0       0       0       0       0       0       0       0       0       0       0       0       
      +0       0       0       0       0       0       0       0       0       0       0       0       0       0       0       
      +0       0       0       0       0       0
  1754 ;;      Temps:          0       0       0       0       0       0       0       0       0       0       0       0       
      +0       0       0       0       0       0       0       0       0       0       0       0       0       0       0       
      +0       0       0       0       0       0
  1755 ;;      Totals:         0       0       0       0       0       0       0       0       0       0       0       0       
      +0       0       0       0       0       0       0       0       0       0       0       0       0       0       0       
      +0       0       0       0       0       0
  1756 ;;Total ram usage:        0 bytes
  1757 ;; Hardware stack levels used: 1
  1758 ;; Hardware stack levels required when called: 5
  1759 ;; This function calls:
  1760 ;;		Nothing
  1761 ;; This function is called by:
  1762 ;;		_I2C1_Open
  1763 ;; This function uses a non-reentrant model
  1764 ;;
  1765                           
  1766                           	psect	text23
  1767   00051A                     __ptext23:
  1768                           	callstack 0
  1769   00051A                     _I2C1_SlaveEnableIrq:
  1770                           	callstack 120
  1771   00051A                     
  1772                           ;mcc_generated_files/i2c1_slave.c: 371:     PIE7bits.I2C1IE = 1;
  1773   00051A  84A5               	bsf	165,2,c	;volatile
  1774                           
  1775                           ;mcc_generated_files/i2c1_slave.c: 372:     PIE7bits.I2C1EIE = 1;
  1776   00051C  86A5               	bsf	165,3,c	;volatile
  1777                           
  1778                           ;mcc_generated_files/i2c1_slave.c: 373:     PIE7bits.I2C1RXIE = 1;
  1779   00051E  80A5               	bsf	165,0,c	;volatile
  1780                           
  1781                           ;mcc_generated_files/i2c1_slave.c: 374:     PIE7bits.I2C1TXIE = 1;
  1782   000520  82A5               	bsf	165,1,c	;volatile
  1783                           
  1784                           ;mcc_generated_files/i2c1_slave.c: 375:     I2C1PIEbits.PCIE = 1;
  1785   000522  0102               	movlb	2	; () banked
  1786   000524  859B               	bsf	155,2,b	;volatile
  1787                           
  1788                           ;mcc_generated_files/i2c1_slave.c: 376:     I2C1PIEbits.ADRIE = 1;
  1789   000526  879B               	bsf	155,3,b	;volatile
  1790                           
  1791                           ;mcc_generated_files/i2c1_slave.c: 377:     I2C1ERRbits.NACKIE = 1;
  1792   000528  8197               	bsf	151,0,b	;volatile
  1793   00052A                     
  1794                           ; BSR set to: 2
  1795   00052A  0012               	return		;funcret
  1796   00052C                     __end_of_I2C1_SlaveEnableIrq:
  1797                           	callstack 0
  1798                           
  1799 ;; *************** function _INTERRUPT_InterruptManager *****************
  1800 ;; Defined at:
  1801 ;;		line 58 in file "mcc_generated_files/interrupt_manager.c"
  1802 ;; Parameters:    Size  Location     Type
  1803 ;;		None
  1804 ;; Auto vars:     Size  Location     Type
  1805 ;;		None
  1806 ;; Return value:  Size  Location     Type
  1807 ;;                  1    wreg      void 
  1808 ;; Registers used:
  1809 ;;		wreg, status,2, status,0, pcl, pclath, pclatu, tosl, cstack
  1810 ;; Tracked objects:
  1811 ;;		On entry : 0/0
  1812 ;;		On exit  : 0/0
  1813 ;;		Unchanged: 0/0
  1814 ;; Data sizes:     COMRAM   BANK5   BANK6   BANK7   BANK8   BANK9  BANK10  BANK11  BANK12  BANK13  BANK14  BANK15  BANK1
      +6  BANK17  BANK18  BANK19  BANK20  BANK21  BANK22  BANK23  BANK24  BANK25  BANK26  BANK27  BANK28  BANK29  BANK30  BANK3
      +1  BANK32  BANK33  BANK34  BANK35  BANK36
  1815 ;;      Params:         0       0       0       0       0       0       0       0       0       0       0       0       
      +0       0       0       0       0       0       0       0       0       0       0       0       0       0       0       
      +0       0       0       0       0       0
  1816 ;;      Locals:         0       0       0       0       0       0       0       0       0       0       0       0       
      +0       0       0       0       0       0       0       0       0       0       0       0       0       0       0       
      +0       0       0       0       0       0
  1817 ;;      Temps:          2       0       0       0       0       0       0       0       0       0       0       0       
      +0       0       0       0       0       0       0       0       0       0       0       0       0       0       0       
      +0       0       0       0       0       0
  1818 ;;      Totals:         2       0       0       0       0       0       0       0       0       0       0       0       
      +0       0       0       0       0       0       0       0       0       0       0       0       0       0       0       
      +0       0       0       0       0       0
  1819 ;;Total ram usage:        2 bytes
  1820 ;; Hardware stack levels used: 1
  1821 ;; Hardware stack levels required when called: 4
  1822 ;; This function calls:
  1823 ;;		Absolute function
  1824 ;;		_I2C1_Isr
  1825 ;; This function is called by:
  1826 ;;		Interrupt level 2
  1827 ;; This function uses a non-reentrant model
  1828 ;;
  1829                           
  1830                           	psect	text24
  1831   0001FE                     __ptext24:
  1832                           	callstack 0
  1833   0001FE                     _INTERRUPT_InterruptManager:
  1834                           	callstack 120
  1835                           
  1836                           ; BSR set to: 2
  1837                           ;incstack = 0
  1838   0001FE  C4FA F51B          	movff	pclath,??_INTERRUPT_InterruptManager
  1839   000202  C4FB F51C          	movff	pclatu,??_INTERRUPT_InterruptManager+1
  1840   000206                     
  1841                           ;mcc_generated_files/interrupt_manager.c: 61:     if(PIE7bits.I2C1EIE == 1 && PIR7bits.I
      +                          2C1EIF == 1)
  1842   000206  A6A5               	btfss	165,3,c	;volatile
  1843   000208  EF08  F001         	goto	i2u25_41
  1844   00020C  EF0A  F001         	goto	i2u25_40
  1845   000210                     i2u25_41:
  1846   000210  EF20  F001         	goto	i2l338
  1847   000214                     i2u25_40:
  1848   000214  A6B5               	btfss	181,3,c	;volatile
  1849   000216  EF0F  F001         	goto	i2u26_41
  1850   00021A  EF11  F001         	goto	i2u26_40
  1851   00021E                     i2u26_41:
  1852   00021E  EF20  F001         	goto	i2l338
  1853   000222                     i2u26_40:
  1854   000222                     i2l1504:
  1855                           
  1856                           ;mcc_generated_files/interrupt_manager.c: 62:     {;mcc_generated_files/interrupt_manage
      +                          r.c: 63:         I2C1_InterruptHandler();
  1857   000222  D802               	call	i2u27_48
  1858   000224  EF1E  F001         	goto	i2u27_49
  1859   000228                     i2u27_48:
  1860   000228  0005               	push	
  1861   00022A  6EFA               	movwf	pclath,c
  1862   00022C  5010               	movf	_I2C1_InterruptHandler^(0+1280),w,c
  1863   00022E  6EFD               	movwf	tosl,c
  1864   000230  5011               	movf	(_I2C1_InterruptHandler+1)^(0+1280),w,c
  1865   000232  6EFE               	movwf	tosh,c
  1866   000234  5012               	movf	(_I2C1_InterruptHandler+2)^(0+1280),w,c
  1867   000236  6EFF               	movwf	tosu,c
  1868   000238  50FA               	movf	pclath,w,c
  1869   00023A  0012               	return		;indir
  1870   00023C                     i2u27_49:
  1871                           
  1872                           ;mcc_generated_files/interrupt_manager.c: 64:     }
  1873   00023C  EF50  F001         	goto	i2l346
  1874   000240                     i2l338:
  1875   000240  A0A5               	btfss	165,0,c	;volatile
  1876   000242  EF25  F001         	goto	i2u28_41
  1877   000246  EF27  F001         	goto	i2u28_40
  1878   00024A                     i2u28_41:
  1879   00024A  EF30  F001         	goto	i2l340
  1880   00024E                     i2u28_40:
  1881   00024E  A0B5               	btfss	181,0,c	;volatile
  1882   000250  EF2C  F001         	goto	i2u29_41
  1883   000254  EF2E  F001         	goto	i2u29_40
  1884   000258                     i2u29_41:
  1885   000258  EF30  F001         	goto	i2l340
  1886   00025C                     i2u29_40:
  1887   00025C  EF11  F001         	goto	i2l1504
  1888   000260                     i2l340:
  1889   000260  A4A5               	btfss	165,2,c	;volatile
  1890   000262  EF35  F001         	goto	i2u30_41
  1891   000266  EF37  F001         	goto	i2u30_40
  1892   00026A                     i2u30_41:
  1893   00026A  EF40  F001         	goto	i2l342
  1894   00026E                     i2u30_40:
  1895   00026E  A4B5               	btfss	181,2,c	;volatile
  1896   000270  EF3C  F001         	goto	i2u31_41
  1897   000274  EF3E  F001         	goto	i2u31_40
  1898   000278                     i2u31_41:
  1899   000278  EF40  F001         	goto	i2l342
  1900   00027C                     i2u31_40:
  1901   00027C  EF11  F001         	goto	i2l1504
  1902   000280                     i2l342:
  1903   000280  A2A5               	btfss	165,1,c	;volatile
  1904   000282  EF45  F001         	goto	i2u32_41
  1905   000286  EF47  F001         	goto	i2u32_40
  1906   00028A                     i2u32_41:
  1907   00028A  EF50  F001         	goto	i2l341
  1908   00028E                     i2u32_40:
  1909   00028E  A2B5               	btfss	181,1,c	;volatile
  1910   000290  EF4C  F001         	goto	i2u33_41
  1911   000294  EF4E  F001         	goto	i2u33_40
  1912   000298                     i2u33_41:
  1913   000298  EF50  F001         	goto	i2l341
  1914   00029C                     i2u33_40:
  1915   00029C  EF11  F001         	goto	i2l1504
  1916   0002A0                     i2l341:
  1917   0002A0                     i2l346:
  1918   0002A0  C51C  F4FB         	movff	??_INTERRUPT_InterruptManager+1,pclatu
  1919   0002A4  C51B  F4FA         	movff	??_INTERRUPT_InterruptManager,pclath
  1920   0002A8  0011               	retfie		f
  1921   0002AA                     __end_of_INTERRUPT_InterruptManager:
  1922                           	callstack 0
  1923                           
  1924 ;; *************** function _I2C1_Isr *****************
  1925 ;; Defined at:
  1926 ;;		line 182 in file "mcc_generated_files/i2c1_slave.c"
  1927 ;; Parameters:    Size  Location     Type
  1928 ;;		None
  1929 ;; Auto vars:     Size  Location     Type
  1930 ;;		None
  1931 ;; Return value:  Size  Location     Type
  1932 ;;                  1    wreg      void 
  1933 ;; Registers used:
  1934 ;;		wreg, status,2, status,0, pcl, pclath, pclatu, tosl, cstack
  1935 ;; Tracked objects:
  1936 ;;		On entry : 0/0
  1937 ;;		On exit  : 0/0
  1938 ;;		Unchanged: 0/0
  1939 ;; Data sizes:     COMRAM   BANK5   BANK6   BANK7   BANK8   BANK9  BANK10  BANK11  BANK12  BANK13  BANK14  BANK15  BANK1
      +6  BANK17  BANK18  BANK19  BANK20  BANK21  BANK22  BANK23  BANK24  BANK25  BANK26  BANK27  BANK28  BANK29  BANK30  BANK3
      +1  BANK32  BANK33  BANK34  BANK35  BANK36
  1940 ;;      Params:         0       0       0       0       0       0       0       0       0       0       0       0       
      +0       0       0       0       0       0       0       0       0       0       0       0       0       0       0       
      +0       0       0       0       0       0
  1941 ;;      Locals:         0       0       0       0       0       0       0       0       0       0       0       0       
      +0       0       0       0       0       0       0       0       0       0       0       0       0       0       0       
      +0       0       0       0       0       0
  1942 ;;      Temps:          2       0       0       0       0       0       0       0       0       0       0       0       
      +0       0       0       0       0       0       0       0       0       0       0       0       0       0       0       
      +0       0       0       0       0       0
  1943 ;;      Totals:         2       0       0       0       0       0       0       0       0       0       0       0       
      +0       0       0       0       0       0       0       0       0       0       0       0       0       0       0       
      +0       0       0       0       0       0
  1944 ;;Total ram usage:        2 bytes
  1945 ;; Hardware stack levels used: 1
  1946 ;; Hardware stack levels required when called: 3
  1947 ;; This function calls:
  1948 ;;		_I2C1_SlaveAddrCallBack
  1949 ;;		_I2C1_SlaveClearBuff
  1950 ;;		_I2C1_SlaveClearIrq
  1951 ;;		_I2C1_SlaveIsAddr
  1952 ;;		_I2C1_SlaveIsRead
  1953 ;;		_I2C1_SlaveIsRxBufFull
  1954 ;;		_I2C1_SlaveIsStop
  1955 ;;		_I2C1_SlaveIsTxBufEmpty
  1956 ;;		_I2C1_SlaveRdCallBack
  1957 ;;		_I2C1_SlaveReleaseClock
  1958 ;;		_I2C1_SlaveSetCounter
  1959 ;;		_I2C1_SlaveWrCallBack
  1960 ;; This function is called by:
  1961 ;;		_I2C1_Open
  1962 ;;		_INTERRUPT_InterruptManager
  1963 ;; This function uses a non-reentrant model
  1964 ;;
  1965                           
  1966                           	psect	text25
  1967   00001E                     __ptext25:
  1968                           	callstack 0
  1969   00001E                     _I2C1_Isr:
  1970                           	callstack 120
  1971   00001E                     
  1972                           ;mcc_generated_files/i2c1_slave.c: 184:     if(I2C1_SlaveIsStop())
  1973   00001E  EC45  F002         	call	_I2C1_SlaveIsStop	;wreg free
  1974   000022  0900               	iorlw	0
  1975   000024  B4D8               	btfsc	status,2,c
  1976   000026  EF17  F000         	goto	i2u14_41
  1977   00002A  EF19  F000         	goto	i2u14_40
  1978   00002E                     i2u14_41:
  1979   00002E  EF26  F000         	goto	i2l1400
  1980   000032                     i2u14_40:
  1981   000032                     
  1982                           ;mcc_generated_files/i2c1_slave.c: 185:     {;mcc_generated_files/i2c1_slave.c: 186:    
      +                               I2C1_SlaveClearIrq();
  1983   000032  ECD4  F002         	call	_I2C1_SlaveClearIrq	;wreg free
  1984   000036                     
  1985                           ;mcc_generated_files/i2c1_slave.c: 187:         I2C1_SlaveClearBuff();
  1986   000036  ECF5  F002         	call	_I2C1_SlaveClearBuff	;wreg free
  1987   00003A                     
  1988                           ;mcc_generated_files/i2c1_slave.c: 188:         I2C1_SlaveSetCounter(0xFF);
  1989   00003A  0EFF               	movlw	255
  1990   00003C  ECCC  F002         	call	_I2C1_SlaveSetCounter
  1991   000040                     
  1992                           ;mcc_generated_files/i2c1_slave.c: 189:         I2C1_SlaveReleaseClock();
  1993   000040  ECEF  F002         	call	_I2C1_SlaveReleaseClock	;wreg free
  1994   000044                     
  1995                           ;mcc_generated_files/i2c1_slave.c: 190:         i2c1SlaveState = I2C1_IDLE;
  1996   000044  0E00               	movlw	0
  1997   000046  6E14               	movwf	_i2c1SlaveState^(0+1280),c	;volatile
  1998                           
  1999                           ;mcc_generated_files/i2c1_slave.c: 191:     }
  2000   000048  EFA7  F000         	goto	i2l183
  2001   00004C                     i2l1400:
  2002                           
  2003                           ;mcc_generated_files/i2c1_slave.c: 193:     {;mcc_generated_files/i2c1_slave.c: 194:    
      +                               I2C1_SlaveClearIrq();
  2004   00004C  ECD4  F002         	call	_I2C1_SlaveClearIrq	;wreg free
  2005                           
  2006                           ;mcc_generated_files/i2c1_slave.c: 196:         if(I2C1_SlaveIsAddr())
  2007   000050  EC66  F002         	call	_I2C1_SlaveIsAddr	;wreg free
  2008   000054  0900               	iorlw	0
  2009   000056  B4D8               	btfsc	status,2,c
  2010   000058  EF30  F000         	goto	i2u15_41
  2011   00005C  EF32  F000         	goto	i2u15_40
  2012   000060                     i2u15_41:
  2013   000060  EF44  F000         	goto	i2l1408
  2014   000064                     i2u15_40:
  2015   000064                     
  2016                           ;mcc_generated_files/i2c1_slave.c: 197:         {;mcc_generated_files/i2c1_slave.c: 198:
      +                                       if(I2C1_SlaveIsRead())
  2017   000064  EC5B  F002         	call	_I2C1_SlaveIsRead	;wreg free
  2018   000068  0900               	iorlw	0
  2019   00006A  B4D8               	btfsc	status,2,c
  2020   00006C  EF3A  F000         	goto	i2u16_41
  2021   000070  EF3C  F000         	goto	i2u16_40
  2022   000074                     i2u16_41:
  2023   000074  EF40  F000         	goto	i2l1406
  2024   000078                     i2u16_40:
  2025   000078                     
  2026                           ;mcc_generated_files/i2c1_slave.c: 199:             {;mcc_generated_files/i2c1_slave.c: 
      +                          200:                 i2c1SlaveState = I2C1_ADDR_TX;
  2027   000078  0E01               	movlw	1
  2028   00007A  6E14               	movwf	_i2c1SlaveState^(0+1280),c	;volatile
  2029                           
  2030                           ;mcc_generated_files/i2c1_slave.c: 201:             }
  2031   00007C  EF88  F000         	goto	i2l1436
  2032   000080                     i2l1406:
  2033                           
  2034                           ;mcc_generated_files/i2c1_slave.c: 203:             {;mcc_generated_files/i2c1_slave.c: 
      +                          204:                 i2c1SlaveState = I2C1_ADDR_RX;
  2035   000080  0E02               	movlw	2
  2036   000082  6E14               	movwf	_i2c1SlaveState^(0+1280),c	;volatile
  2037   000084  EF88  F000         	goto	i2l1436
  2038   000088                     i2l1408:
  2039                           
  2040                           ;mcc_generated_files/i2c1_slave.c: 208:         {;mcc_generated_files/i2c1_slave.c: 209:
      +                                       if(I2C1_SlaveIsRead())
  2041   000088  EC5B  F002         	call	_I2C1_SlaveIsRead	;wreg free
  2042   00008C  0900               	iorlw	0
  2043   00008E  B4D8               	btfsc	status,2,c
  2044   000090  EF4C  F000         	goto	i2u17_41
  2045   000094  EF4E  F000         	goto	i2u17_40
  2046   000098                     i2u17_41:
  2047   000098  EF52  F000         	goto	i2l1412
  2048   00009C                     i2u17_40:
  2049   00009C                     
  2050                           ;mcc_generated_files/i2c1_slave.c: 210:             {;mcc_generated_files/i2c1_slave.c: 
      +                          211:                 i2c1SlaveState = I2C1_DATA_TX;
  2051   00009C  0E03               	movlw	3
  2052   00009E  6E14               	movwf	_i2c1SlaveState^(0+1280),c	;volatile
  2053                           
  2054                           ;mcc_generated_files/i2c1_slave.c: 212:             }
  2055   0000A0  EF88  F000         	goto	i2l1436
  2056   0000A4                     i2l1412:
  2057                           
  2058                           ;mcc_generated_files/i2c1_slave.c: 214:             {;mcc_generated_files/i2c1_slave.c: 
      +                          215:                 i2c1SlaveState = I2C1_DATA_RX;
  2059   0000A4  0E04               	movlw	4
  2060   0000A6  6E14               	movwf	_i2c1SlaveState^(0+1280),c	;volatile
  2061   0000A8  EF88  F000         	goto	i2l1436
  2062   0000AC                     i2l1414:
  2063                           
  2064                           ;mcc_generated_files/i2c1_slave.c: 222:                 I2C1_SlaveAddrCallBack();
  2065   0000AC  ECDA  F001         	call	_I2C1_SlaveAddrCallBack	;wreg free
  2066   0000B0                     
  2067                           ;mcc_generated_files/i2c1_slave.c: 223:                 I2C1_SlaveClearBuff();
  2068   0000B0  ECF5  F002         	call	_I2C1_SlaveClearBuff	;wreg free
  2069   0000B4                     
  2070                           ;mcc_generated_files/i2c1_slave.c: 224:                 if(I2C1_SlaveIsTxBufEmpty())
  2071   0000B4  EC3A  F002         	call	_I2C1_SlaveIsTxBufEmpty	;wreg free
  2072   0000B8  0900               	iorlw	0
  2073   0000BA  B4D8               	btfsc	status,2,c
  2074   0000BC  EF62  F000         	goto	i2u18_41
  2075   0000C0  EF64  F000         	goto	i2u18_40
  2076   0000C4                     i2u18_41:
  2077   0000C4  EFA5  F000         	goto	i2l1438
  2078   0000C8                     i2u18_40:
  2079   0000C8                     i2l1420:
  2080                           
  2081                           ;mcc_generated_files/i2c1_slave.c: 225:                 {;mcc_generated_files/i2c1_slave
      +                          .c: 226:                     I2C1_SlaveWrCallBack();
  2082   0000C8  ECAA  F001         	call	_I2C1_SlaveWrCallBack	;wreg free
  2083   0000CC  EFA5  F000         	goto	i2l1438
  2084   0000D0                     i2l1422:
  2085                           
  2086                           ;mcc_generated_files/i2c1_slave.c: 230:                 I2C1_SlaveAddrCallBack();
  2087   0000D0  ECDA  F001         	call	_I2C1_SlaveAddrCallBack	;wreg free
  2088   0000D4                     
  2089                           ;mcc_generated_files/i2c1_slave.c: 231:                 I2C1_SlaveClearBuff();
  2090   0000D4  ECF5  F002         	call	_I2C1_SlaveClearBuff	;wreg free
  2091                           
  2092                           ;mcc_generated_files/i2c1_slave.c: 232:                 break;
  2093   0000D8  EFA5  F000         	goto	i2l1438
  2094   0000DC                     i2l1426:
  2095                           
  2096                           ;mcc_generated_files/i2c1_slave.c: 234:                 if(I2C1_SlaveIsTxBufEmpty())
  2097   0000DC  EC3A  F002         	call	_I2C1_SlaveIsTxBufEmpty	;wreg free
  2098   0000E0  0900               	iorlw	0
  2099   0000E2  B4D8               	btfsc	status,2,c
  2100   0000E4  EF76  F000         	goto	i2u19_41
  2101   0000E8  EF78  F000         	goto	i2u19_40
  2102   0000EC                     i2u19_41:
  2103   0000EC  EFA5  F000         	goto	i2l1438
  2104   0000F0                     i2u19_40:
  2105   0000F0  EF64  F000         	goto	i2l1420
  2106   0000F4                     i2l1430:
  2107                           
  2108                           ;mcc_generated_files/i2c1_slave.c: 240:                 if(I2C1_SlaveIsRxBufFull())
  2109   0000F4  EC50  F002         	call	_I2C1_SlaveIsRxBufFull	;wreg free
  2110   0000F8  0900               	iorlw	0
  2111   0000FA  B4D8               	btfsc	status,2,c
  2112   0000FC  EF82  F000         	goto	i2u20_41
  2113   000100  EF84  F000         	goto	i2u20_40
  2114   000104                     i2u20_41:
  2115   000104  EFA5  F000         	goto	i2l1438
  2116   000108                     i2u20_40:
  2117   000108                     
  2118                           ;mcc_generated_files/i2c1_slave.c: 241:                 {;mcc_generated_files/i2c1_slave
      +                          .c: 242:                     I2C1_SlaveRdCallBack();
  2119   000108  ECC2  F001         	call	_I2C1_SlaveRdCallBack	;wreg free
  2120   00010C  EFA5  F000         	goto	i2l1438
  2121   000110                     i2l1436:
  2122   000110  5014               	movf	_i2c1SlaveState^(0+1280),w,c	;volatile
  2123   000112  6E19               	movwf	??_I2C1_Isr^(0+1280),c
  2124   000114  6A1A               	clrf	(??_I2C1_Isr+1)^(0+1280),c
  2125                           
  2126                           ; Switch on 2 bytes has been partitioned into a top level switch of size 1, and 1 sub-sw
      +                          itches
  2127                           ; Switch size 1, requested type "simple"
  2128                           ; Number of cases is 1, Range of values is 0 to 0
  2129                           ; switch strategies available:
  2130                           ; Name         Instructions Cycles
  2131                           ; simple_byte            4     3 (average)
  2132                           ;	Chosen strategy is simple_byte
  2133   000116  501A               	movf	(??_I2C1_Isr+1)^(0+1280),w,c
  2134   000118  0A00               	xorlw	0	; case 0
  2135   00011A  B4D8               	btfsc	status,2,c
  2136   00011C  EF92  F000         	goto	i2l1612
  2137   000120  EFA5  F000         	goto	i2l1438
  2138   000124                     i2l1612:
  2139                           
  2140                           ; Switch size 1, requested type "simple"
  2141                           ; Number of cases is 4, Range of values is 1 to 4
  2142                           ; switch strategies available:
  2143                           ; Name         Instructions Cycles
  2144                           ; simple_byte           13     7 (average)
  2145                           ;	Chosen strategy is simple_byte
  2146   000124  5019               	movf	??_I2C1_Isr^(0+1280),w,c
  2147   000126  0A01               	xorlw	1	; case 1
  2148   000128  B4D8               	btfsc	status,2,c
  2149   00012A  EF56  F000         	goto	i2l1414
  2150   00012E  0A03               	xorlw	3	; case 2
  2151   000130  B4D8               	btfsc	status,2,c
  2152   000132  EF68  F000         	goto	i2l1422
  2153   000136  0A01               	xorlw	1	; case 3
  2154   000138  B4D8               	btfsc	status,2,c
  2155   00013A  EF6E  F000         	goto	i2l1426
  2156   00013E  0A07               	xorlw	7	; case 4
  2157   000140  B4D8               	btfsc	status,2,c
  2158   000142  EF7A  F000         	goto	i2l1430
  2159   000146  EFA5  F000         	goto	i2l1438
  2160   00014A                     i2l1438:
  2161                           
  2162                           ;mcc_generated_files/i2c1_slave.c: 248:         I2C1_SlaveReleaseClock();
  2163   00014A  ECEF  F002         	call	_I2C1_SlaveReleaseClock	;wreg free
  2164   00014E                     i2l183:
  2165   00014E  0012               	return		;funcret
  2166   000150                     __end_of_I2C1_Isr:
  2167                           	callstack 0
  2168                           
  2169 ;; *************** function _I2C1_SlaveWrCallBack *****************
  2170 ;; Defined at:
  2171 ;;		line 280 in file "mcc_generated_files/i2c1_slave.c"
  2172 ;; Parameters:    Size  Location     Type
  2173 ;;		None
  2174 ;; Auto vars:     Size  Location     Type
  2175 ;;		None
  2176 ;; Return value:  Size  Location     Type
  2177 ;;                  1    wreg      void 
  2178 ;; Registers used:
  2179 ;;		wreg, status,2, status,0, pcl, pclath, pclatu, tosl, cstack
  2180 ;; Tracked objects:
  2181 ;;		On entry : 0/0
  2182 ;;		On exit  : 0/0
  2183 ;;		Unchanged: 0/0
  2184 ;; Data sizes:     COMRAM   BANK5   BANK6   BANK7   BANK8   BANK9  BANK10  BANK11  BANK12  BANK13  BANK14  BANK15  BANK1
      +6  BANK17  BANK18  BANK19  BANK20  BANK21  BANK22  BANK23  BANK24  BANK25  BANK26  BANK27  BANK28  BANK29  BANK30  BANK3
      +1  BANK32  BANK33  BANK34  BANK35  BANK36
  2185 ;;      Params:         0       0       0       0       0       0       0       0       0       0       0       0       
      +0       0       0       0       0       0       0       0       0       0       0       0       0       0       0       
      +0       0       0       0       0       0
  2186 ;;      Locals:         0       0       0       0       0       0       0       0       0       0       0       0       
      +0       0       0       0       0       0       0       0       0       0       0       0       0       0       0       
      +0       0       0       0       0       0
  2187 ;;      Temps:          0       0       0       0       0       0       0       0       0       0       0       0       
      +0       0       0       0       0       0       0       0       0       0       0       0       0       0       0       
      +0       0       0       0       0       0
  2188 ;;      Totals:         0       0       0       0       0       0       0       0       0       0       0       0       
      +0       0       0       0       0       0       0       0       0       0       0       0       0       0       0       
      +0       0       0       0       0       0
  2189 ;;Total ram usage:        0 bytes
  2190 ;; Hardware stack levels used: 1
  2191 ;; Hardware stack levels required when called: 2
  2192 ;; This function calls:
  2193 ;;		Absolute function
  2194 ;;		_I2C1_SlaveDefWrInterruptHandler
  2195 ;; This function is called by:
  2196 ;;		_I2C1_Isr
  2197 ;; This function uses a non-reentrant model
  2198 ;;
  2199                           
  2200                           	psect	text26
  2201   000354                     __ptext26:
  2202                           	callstack 0
  2203   000354                     _I2C1_SlaveWrCallBack:
  2204                           	callstack 120
  2205   000354                     
  2206                           ;mcc_generated_files/i2c1_slave.c: 282:     if (I2C1_SlaveWrInterruptHandler)
  2207   000354  500A               	movf	_I2C1_SlaveWrInterruptHandler^(0+1280),w,c
  2208   000356  100B               	iorwf	(_I2C1_SlaveWrInterruptHandler+1)^(0+1280),w,c
  2209   000358  100C               	iorwf	(_I2C1_SlaveWrInterruptHandler+2)^(0+1280),w,c
  2210   00035A  B4D8               	btfsc	status,2,c
  2211   00035C  EFB2  F001         	goto	i2u9_41
  2212   000360  EFB4  F001         	goto	i2u9_40
  2213   000364                     i2u9_41:
  2214   000364  EFC1  F001         	goto	i2l203
  2215   000368                     i2u9_40:
  2216   000368                     
  2217                           ;mcc_generated_files/i2c1_slave.c: 283:     {;mcc_generated_files/i2c1_slave.c: 284:    
      +                               I2C1_SlaveWrInterruptHandler();
  2218   000368  D802               	call	i2u10_48
  2219   00036A  EFC1  F001         	goto	i2u10_49
  2220   00036E                     i2u10_48:
  2221   00036E  0005               	push	
  2222   000370  6EFA               	movwf	pclath,c
  2223   000372  500A               	movf	_I2C1_SlaveWrInterruptHandler^(0+1280),w,c
  2224   000374  6EFD               	movwf	tosl,c
  2225   000376  500B               	movf	(_I2C1_SlaveWrInterruptHandler+1)^(0+1280),w,c
  2226   000378  6EFE               	movwf	tosh,c
  2227   00037A  500C               	movf	(_I2C1_SlaveWrInterruptHandler+2)^(0+1280),w,c
  2228   00037C  6EFF               	movwf	tosu,c
  2229   00037E  50FA               	movf	pclath,w,c
  2230   000380  0012               	return		;indir
  2231   000382                     i2u10_49:
  2232   000382                     i2l203:
  2233   000382  0012               	return		;funcret
  2234   000384                     __end_of_I2C1_SlaveWrCallBack:
  2235                           	callstack 0
  2236                           
  2237 ;; *************** function _I2C1_SlaveDefWrInterruptHandler *****************
  2238 ;; Defined at:
  2239 ;;		line 288 in file "mcc_generated_files/i2c1_slave.c"
  2240 ;; Parameters:    Size  Location     Type
  2241 ;;		None
  2242 ;; Auto vars:     Size  Location     Type
  2243 ;;		None
  2244 ;; Return value:  Size  Location     Type
  2245 ;;                  1    wreg      void 
  2246 ;; Registers used:
  2247 ;;		wreg, status,2, cstack
  2248 ;; Tracked objects:
  2249 ;;		On entry : 0/0
  2250 ;;		On exit  : 0/0
  2251 ;;		Unchanged: 0/0
  2252 ;; Data sizes:     COMRAM   BANK5   BANK6   BANK7   BANK8   BANK9  BANK10  BANK11  BANK12  BANK13  BANK14  BANK15  BANK1
      +6  BANK17  BANK18  BANK19  BANK20  BANK21  BANK22  BANK23  BANK24  BANK25  BANK26  BANK27  BANK28  BANK29  BANK30  BANK3
      +1  BANK32  BANK33  BANK34  BANK35  BANK36
  2253 ;;      Params:         0       0       0       0       0       0       0       0       0       0       0       0       
      +0       0       0       0       0       0       0       0       0       0       0       0       0       0       0       
      +0       0       0       0       0       0
  2254 ;;      Locals:         0       0       0       0       0       0       0       0       0       0       0       0       
      +0       0       0       0       0       0       0       0       0       0       0       0       0       0       0       
      +0       0       0       0       0       0
  2255 ;;      Temps:          0       0       0       0       0       0       0       0       0       0       0       0       
      +0       0       0       0       0       0       0       0       0       0       0       0       0       0       0       
      +0       0       0       0       0       0
  2256 ;;      Totals:         0       0       0       0       0       0       0       0       0       0       0       0       
      +0       0       0       0       0       0       0       0       0       0       0       0       0       0       0       
      +0       0       0       0       0       0
  2257 ;;Total ram usage:        0 bytes
  2258 ;; Hardware stack levels used: 1
  2259 ;; Hardware stack levels required when called: 1
  2260 ;; This function calls:
  2261 ;;		_I2C1_SlaveSendTxData
  2262 ;; This function is called by:
  2263 ;;		_I2C1_Open
  2264 ;;		_I2C1_SlaveWrCallBack
  2265 ;; This function uses a non-reentrant model
  2266 ;;
  2267                           
  2268                           	psect	text27
  2269   000588                     __ptext27:
  2270                           	callstack 0
  2271   000588                     _I2C1_SlaveDefWrInterruptHandler:
  2272                           	callstack 120
  2273   000588                     
  2274                           ;mcc_generated_files/i2c1_slave.c: 289:     I2C1_SlaveSendTxData(i2c1WrData);
  2275   000588  5017               	movf	_i2c1WrData^(0+1280),w,c	;volatile
  2276   00058A  ECC8  F002         	call	_I2C1_SlaveSendTxData
  2277   00058E  0012               	return		;funcret
  2278   000590                     __end_of_I2C1_SlaveDefWrInterruptHandler:
  2279                           	callstack 0
  2280                           
  2281 ;; *************** function _I2C1_SlaveSendTxData *****************
  2282 ;; Defined at:
  2283 ;;		line 445 in file "mcc_generated_files/i2c1_slave.c"
  2284 ;; Parameters:    Size  Location     Type
  2285 ;;  data            1    wreg     unsigned char 
  2286 ;; Auto vars:     Size  Location     Type
  2287 ;;  data            1    0[COMRAM] unsigned char 
  2288 ;; Return value:  Size  Location     Type
  2289 ;;                  1    wreg      void 
  2290 ;; Registers used:
  2291 ;;		wreg
  2292 ;; Tracked objects:
  2293 ;;		On entry : 0/0
  2294 ;;		On exit  : 0/0
  2295 ;;		Unchanged: 0/0
  2296 ;; Data sizes:     COMRAM   BANK5   BANK6   BANK7   BANK8   BANK9  BANK10  BANK11  BANK12  BANK13  BANK14  BANK15  BANK1
      +6  BANK17  BANK18  BANK19  BANK20  BANK21  BANK22  BANK23  BANK24  BANK25  BANK26  BANK27  BANK28  BANK29  BANK30  BANK3
      +1  BANK32  BANK33  BANK34  BANK35  BANK36
  2297 ;;      Params:         0       0       0       0       0       0       0       0       0       0       0       0       
      +0       0       0       0       0       0       0       0       0       0       0       0       0       0       0       
      +0       0       0       0       0       0
  2298 ;;      Locals:         1       0       0       0       0       0       0       0       0       0       0       0       
      +0       0       0       0       0       0       0       0       0       0       0       0       0       0       0       
      +0       0       0       0       0       0
  2299 ;;      Temps:          0       0       0       0       0       0       0       0       0       0       0       0       
      +0       0       0       0       0       0       0       0       0       0       0       0       0       0       0       
      +0       0       0       0       0       0
  2300 ;;      Totals:         1       0       0       0       0       0       0       0       0       0       0       0       
      +0       0       0       0       0       0       0       0       0       0       0       0       0       0       0       
      +0       0       0       0       0       0
  2301 ;;Total ram usage:        1 bytes
  2302 ;; Hardware stack levels used: 1
  2303 ;; This function calls:
  2304 ;;		Nothing
  2305 ;; This function is called by:
  2306 ;;		_I2C1_SlaveDefWrInterruptHandler
  2307 ;;		_I2C1_Write
  2308 ;; This function uses a non-reentrant model
  2309 ;;
  2310                           
  2311                           	psect	text28
  2312   000590                     __ptext28:
  2313                           	callstack 0
  2314   000590                     _I2C1_SlaveSendTxData:
  2315                           	callstack 120
  2316                           
  2317                           ;incstack = 0
  2318                           ;I2C1_SlaveSendTxData@data stored from wreg
  2319   000590  6E18               	movwf	I2C1_SlaveSendTxData@data^(0+1280),c
  2320   000592                     
  2321                           ;mcc_generated_files/i2c1_slave.c: 445: static __attribute__((inline)) void I2C1_SlaveSe
      +                          ndTxData(uint8_t data);mcc_generated_files/i2c1_slave.c: 446: {;mcc_generated_files/i2c1
      +                          _slave.c: 447:     I2C1TXB = data;
  2322   000592  C518  F28C         	movff	I2C1_SlaveSendTxData@data,652	;volatile
  2323   000596  0012               	return		;funcret
  2324   000598                     __end_of_I2C1_SlaveSendTxData:
  2325                           	callstack 0
  2326                           
  2327 ;; *************** function _I2C1_SlaveSetCounter *****************
  2328 ;; Defined at:
  2329 ;;		line 415 in file "mcc_generated_files/i2c1_slave.c"
  2330 ;; Parameters:    Size  Location     Type
  2331 ;;  counter         1    wreg     unsigned char 
  2332 ;; Auto vars:     Size  Location     Type
  2333 ;;  counter         1    0[COMRAM] unsigned char 
  2334 ;; Return value:  Size  Location     Type
  2335 ;;                  1    wreg      void 
  2336 ;; Registers used:
  2337 ;;		wreg
  2338 ;; Tracked objects:
  2339 ;;		On entry : 0/0
  2340 ;;		On exit  : 0/0
  2341 ;;		Unchanged: 0/0
  2342 ;; Data sizes:     COMRAM   BANK5   BANK6   BANK7   BANK8   BANK9  BANK10  BANK11  BANK12  BANK13  BANK14  BANK15  BANK1
      +6  BANK17  BANK18  BANK19  BANK20  BANK21  BANK22  BANK23  BANK24  BANK25  BANK26  BANK27  BANK28  BANK29  BANK30  BANK3
      +1  BANK32  BANK33  BANK34  BANK35  BANK36
  2343 ;;      Params:         0       0       0       0       0       0       0       0       0       0       0       0       
      +0       0       0       0       0       0       0       0       0       0       0       0       0       0       0       
      +0       0       0       0       0       0
  2344 ;;      Locals:         1       0       0       0       0       0       0       0       0       0       0       0       
      +0       0       0       0       0       0       0       0       0       0       0       0       0       0       0       
      +0       0       0       0       0       0
  2345 ;;      Temps:          0       0       0       0       0       0       0       0       0       0       0       0       
      +0       0       0       0       0       0       0       0       0       0       0       0       0       0       0       
      +0       0       0       0       0       0
  2346 ;;      Totals:         1       0       0       0       0       0       0       0       0       0       0       0       
      +0       0       0       0       0       0       0       0       0       0       0       0       0       0       0       
      +0       0       0       0       0       0
  2347 ;;Total ram usage:        1 bytes
  2348 ;; Hardware stack levels used: 1
  2349 ;; This function calls:
  2350 ;;		Nothing
  2351 ;; This function is called by:
  2352 ;;		_I2C1_Isr
  2353 ;; This function uses a non-reentrant model
  2354 ;;
  2355                           
  2356                           	psect	text29
  2357   000598                     __ptext29:
  2358                           	callstack 0
  2359   000598                     _I2C1_SlaveSetCounter:
  2360                           	callstack 122
  2361                           
  2362                           ;incstack = 0
  2363                           ;I2C1_SlaveSetCounter@counter stored from wreg
  2364   000598  6E18               	movwf	I2C1_SlaveSetCounter@counter^(0+1280),c
  2365   00059A                     
  2366                           ;mcc_generated_files/i2c1_slave.c: 415: static __attribute__((inline)) void I2C1_SlaveSe
      +                          tCounter(uint8_t counter);mcc_generated_files/i2c1_slave.c: 416: {;mcc_generated_files/i
      +                          2c1_slave.c: 417:     I2C1CNT = counter;
  2367   00059A  C518  F28D         	movff	I2C1_SlaveSetCounter@counter,653	;volatile
  2368   00059E  0012               	return		;funcret
  2369   0005A0                     __end_of_I2C1_SlaveSetCounter:
  2370                           	callstack 0
  2371                           
  2372 ;; *************** function _I2C1_SlaveReleaseClock *****************
  2373 ;; Defined at:
  2374 ;;		line 420 in file "mcc_generated_files/i2c1_slave.c"
  2375 ;; Parameters:    Size  Location     Type
  2376 ;;		None
  2377 ;; Auto vars:     Size  Location     Type
  2378 ;;		None
  2379 ;; Return value:  Size  Location     Type
  2380 ;;                  1    wreg      void 
  2381 ;; Registers used:
  2382 ;;		None
  2383 ;; Tracked objects:
  2384 ;;		On entry : 0/0
  2385 ;;		On exit  : 0/0
  2386 ;;		Unchanged: 0/0
  2387 ;; Data sizes:     COMRAM   BANK5   BANK6   BANK7   BANK8   BANK9  BANK10  BANK11  BANK12  BANK13  BANK14  BANK15  BANK1
      +6  BANK17  BANK18  BANK19  BANK20  BANK21  BANK22  BANK23  BANK24  BANK25  BANK26  BANK27  BANK28  BANK29  BANK30  BANK3
      +1  BANK32  BANK33  BANK34  BANK35  BANK36
  2388 ;;      Params:         0       0       0       0       0       0       0       0       0       0       0       0       
      +0       0       0       0       0       0       0       0       0       0       0       0       0       0       0       
      +0       0       0       0       0       0
  2389 ;;      Locals:         0       0       0       0       0       0       0       0       0       0       0       0       
      +0       0       0       0       0       0       0       0       0       0       0       0       0       0       0       
      +0       0       0       0       0       0
  2390 ;;      Temps:          0       0       0       0       0       0       0       0       0       0       0       0       
      +0       0       0       0       0       0       0       0       0       0       0       0       0       0       0       
      +0       0       0       0       0       0
  2391 ;;      Totals:         0       0       0       0       0       0       0       0       0       0       0       0       
      +0       0       0       0       0       0       0       0       0       0       0       0       0       0       0       
      +0       0       0       0       0       0
  2392 ;;Total ram usage:        0 bytes
  2393 ;; Hardware stack levels used: 1
  2394 ;; This function calls:
  2395 ;;		Nothing
  2396 ;; This function is called by:
  2397 ;;		_I2C1_Isr
  2398 ;; This function uses a non-reentrant model
  2399 ;;
  2400                           
  2401                           	psect	text30
  2402   0005DE                     __ptext30:
  2403                           	callstack 0
  2404   0005DE                     _I2C1_SlaveReleaseClock:
  2405                           	callstack 122
  2406   0005DE                     
  2407                           ;mcc_generated_files/i2c1_slave.c: 422:     I2C1CON0bits.CSTR = 0;
  2408   0005DE  0102               	movlb	2	; () banked
  2409   0005E0  9994               	bcf	148,4,b	;volatile
  2410   0005E2                     
  2411                           ; BSR set to: 2
  2412   0005E2  0012               	return		;funcret
  2413   0005E4                     __end_of_I2C1_SlaveReleaseClock:
  2414                           	callstack 0
  2415                           
  2416 ;; *************** function _I2C1_SlaveRdCallBack *****************
  2417 ;; Defined at:
  2418 ;;		line 263 in file "mcc_generated_files/i2c1_slave.c"
  2419 ;; Parameters:    Size  Location     Type
  2420 ;;		None
  2421 ;; Auto vars:     Size  Location     Type
  2422 ;;		None
  2423 ;; Return value:  Size  Location     Type
  2424 ;;                  1    wreg      void 
  2425 ;; Registers used:
  2426 ;;		wreg, status,2, status,0, pcl, pclath, pclatu, tosl, cstack
  2427 ;; Tracked objects:
  2428 ;;		On entry : 0/0
  2429 ;;		On exit  : 0/0
  2430 ;;		Unchanged: 0/0
  2431 ;; Data sizes:     COMRAM   BANK5   BANK6   BANK7   BANK8   BANK9  BANK10  BANK11  BANK12  BANK13  BANK14  BANK15  BANK1
      +6  BANK17  BANK18  BANK19  BANK20  BANK21  BANK22  BANK23  BANK24  BANK25  BANK26  BANK27  BANK28  BANK29  BANK30  BANK3
      +1  BANK32  BANK33  BANK34  BANK35  BANK36
  2432 ;;      Params:         0       0       0       0       0       0       0       0       0       0       0       0       
      +0       0       0       0       0       0       0       0       0       0       0       0       0       0       0       
      +0       0       0       0       0       0
  2433 ;;      Locals:         0       0       0       0       0       0       0       0       0       0       0       0       
      +0       0       0       0       0       0       0       0       0       0       0       0       0       0       0       
      +0       0       0       0       0       0
  2434 ;;      Temps:          0       0       0       0       0       0       0       0       0       0       0       0       
      +0       0       0       0       0       0       0       0       0       0       0       0       0       0       0       
      +0       0       0       0       0       0
  2435 ;;      Totals:         0       0       0       0       0       0       0       0       0       0       0       0       
      +0       0       0       0       0       0       0       0       0       0       0       0       0       0       0       
      +0       0       0       0       0       0
  2436 ;;Total ram usage:        0 bytes
  2437 ;; Hardware stack levels used: 1
  2438 ;; Hardware stack levels required when called: 2
  2439 ;; This function calls:
  2440 ;;		Absolute function
  2441 ;;		_I2C1_SlaveDefRdInterruptHandler
  2442 ;; This function is called by:
  2443 ;;		_I2C1_Isr
  2444 ;; This function uses a non-reentrant model
  2445 ;;
  2446                           
  2447                           	psect	text31
  2448   000384                     __ptext31:
  2449                           	callstack 0
  2450   000384                     _I2C1_SlaveRdCallBack:
  2451                           	callstack 120
  2452   000384                     
  2453                           ;mcc_generated_files/i2c1_slave.c: 265:     if (I2C1_SlaveRdInterruptHandler)
  2454   000384  500D               	movf	_I2C1_SlaveRdInterruptHandler^(0+1280),w,c
  2455   000386  100E               	iorwf	(_I2C1_SlaveRdInterruptHandler+1)^(0+1280),w,c
  2456   000388  100F               	iorwf	(_I2C1_SlaveRdInterruptHandler+2)^(0+1280),w,c
  2457   00038A  B4D8               	btfsc	status,2,c
  2458   00038C  EFCA  F001         	goto	i2u12_41
  2459   000390  EFCC  F001         	goto	i2u12_40
  2460   000394                     i2u12_41:
  2461   000394  EFD9  F001         	goto	i2l193
  2462   000398                     i2u12_40:
  2463   000398                     
  2464                           ;mcc_generated_files/i2c1_slave.c: 266:     {;mcc_generated_files/i2c1_slave.c: 267:    
      +                               I2C1_SlaveRdInterruptHandler();
  2465   000398  D802               	call	i2u13_48
  2466   00039A  EFD9  F001         	goto	i2u13_49
  2467   00039E                     i2u13_48:
  2468   00039E  0005               	push	
  2469   0003A0  6EFA               	movwf	pclath,c
  2470   0003A2  500D               	movf	_I2C1_SlaveRdInterruptHandler^(0+1280),w,c
  2471   0003A4  6EFD               	movwf	tosl,c
  2472   0003A6  500E               	movf	(_I2C1_SlaveRdInterruptHandler+1)^(0+1280),w,c
  2473   0003A8  6EFE               	movwf	tosh,c
  2474   0003AA  500F               	movf	(_I2C1_SlaveRdInterruptHandler+2)^(0+1280),w,c
  2475   0003AC  6EFF               	movwf	tosu,c
  2476   0003AE  50FA               	movf	pclath,w,c
  2477   0003B0  0012               	return		;indir
  2478   0003B2                     i2u13_49:
  2479   0003B2                     i2l193:
  2480   0003B2  0012               	return		;funcret
  2481   0003B4                     __end_of_I2C1_SlaveRdCallBack:
  2482                           	callstack 0
  2483                           
  2484 ;; *************** function _I2C1_SlaveDefRdInterruptHandler *****************
  2485 ;; Defined at:
  2486 ;;		line 271 in file "mcc_generated_files/i2c1_slave.c"
  2487 ;; Parameters:    Size  Location     Type
  2488 ;;		None
  2489 ;; Auto vars:     Size  Location     Type
  2490 ;;		None
  2491 ;; Return value:  Size  Location     Type
  2492 ;;                  1    wreg      void 
  2493 ;; Registers used:
  2494 ;;		wreg, status,2, cstack
  2495 ;; Tracked objects:
  2496 ;;		On entry : 0/0
  2497 ;;		On exit  : 0/0
  2498 ;;		Unchanged: 0/0
  2499 ;; Data sizes:     COMRAM   BANK5   BANK6   BANK7   BANK8   BANK9  BANK10  BANK11  BANK12  BANK13  BANK14  BANK15  BANK1
      +6  BANK17  BANK18  BANK19  BANK20  BANK21  BANK22  BANK23  BANK24  BANK25  BANK26  BANK27  BANK28  BANK29  BANK30  BANK3
      +1  BANK32  BANK33  BANK34  BANK35  BANK36
  2500 ;;      Params:         0       0       0       0       0       0       0       0       0       0       0       0       
      +0       0       0       0       0       0       0       0       0       0       0       0       0       0       0       
      +0       0       0       0       0       0
  2501 ;;      Locals:         0       0       0       0       0       0       0       0       0       0       0       0       
      +0       0       0       0       0       0       0       0       0       0       0       0       0       0       0       
      +0       0       0       0       0       0
  2502 ;;      Temps:          0       0       0       0       0       0       0       0       0       0       0       0       
      +0       0       0       0       0       0       0       0       0       0       0       0       0       0       0       
      +0       0       0       0       0       0
  2503 ;;      Totals:         0       0       0       0       0       0       0       0       0       0       0       0       
      +0       0       0       0       0       0       0       0       0       0       0       0       0       0       0       
      +0       0       0       0       0       0
  2504 ;;Total ram usage:        0 bytes
  2505 ;; Hardware stack levels used: 1
  2506 ;; Hardware stack levels required when called: 1
  2507 ;; This function calls:
  2508 ;;		i2_I2C1_SlaveGetRxData
  2509 ;; This function is called by:
  2510 ;;		_I2C1_Open
  2511 ;;		_I2C1_SlaveRdCallBack
  2512 ;; This function uses a non-reentrant model
  2513 ;;
  2514                           
  2515                           	psect	text32
  2516   0005A0                     __ptext32:
  2517                           	callstack 0
  2518   0005A0                     _I2C1_SlaveDefRdInterruptHandler:
  2519                           	callstack 120
  2520   0005A0                     
  2521                           ;mcc_generated_files/i2c1_slave.c: 272:     i2c1RdData = I2C1_SlaveGetRxData();
  2522   0005A0  ECF2  F002         	call	i2_I2C1_SlaveGetRxData	;wreg free
  2523   0005A4  6E16               	movwf	_i2c1RdData^(0+1280),c	;volatile
  2524   0005A6  0012               	return		;funcret
  2525   0005A8                     __end_of_I2C1_SlaveDefRdInterruptHandler:
  2526                           	callstack 0
  2527                           
  2528 ;; *************** function i2_I2C1_SlaveGetRxData *****************
  2529 ;; Defined at:
  2530 ;;		line 450 in file "mcc_generated_files/i2c1_slave.c"
  2531 ;; Parameters:    Size  Location     Type
  2532 ;;		None
  2533 ;; Auto vars:     Size  Location     Type
  2534 ;;		None
  2535 ;; Return value:  Size  Location     Type
  2536 ;;                  1    wreg      unsigned char 
  2537 ;; Registers used:
  2538 ;;		wreg, status,2
  2539 ;; Tracked objects:
  2540 ;;		On entry : 0/0
  2541 ;;		On exit  : 0/0
  2542 ;;		Unchanged: 0/0
  2543 ;; Data sizes:     COMRAM   BANK5   BANK6   BANK7   BANK8   BANK9  BANK10  BANK11  BANK12  BANK13  BANK14  BANK15  BANK1
      +6  BANK17  BANK18  BANK19  BANK20  BANK21  BANK22  BANK23  BANK24  BANK25  BANK26  BANK27  BANK28  BANK29  BANK30  BANK3
      +1  BANK32  BANK33  BANK34  BANK35  BANK36
  2544 ;;      Params:         0       0       0       0       0       0       0       0       0       0       0       0       
      +0       0       0       0       0       0       0       0       0       0       0       0       0       0       0       
      +0       0       0       0       0       0
  2545 ;;      Locals:         0       0       0       0       0       0       0       0       0       0       0       0       
      +0       0       0       0       0       0       0       0       0       0       0       0       0       0       0       
      +0       0       0       0       0       0
  2546 ;;      Temps:          0       0       0       0       0       0       0       0       0       0       0       0       
      +0       0       0       0       0       0       0       0       0       0       0       0       0       0       0       
      +0       0       0       0       0       0
  2547 ;;      Totals:         0       0       0       0       0       0       0       0       0       0       0       0       
      +0       0       0       0       0       0       0       0       0       0       0       0       0       0       0       
      +0       0       0       0       0       0
  2548 ;;Total ram usage:        0 bytes
  2549 ;; Hardware stack levels used: 1
  2550 ;; This function calls:
  2551 ;;		Nothing
  2552 ;; This function is called by:
  2553 ;;		_I2C1_SlaveDefRdInterruptHandler
  2554 ;; This function uses a non-reentrant model
  2555 ;;
  2556                           
  2557                           	psect	text33
  2558   0005E4                     __ptext33:
  2559                           	callstack 0
  2560   0005E4                     i2_I2C1_SlaveGetRxData:
  2561                           	callstack 120
  2562   0005E4                     
  2563                           ;mcc_generated_files/i2c1_slave.c: 452:     return I2C1RXB;
  2564   0005E4  0102               	movlb	2	; () banked
  2565   0005E6  518B               	movf	139,w,b	;volatile
  2566   0005E8                     
  2567                           ; BSR set to: 2
  2568   0005E8  0012               	return		;funcret
  2569   0005EA                     __end_ofi2_I2C1_SlaveGetRxData:
  2570                           	callstack 0
  2571                           
  2572 ;; *************** function _I2C1_SlaveIsTxBufEmpty *****************
  2573 ;; Defined at:
  2574 ;;		line 430 in file "mcc_generated_files/i2c1_slave.c"
  2575 ;; Parameters:    Size  Location     Type
  2576 ;;		None
  2577 ;; Auto vars:     Size  Location     Type
  2578 ;;		None
  2579 ;; Return value:  Size  Location     Type
  2580 ;;                  1    wreg      _Bool 
  2581 ;; Registers used:
  2582 ;;		wreg
  2583 ;; Tracked objects:
  2584 ;;		On entry : 0/0
  2585 ;;		On exit  : 0/0
  2586 ;;		Unchanged: 0/0
  2587 ;; Data sizes:     COMRAM   BANK5   BANK6   BANK7   BANK8   BANK9  BANK10  BANK11  BANK12  BANK13  BANK14  BANK15  BANK1
      +6  BANK17  BANK18  BANK19  BANK20  BANK21  BANK22  BANK23  BANK24  BANK25  BANK26  BANK27  BANK28  BANK29  BANK30  BANK3
      +1  BANK32  BANK33  BANK34  BANK35  BANK36
  2588 ;;      Params:         0       0       0       0       0       0       0       0       0       0       0       0       
      +0       0       0       0       0       0       0       0       0       0       0       0       0       0       0       
      +0       0       0       0       0       0
  2589 ;;      Locals:         0       0       0       0       0       0       0       0       0       0       0       0       
      +0       0       0       0       0       0       0       0       0       0       0       0       0       0       0       
      +0       0       0       0       0       0
  2590 ;;      Temps:          0       0       0       0       0       0       0       0       0       0       0       0       
      +0       0       0       0       0       0       0       0       0       0       0       0       0       0       0       
      +0       0       0       0       0       0
  2591 ;;      Totals:         0       0       0       0       0       0       0       0       0       0       0       0       
      +0       0       0       0       0       0       0       0       0       0       0       0       0       0       0       
      +0       0       0       0       0       0
  2592 ;;Total ram usage:        0 bytes
  2593 ;; Hardware stack levels used: 1
  2594 ;; This function calls:
  2595 ;;		Nothing
  2596 ;; This function is called by:
  2597 ;;		_I2C1_Isr
  2598 ;; This function uses a non-reentrant model
  2599 ;;
  2600                           
  2601                           	psect	text34
  2602   000474                     __ptext34:
  2603                           	callstack 0
  2604   000474                     _I2C1_SlaveIsTxBufEmpty:
  2605                           	callstack 122
  2606   000474                     
  2607                           ;mcc_generated_files/i2c1_slave.c: 432:     return I2C1STAT1bits.TXBE;
  2608   000474  0102               	movlb	2	; () banked
  2609   000476  BB99               	btfsc	153,5,b	;volatile
  2610   000478  EF40  F002         	goto	i2u8_41
  2611   00047C  EF43  F002         	goto	i2u8_40
  2612   000480                     i2u8_41:
  2613   000480  0E01               	movlw	1
  2614   000482  EF44  F002         	goto	i2u8_46
  2615   000486                     i2u8_40:
  2616   000486  0E00               	movlw	0
  2617   000488                     i2u8_46:
  2618   000488                     
  2619                           ; BSR set to: 2
  2620   000488  0012               	return		;funcret
  2621   00048A                     __end_of_I2C1_SlaveIsTxBufEmpty:
  2622                           	callstack 0
  2623                           
  2624 ;; *************** function _I2C1_SlaveIsStop *****************
  2625 ;; Defined at:
  2626 ;;		line 400 in file "mcc_generated_files/i2c1_slave.c"
  2627 ;; Parameters:    Size  Location     Type
  2628 ;;		None
  2629 ;; Auto vars:     Size  Location     Type
  2630 ;;		None
  2631 ;; Return value:  Size  Location     Type
  2632 ;;                  1    wreg      _Bool 
  2633 ;; Registers used:
  2634 ;;		wreg
  2635 ;; Tracked objects:
  2636 ;;		On entry : 0/0
  2637 ;;		On exit  : 0/0
  2638 ;;		Unchanged: 0/0
  2639 ;; Data sizes:     COMRAM   BANK5   BANK6   BANK7   BANK8   BANK9  BANK10  BANK11  BANK12  BANK13  BANK14  BANK15  BANK1
      +6  BANK17  BANK18  BANK19  BANK20  BANK21  BANK22  BANK23  BANK24  BANK25  BANK26  BANK27  BANK28  BANK29  BANK30  BANK3
      +1  BANK32  BANK33  BANK34  BANK35  BANK36
  2640 ;;      Params:         0       0       0       0       0       0       0       0       0       0       0       0       
      +0       0       0       0       0       0       0       0       0       0       0       0       0       0       0       
      +0       0       0       0       0       0
  2641 ;;      Locals:         0       0       0       0       0       0       0       0       0       0       0       0       
      +0       0       0       0       0       0       0       0       0       0       0       0       0       0       0       
      +0       0       0       0       0       0
  2642 ;;      Temps:          0       0       0       0       0       0       0       0       0       0       0       0       
      +0       0       0       0       0       0       0       0       0       0       0       0       0       0       0       
      +0       0       0       0       0       0
  2643 ;;      Totals:         0       0       0       0       0       0       0       0       0       0       0       0       
      +0       0       0       0       0       0       0       0       0       0       0       0       0       0       0       
      +0       0       0       0       0       0
  2644 ;;Total ram usage:        0 bytes
  2645 ;; Hardware stack levels used: 1
  2646 ;; This function calls:
  2647 ;;		Nothing
  2648 ;; This function is called by:
  2649 ;;		_I2C1_Isr
  2650 ;; This function uses a non-reentrant model
  2651 ;;
  2652                           
  2653                           	psect	text35
  2654   00048A                     __ptext35:
  2655                           	callstack 0
  2656   00048A                     _I2C1_SlaveIsStop:
  2657                           	callstack 122
  2658   00048A                     
  2659                           ;mcc_generated_files/i2c1_slave.c: 402:     return I2C1PIRbits.PCIF;
  2660   00048A  0102               	movlb	2	; () banked
  2661   00048C  B59A               	btfsc	154,2,b	;volatile
  2662   00048E  EF4B  F002         	goto	i2u3_41
  2663   000492  EF4E  F002         	goto	i2u3_40
  2664   000496                     i2u3_41:
  2665   000496  0E01               	movlw	1
  2666   000498  EF4F  F002         	goto	i2u3_46
  2667   00049C                     i2u3_40:
  2668   00049C  0E00               	movlw	0
  2669   00049E                     i2u3_46:
  2670   00049E                     
  2671                           ; BSR set to: 2
  2672   00049E  0012               	return		;funcret
  2673   0004A0                     __end_of_I2C1_SlaveIsStop:
  2674                           	callstack 0
  2675                           
  2676 ;; *************** function _I2C1_SlaveIsRxBufFull *****************
  2677 ;; Defined at:
  2678 ;;		line 440 in file "mcc_generated_files/i2c1_slave.c"
  2679 ;; Parameters:    Size  Location     Type
  2680 ;;		None
  2681 ;; Auto vars:     Size  Location     Type
  2682 ;;		None
  2683 ;; Return value:  Size  Location     Type
  2684 ;;                  1    wreg      _Bool 
  2685 ;; Registers used:
  2686 ;;		wreg
  2687 ;; Tracked objects:
  2688 ;;		On entry : 0/0
  2689 ;;		On exit  : 0/0
  2690 ;;		Unchanged: 0/0
  2691 ;; Data sizes:     COMRAM   BANK5   BANK6   BANK7   BANK8   BANK9  BANK10  BANK11  BANK12  BANK13  BANK14  BANK15  BANK1
      +6  BANK17  BANK18  BANK19  BANK20  BANK21  BANK22  BANK23  BANK24  BANK25  BANK26  BANK27  BANK28  BANK29  BANK30  BANK3
      +1  BANK32  BANK33  BANK34  BANK35  BANK36
  2692 ;;      Params:         0       0       0       0       0       0       0       0       0       0       0       0       
      +0       0       0       0       0       0       0       0       0       0       0       0       0       0       0       
      +0       0       0       0       0       0
  2693 ;;      Locals:         0       0       0       0       0       0       0       0       0       0       0       0       
      +0       0       0       0       0       0       0       0       0       0       0       0       0       0       0       
      +0       0       0       0       0       0
  2694 ;;      Temps:          0       0       0       0       0       0       0       0       0       0       0       0       
      +0       0       0       0       0       0       0       0       0       0       0       0       0       0       0       
      +0       0       0       0       0       0
  2695 ;;      Totals:         0       0       0       0       0       0       0       0       0       0       0       0       
      +0       0       0       0       0       0       0       0       0       0       0       0       0       0       0       
      +0       0       0       0       0       0
  2696 ;;Total ram usage:        0 bytes
  2697 ;; Hardware stack levels used: 1
  2698 ;; This function calls:
  2699 ;;		Nothing
  2700 ;; This function is called by:
  2701 ;;		_I2C1_Isr
  2702 ;; This function uses a non-reentrant model
  2703 ;;
  2704                           
  2705                           	psect	text36
  2706   0004A0                     __ptext36:
  2707                           	callstack 0
  2708   0004A0                     _I2C1_SlaveIsRxBufFull:
  2709                           	callstack 122
  2710   0004A0                     
  2711                           ;mcc_generated_files/i2c1_slave.c: 442:     return I2C1STAT1bits.RXBF;
  2712   0004A0  0102               	movlb	2	; () banked
  2713   0004A2  B199               	btfsc	153,0,b	;volatile
  2714   0004A4  EF56  F002         	goto	i2u11_41
  2715   0004A8  EF59  F002         	goto	i2u11_40
  2716   0004AC                     i2u11_41:
  2717   0004AC  0E01               	movlw	1
  2718   0004AE  EF5A  F002         	goto	i2u11_46
  2719   0004B2                     i2u11_40:
  2720   0004B2  0E00               	movlw	0
  2721   0004B4                     i2u11_46:
  2722   0004B4                     
  2723                           ; BSR set to: 2
  2724   0004B4  0012               	return		;funcret
  2725   0004B6                     __end_of_I2C1_SlaveIsRxBufFull:
  2726                           	callstack 0
  2727                           
  2728 ;; *************** function _I2C1_SlaveIsRead *****************
  2729 ;; Defined at:
  2730 ;;		line 385 in file "mcc_generated_files/i2c1_slave.c"
  2731 ;; Parameters:    Size  Location     Type
  2732 ;;		None
  2733 ;; Auto vars:     Size  Location     Type
  2734 ;;		None
  2735 ;; Return value:  Size  Location     Type
  2736 ;;                  1    wreg      _Bool 
  2737 ;; Registers used:
  2738 ;;		wreg
  2739 ;; Tracked objects:
  2740 ;;		On entry : 0/0
  2741 ;;		On exit  : 0/0
  2742 ;;		Unchanged: 0/0
  2743 ;; Data sizes:     COMRAM   BANK5   BANK6   BANK7   BANK8   BANK9  BANK10  BANK11  BANK12  BANK13  BANK14  BANK15  BANK1
      +6  BANK17  BANK18  BANK19  BANK20  BANK21  BANK22  BANK23  BANK24  BANK25  BANK26  BANK27  BANK28  BANK29  BANK30  BANK3
      +1  BANK32  BANK33  BANK34  BANK35  BANK36
  2744 ;;      Params:         0       0       0       0       0       0       0       0       0       0       0       0       
      +0       0       0       0       0       0       0       0       0       0       0       0       0       0       0       
      +0       0       0       0       0       0
  2745 ;;      Locals:         0       0       0       0       0       0       0       0       0       0       0       0       
      +0       0       0       0       0       0       0       0       0       0       0       0       0       0       0       
      +0       0       0       0       0       0
  2746 ;;      Temps:          0       0       0       0       0       0       0       0       0       0       0       0       
      +0       0       0       0       0       0       0       0       0       0       0       0       0       0       0       
      +0       0       0       0       0       0
  2747 ;;      Totals:         0       0       0       0       0       0       0       0       0       0       0       0       
      +0       0       0       0       0       0       0       0       0       0       0       0       0       0       0       
      +0       0       0       0       0       0
  2748 ;;Total ram usage:        0 bytes
  2749 ;; Hardware stack levels used: 1
  2750 ;; This function calls:
  2751 ;;		Nothing
  2752 ;; This function is called by:
  2753 ;;		_I2C1_Isr
  2754 ;;		_I2C1_IsRead
  2755 ;; This function uses a non-reentrant model
  2756 ;;
  2757                           
  2758                           	psect	text37
  2759   0004B6                     __ptext37:
  2760                           	callstack 0
  2761   0004B6                     _I2C1_SlaveIsRead:
  2762                           	callstack 122
  2763   0004B6                     
  2764                           ;mcc_generated_files/i2c1_slave.c: 387:     return I2C1STAT0bits.R;
  2765   0004B6  0102               	movlb	2	; () banked
  2766   0004B8  B998               	btfsc	152,4,b	;volatile
  2767   0004BA  EF61  F002         	goto	i2u2_41
  2768   0004BE  EF64  F002         	goto	i2u2_40
  2769   0004C2                     i2u2_41:
  2770   0004C2  0E01               	movlw	1
  2771   0004C4  EF65  F002         	goto	i2u2_46
  2772   0004C8                     i2u2_40:
  2773   0004C8  0E00               	movlw	0
  2774   0004CA                     i2u2_46:
  2775   0004CA                     
  2776                           ; BSR set to: 2
  2777   0004CA  0012               	return		;funcret
  2778   0004CC                     __end_of_I2C1_SlaveIsRead:
  2779                           	callstack 0
  2780                           
  2781 ;; *************** function _I2C1_SlaveIsAddr *****************
  2782 ;; Defined at:
  2783 ;;		line 380 in file "mcc_generated_files/i2c1_slave.c"
  2784 ;; Parameters:    Size  Location     Type
  2785 ;;		None
  2786 ;; Auto vars:     Size  Location     Type
  2787 ;;		None
  2788 ;; Return value:  Size  Location     Type
  2789 ;;                  1    wreg      _Bool 
  2790 ;; Registers used:
  2791 ;;		wreg
  2792 ;; Tracked objects:
  2793 ;;		On entry : 0/0
  2794 ;;		On exit  : 0/0
  2795 ;;		Unchanged: 0/0
  2796 ;; Data sizes:     COMRAM   BANK5   BANK6   BANK7   BANK8   BANK9  BANK10  BANK11  BANK12  BANK13  BANK14  BANK15  BANK1
      +6  BANK17  BANK18  BANK19  BANK20  BANK21  BANK22  BANK23  BANK24  BANK25  BANK26  BANK27  BANK28  BANK29  BANK30  BANK3
      +1  BANK32  BANK33  BANK34  BANK35  BANK36
  2797 ;;      Params:         0       0       0       0       0       0       0       0       0       0       0       0       
      +0       0       0       0       0       0       0       0       0       0       0       0       0       0       0       
      +0       0       0       0       0       0
  2798 ;;      Locals:         0       0       0       0       0       0       0       0       0       0       0       0       
      +0       0       0       0       0       0       0       0       0       0       0       0       0       0       0       
      +0       0       0       0       0       0
  2799 ;;      Temps:          0       0       0       0       0       0       0       0       0       0       0       0       
      +0       0       0       0       0       0       0       0       0       0       0       0       0       0       0       
      +0       0       0       0       0       0
  2800 ;;      Totals:         0       0       0       0       0       0       0       0       0       0       0       0       
      +0       0       0       0       0       0       0       0       0       0       0       0       0       0       0       
      +0       0       0       0       0       0
  2801 ;;Total ram usage:        0 bytes
  2802 ;; Hardware stack levels used: 1
  2803 ;; This function calls:
  2804 ;;		Nothing
  2805 ;; This function is called by:
  2806 ;;		_I2C1_Isr
  2807 ;; This function uses a non-reentrant model
  2808 ;;
  2809                           
  2810                           	psect	text38
  2811   0004CC                     __ptext38:
  2812                           	callstack 0
  2813   0004CC                     _I2C1_SlaveIsAddr:
  2814                           	callstack 122
  2815   0004CC                     
  2816                           ;mcc_generated_files/i2c1_slave.c: 382:     return !(I2C1STAT0bits.D);
  2817   0004CC  0102               	movlb	2	; () banked
  2818   0004CE  A798               	btfss	152,3,b	;volatile
  2819   0004D0  EF6C  F002         	goto	i2u4_41
  2820   0004D4  EF6F  F002         	goto	i2u4_40
  2821   0004D8                     i2u4_41:
  2822   0004D8  0E01               	movlw	1
  2823   0004DA  EF70  F002         	goto	i2u5_40
  2824   0004DE                     i2u4_40:
  2825   0004DE  0E00               	movlw	0
  2826   0004E0                     i2u5_40:
  2827   0004E0                     
  2828                           ; BSR set to: 2
  2829   0004E0  0012               	return		;funcret
  2830   0004E2                     __end_of_I2C1_SlaveIsAddr:
  2831                           	callstack 0
  2832                           
  2833 ;; *************** function _I2C1_SlaveClearIrq *****************
  2834 ;; Defined at:
  2835 ;;		line 410 in file "mcc_generated_files/i2c1_slave.c"
  2836 ;; Parameters:    Size  Location     Type
  2837 ;;		None
  2838 ;; Auto vars:     Size  Location     Type
  2839 ;;		None
  2840 ;; Return value:  Size  Location     Type
  2841 ;;                  1    wreg      void 
  2842 ;; Registers used:
  2843 ;;		wreg, status,2
  2844 ;; Tracked objects:
  2845 ;;		On entry : 0/0
  2846 ;;		On exit  : 0/0
  2847 ;;		Unchanged: 0/0
  2848 ;; Data sizes:     COMRAM   BANK5   BANK6   BANK7   BANK8   BANK9  BANK10  BANK11  BANK12  BANK13  BANK14  BANK15  BANK1
      +6  BANK17  BANK18  BANK19  BANK20  BANK21  BANK22  BANK23  BANK24  BANK25  BANK26  BANK27  BANK28  BANK29  BANK30  BANK3
      +1  BANK32  BANK33  BANK34  BANK35  BANK36
  2849 ;;      Params:         0       0       0       0       0       0       0       0       0       0       0       0       
      +0       0       0       0       0       0       0       0       0       0       0       0       0       0       0       
      +0       0       0       0       0       0
  2850 ;;      Locals:         0       0       0       0       0       0       0       0       0       0       0       0       
      +0       0       0       0       0       0       0       0       0       0       0       0       0       0       0       
      +0       0       0       0       0       0
  2851 ;;      Temps:          0       0       0       0       0       0       0       0       0       0       0       0       
      +0       0       0       0       0       0       0       0       0       0       0       0       0       0       0       
      +0       0       0       0       0       0
  2852 ;;      Totals:         0       0       0       0       0       0       0       0       0       0       0       0       
      +0       0       0       0       0       0       0       0       0       0       0       0       0       0       0       
      +0       0       0       0       0       0
  2853 ;;Total ram usage:        0 bytes
  2854 ;; Hardware stack levels used: 1
  2855 ;; This function calls:
  2856 ;;		Nothing
  2857 ;; This function is called by:
  2858 ;;		_I2C1_Isr
  2859 ;; This function uses a non-reentrant model
  2860 ;;
  2861                           
  2862                           	psect	text39
  2863   0005A8                     __ptext39:
  2864                           	callstack 0
  2865   0005A8                     _I2C1_SlaveClearIrq:
  2866                           	callstack 122
  2867   0005A8                     
  2868                           ;mcc_generated_files/i2c1_slave.c: 412:     I2C1PIR = 0x00;
  2869   0005A8  0E00               	movlw	0
  2870   0005AA  0102               	movlb	2	; () banked
  2871   0005AC  6F9A               	movwf	154,b	;volatile
  2872   0005AE                     
  2873                           ; BSR set to: 2
  2874   0005AE  0012               	return		;funcret
  2875   0005B0                     __end_of_I2C1_SlaveClearIrq:
  2876                           	callstack 0
  2877                           
  2878 ;; *************** function _I2C1_SlaveClearBuff *****************
  2879 ;; Defined at:
  2880 ;;		line 405 in file "mcc_generated_files/i2c1_slave.c"
  2881 ;; Parameters:    Size  Location     Type
  2882 ;;		None
  2883 ;; Auto vars:     Size  Location     Type
  2884 ;;		None
  2885 ;; Return value:  Size  Location     Type
  2886 ;;                  1    wreg      void 
  2887 ;; Registers used:
  2888 ;;		None
  2889 ;; Tracked objects:
  2890 ;;		On entry : 0/0
  2891 ;;		On exit  : 0/0
  2892 ;;		Unchanged: 0/0
  2893 ;; Data sizes:     COMRAM   BANK5   BANK6   BANK7   BANK8   BANK9  BANK10  BANK11  BANK12  BANK13  BANK14  BANK15  BANK1
      +6  BANK17  BANK18  BANK19  BANK20  BANK21  BANK22  BANK23  BANK24  BANK25  BANK26  BANK27  BANK28  BANK29  BANK30  BANK3
      +1  BANK32  BANK33  BANK34  BANK35  BANK36
  2894 ;;      Params:         0       0       0       0       0       0       0       0       0       0       0       0       
      +0       0       0       0       0       0       0       0       0       0       0       0       0       0       0       
      +0       0       0       0       0       0
  2895 ;;      Locals:         0       0       0       0       0       0       0       0       0       0       0       0       
      +0       0       0       0       0       0       0       0       0       0       0       0       0       0       0       
      +0       0       0       0       0       0
  2896 ;;      Temps:          0       0       0       0       0       0       0       0       0       0       0       0       
      +0       0       0       0       0       0       0       0       0       0       0       0       0       0       0       
      +0       0       0       0       0       0
  2897 ;;      Totals:         0       0       0       0       0       0       0       0       0       0       0       0       
      +0       0       0       0       0       0       0       0       0       0       0       0       0       0       0       
      +0       0       0       0       0       0
  2898 ;;Total ram usage:        0 bytes
  2899 ;; Hardware stack levels used: 1
  2900 ;; This function calls:
  2901 ;;		Nothing
  2902 ;; This function is called by:
  2903 ;;		_I2C1_Isr
  2904 ;; This function uses a non-reentrant model
  2905 ;;
  2906                           
  2907                           	psect	text40
  2908   0005EA                     __ptext40:
  2909                           	callstack 0
  2910   0005EA                     _I2C1_SlaveClearBuff:
  2911                           	callstack 122
  2912   0005EA                     
  2913                           ;mcc_generated_files/i2c1_slave.c: 407:     I2C1STAT1bits.CLRBF = 1;
  2914   0005EA  0102               	movlb	2	; () banked
  2915   0005EC  8599               	bsf	153,2,b	;volatile
  2916   0005EE                     
  2917                           ; BSR set to: 2
  2918   0005EE  0012               	return		;funcret
  2919   0005F0                     __end_of_I2C1_SlaveClearBuff:
  2920                           	callstack 0
  2921                           
  2922 ;; *************** function _I2C1_SlaveAddrCallBack *****************
  2923 ;; Defined at:
  2924 ;;		line 297 in file "mcc_generated_files/i2c1_slave.c"
  2925 ;; Parameters:    Size  Location     Type
  2926 ;;		None
  2927 ;; Auto vars:     Size  Location     Type
  2928 ;;		None
  2929 ;; Return value:  Size  Location     Type
  2930 ;;                  1    wreg      void 
  2931 ;; Registers used:
  2932 ;;		wreg, status,2, status,0, pcl, pclath, pclatu, tosl, cstack
  2933 ;; Tracked objects:
  2934 ;;		On entry : 0/0
  2935 ;;		On exit  : 0/0
  2936 ;;		Unchanged: 0/0
  2937 ;; Data sizes:     COMRAM   BANK5   BANK6   BANK7   BANK8   BANK9  BANK10  BANK11  BANK12  BANK13  BANK14  BANK15  BANK1
      +6  BANK17  BANK18  BANK19  BANK20  BANK21  BANK22  BANK23  BANK24  BANK25  BANK26  BANK27  BANK28  BANK29  BANK30  BANK3
      +1  BANK32  BANK33  BANK34  BANK35  BANK36
  2938 ;;      Params:         0       0       0       0       0       0       0       0       0       0       0       0       
      +0       0       0       0       0       0       0       0       0       0       0       0       0       0       0       
      +0       0       0       0       0       0
  2939 ;;      Locals:         0       0       0       0       0       0       0       0       0       0       0       0       
      +0       0       0       0       0       0       0       0       0       0       0       0       0       0       0       
      +0       0       0       0       0       0
  2940 ;;      Temps:          0       0       0       0       0       0       0       0       0       0       0       0       
      +0       0       0       0       0       0       0       0       0       0       0       0       0       0       0       
      +0       0       0       0       0       0
  2941 ;;      Totals:         0       0       0       0       0       0       0       0       0       0       0       0       
      +0       0       0       0       0       0       0       0       0       0       0       0       0       0       0       
      +0       0       0       0       0       0
  2942 ;;Total ram usage:        0 bytes
  2943 ;; Hardware stack levels used: 1
  2944 ;; Hardware stack levels required when called: 2
  2945 ;; This function calls:
  2946 ;;		Absolute function
  2947 ;;		_I2C1_SlaveDefAddrInterruptHandler
  2948 ;; This function is called by:
  2949 ;;		_I2C1_Isr
  2950 ;; This function uses a non-reentrant model
  2951 ;;
  2952                           
  2953                           	psect	text41
  2954   0003B4                     __ptext41:
  2955                           	callstack 0
  2956   0003B4                     _I2C1_SlaveAddrCallBack:
  2957                           	callstack 120
  2958   0003B4                     
  2959                           ;mcc_generated_files/i2c1_slave.c: 299:     if (I2C1_SlaveAddrInterruptHandler) {
  2960   0003B4  5007               	movf	_I2C1_SlaveAddrInterruptHandler^(0+1280),w,c
  2961   0003B6  1008               	iorwf	(_I2C1_SlaveAddrInterruptHandler+1)^(0+1280),w,c
  2962   0003B8  1009               	iorwf	(_I2C1_SlaveAddrInterruptHandler+2)^(0+1280),w,c
  2963   0003BA  B4D8               	btfsc	status,2,c
  2964   0003BC  EFE2  F001         	goto	i2u6_41
  2965   0003C0  EFE4  F001         	goto	i2u6_40
  2966   0003C4                     i2u6_41:
  2967   0003C4  EFF1  F001         	goto	i2l213
  2968   0003C8                     i2u6_40:
  2969   0003C8                     
  2970                           ;mcc_generated_files/i2c1_slave.c: 300:         I2C1_SlaveAddrInterruptHandler();
  2971   0003C8  D802               	call	i2u7_48
  2972   0003CA  EFF1  F001         	goto	i2u7_49
  2973   0003CE                     i2u7_48:
  2974   0003CE  0005               	push	
  2975   0003D0  6EFA               	movwf	pclath,c
  2976   0003D2  5007               	movf	_I2C1_SlaveAddrInterruptHandler^(0+1280),w,c
  2977   0003D4  6EFD               	movwf	tosl,c
  2978   0003D6  5008               	movf	(_I2C1_SlaveAddrInterruptHandler+1)^(0+1280),w,c
  2979   0003D8  6EFE               	movwf	tosh,c
  2980   0003DA  5009               	movf	(_I2C1_SlaveAddrInterruptHandler+2)^(0+1280),w,c
  2981   0003DC  6EFF               	movwf	tosu,c
  2982   0003DE  50FA               	movf	pclath,w,c
  2983   0003E0  0012               	return		;indir
  2984   0003E2                     i2u7_49:
  2985   0003E2                     i2l213:
  2986   0003E2  0012               	return		;funcret
  2987   0003E4                     __end_of_I2C1_SlaveAddrCallBack:
  2988                           	callstack 0
  2989                           
  2990 ;; *************** function _I2C1_SlaveDefAddrInterruptHandler *****************
  2991 ;; Defined at:
  2992 ;;		line 304 in file "mcc_generated_files/i2c1_slave.c"
  2993 ;; Parameters:    Size  Location     Type
  2994 ;;		None
  2995 ;; Auto vars:     Size  Location     Type
  2996 ;;		None
  2997 ;; Return value:  Size  Location     Type
  2998 ;;                  1    wreg      void 
  2999 ;; Registers used:
  3000 ;;		wreg, status,2, status,0, cstack
  3001 ;; Tracked objects:
  3002 ;;		On entry : 0/0
  3003 ;;		On exit  : 0/0
  3004 ;;		Unchanged: 0/0
  3005 ;; Data sizes:     COMRAM   BANK5   BANK6   BANK7   BANK8   BANK9  BANK10  BANK11  BANK12  BANK13  BANK14  BANK15  BANK1
      +6  BANK17  BANK18  BANK19  BANK20  BANK21  BANK22  BANK23  BANK24  BANK25  BANK26  BANK27  BANK28  BANK29  BANK30  BANK3
      +1  BANK32  BANK33  BANK34  BANK35  BANK36
  3006 ;;      Params:         0       0       0       0       0       0       0       0       0       0       0       0       
      +0       0       0       0       0       0       0       0       0       0       0       0       0       0       0       
      +0       0       0       0       0       0
  3007 ;;      Locals:         0       0       0       0       0       0       0       0       0       0       0       0       
      +0       0       0       0       0       0       0       0       0       0       0       0       0       0       0       
      +0       0       0       0       0       0
  3008 ;;      Temps:          0       0       0       0       0       0       0       0       0       0       0       0       
      +0       0       0       0       0       0       0       0       0       0       0       0       0       0       0       
      +0       0       0       0       0       0
  3009 ;;      Totals:         0       0       0       0       0       0       0       0       0       0       0       0       
      +0       0       0       0       0       0       0       0       0       0       0       0       0       0       0       
      +0       0       0       0       0       0
  3010 ;;Total ram usage:        0 bytes
  3011 ;; Hardware stack levels used: 1
  3012 ;; Hardware stack levels required when called: 1
  3013 ;; This function calls:
  3014 ;;		i2_I2C1_SlaveGetAddr
  3015 ;; This function is called by:
  3016 ;;		_I2C1_Open
  3017 ;;		_I2C1_SlaveAddrCallBack
  3018 ;; This function uses a non-reentrant model
  3019 ;;
  3020                           
  3021                           	psect	text42
  3022   0005B0                     __ptext42:
  3023                           	callstack 0
  3024   0005B0                     _I2C1_SlaveDefAddrInterruptHandler:
  3025                           	callstack 120
  3026   0005B0                     
  3027                           ;mcc_generated_files/i2c1_slave.c: 305:     i2c1SlaveAddr = I2C1_SlaveGetAddr();
  3028   0005B0  ECDC  F002         	call	i2_I2C1_SlaveGetAddr	;wreg free
  3029   0005B4  6E15               	movwf	_i2c1SlaveAddr^(0+1280),c	;volatile
  3030   0005B6  0012               	return		;funcret
  3031   0005B8                     __end_of_I2C1_SlaveDefAddrInterruptHandler:
  3032                           	callstack 0
  3033                           
  3034 ;; *************** function i2_I2C1_SlaveGetAddr *****************
  3035 ;; Defined at:
  3036 ;;		line 455 in file "mcc_generated_files/i2c1_slave.c"
  3037 ;; Parameters:    Size  Location     Type
  3038 ;;		None
  3039 ;; Auto vars:     Size  Location     Type
  3040 ;;		None
  3041 ;; Return value:  Size  Location     Type
  3042 ;;                  1    wreg      unsigned char 
  3043 ;; Registers used:
  3044 ;;		wreg, status,2, status,0
  3045 ;; Tracked objects:
  3046 ;;		On entry : 0/0
  3047 ;;		On exit  : 0/0
  3048 ;;		Unchanged: 0/0
  3049 ;; Data sizes:     COMRAM   BANK5   BANK6   BANK7   BANK8   BANK9  BANK10  BANK11  BANK12  BANK13  BANK14  BANK15  BANK1
      +6  BANK17  BANK18  BANK19  BANK20  BANK21  BANK22  BANK23  BANK24  BANK25  BANK26  BANK27  BANK28  BANK29  BANK30  BANK3
      +1  BANK32  BANK33  BANK34  BANK35  BANK36
  3050 ;;      Params:         0       0       0       0       0       0       0       0       0       0       0       0       
      +0       0       0       0       0       0       0       0       0       0       0       0       0       0       0       
      +0       0       0       0       0       0
  3051 ;;      Locals:         0       0       0       0       0       0       0       0       0       0       0       0       
      +0       0       0       0       0       0       0       0       0       0       0       0       0       0       0       
      +0       0       0       0       0       0
  3052 ;;      Temps:          0       0       0       0       0       0       0       0       0       0       0       0       
      +0       0       0       0       0       0       0       0       0       0       0       0       0       0       0       
      +0       0       0       0       0       0
  3053 ;;      Totals:         0       0       0       0       0       0       0       0       0       0       0       0       
      +0       0       0       0       0       0       0       0       0       0       0       0       0       0       0       
      +0       0       0       0       0       0
  3054 ;;Total ram usage:        0 bytes
  3055 ;; Hardware stack levels used: 1
  3056 ;; This function calls:
  3057 ;;		Nothing
  3058 ;; This function is called by:
  3059 ;;		_I2C1_SlaveDefAddrInterruptHandler
  3060 ;; This function uses a non-reentrant model
  3061 ;;
  3062                           
  3063                           	psect	text43
  3064   0005B8                     __ptext43:
  3065                           	callstack 0
  3066   0005B8                     i2_I2C1_SlaveGetAddr:
  3067                           	callstack 120
  3068   0005B8                     
  3069                           ;mcc_generated_files/i2c1_slave.c: 457:     return I2C1ADB0 >> 1;
  3070   0005B8  0102               	movlb	2	; () banked
  3071   0005BA  90D8               	bcf	status,0,c
  3072   0005BC  318E               	rrcf	142,w,b	;volatile
  3073   0005BE                     
  3074                           ; BSR set to: 2
  3075   0005BE  0012               	return		;funcret
  3076   0005C0                     __end_ofi2_I2C1_SlaveGetAddr:
  3077                           	callstack 0
  3078                           
  3079                           ;
  3080                           ; Interrupt Vector Table @ 0x8
  3081                           ;
  3082                           
  3083                           	psect	ivt0x8
  3084   000008                     __pivt0x8:
  3085                           	callstack 0
  3086   000008                     ivt0x8_base:
  3087                           	callstack 0
  3088                           
  3089                           ; high-priority vector
  3090   000008  EFFF  F000         	goto	_INTERRUPT_InterruptManager
  3091   000018                     	org	16
  3092                           
  3093                           ; low-priority vector
  3094   000018  00FF               	reset	
  3095   000000                     
  3096                           	psect	text44
  3097   000000                     __ptext44:
  3098                           	callstack 0
  3099   000000                     
  3100                           	psect	rparam
  3101   000000                     
  3102                           	psect	idloc
  3103                           
  3104                           ;Config register IDLOC0 @ 0x200000
  3105                           ;	unspecified, using default values
  3106   200000                     	org	2097152
  3107   200000  0FFF               	dw	4095
  3108                           
  3109                           ;Config register IDLOC1 @ 0x200002
  3110                           ;	unspecified, using default values
  3111   200002                     	org	2097154
  3112   200002  0FFF               	dw	4095
  3113                           
  3114                           ;Config register IDLOC2 @ 0x200004
  3115                           ;	unspecified, using default values
  3116   200004                     	org	2097156
  3117   200004  0FFF               	dw	4095
  3118                           
  3119                           ;Config register IDLOC3 @ 0x200006
  3120                           ;	unspecified, using default values
  3121   200006                     	org	2097158
  3122   200006  0FFF               	dw	4095
  3123                           
  3124                           ;Config register IDLOC4 @ 0x200008
  3125                           ;	unspecified, using default values
  3126   200008                     	org	2097160
  3127   200008  0FFF               	dw	4095
  3128                           
  3129                           ;Config register IDLOC5 @ 0x20000A
  3130                           ;	unspecified, using default values
  3131   20000A                     	org	2097162
  3132   20000A  0FFF               	dw	4095
  3133                           
  3134                           ;Config register IDLOC6 @ 0x20000C
  3135                           ;	unspecified, using default values
  3136   20000C                     	org	2097164
  3137   20000C  0FFF               	dw	4095
  3138                           
  3139                           ;Config register IDLOC7 @ 0x20000E
  3140                           ;	unspecified, using default values
  3141   20000E                     	org	2097166
  3142   20000E  0FFF               	dw	4095
  3143                           
  3144                           ;Config register IDLOC8 @ 0x200010
  3145                           ;	unspecified, using default values
  3146   200010                     	org	2097168
  3147   200010  0FFF               	dw	4095
  3148                           
  3149                           ;Config register IDLOC9 @ 0x200012
  3150                           ;	unspecified, using default values
  3151   200012                     	org	2097170
  3152   200012  0FFF               	dw	4095
  3153                           
  3154                           ;Config register IDLOC10 @ 0x200014
  3155                           ;	unspecified, using default values
  3156   200014                     	org	2097172
  3157   200014  0FFF               	dw	4095
  3158                           
  3159                           ;Config register IDLOC11 @ 0x200016
  3160                           ;	unspecified, using default values
  3161   200016                     	org	2097174
  3162   200016  0FFF               	dw	4095
  3163                           
  3164                           ;Config register IDLOC12 @ 0x200018
  3165                           ;	unspecified, using default values
  3166   200018                     	org	2097176
  3167   200018  0FFF               	dw	4095
  3168                           
  3169                           ;Config register IDLOC13 @ 0x20001A
  3170                           ;	unspecified, using default values
  3171   20001A                     	org	2097178
  3172   20001A  0FFF               	dw	4095
  3173                           
  3174                           ;Config register IDLOC14 @ 0x20001C
  3175                           ;	unspecified, using default values
  3176   20001C                     	org	2097180
  3177   20001C  0FFF               	dw	4095
  3178                           
  3179                           ;Config register IDLOC15 @ 0x20001E
  3180                           ;	unspecified, using default values
  3181   20001E                     	org	2097182
  3182   20001E  0FFF               	dw	4095
  3183                           
  3184                           ;Config register IDLOC16 @ 0x200020
  3185                           ;	unspecified, using default values
  3186   200020                     	org	2097184
  3187   200020  0FFF               	dw	4095
  3188                           
  3189                           ;Config register IDLOC17 @ 0x200022
  3190                           ;	unspecified, using default values
  3191   200022                     	org	2097186
  3192   200022  0FFF               	dw	4095
  3193                           
  3194                           ;Config register IDLOC18 @ 0x200024
  3195                           ;	unspecified, using default values
  3196   200024                     	org	2097188
  3197   200024  0FFF               	dw	4095
  3198                           
  3199                           ;Config register IDLOC19 @ 0x200026
  3200                           ;	unspecified, using default values
  3201   200026                     	org	2097190
  3202   200026  0FFF               	dw	4095
  3203                           
  3204                           ;Config register IDLOC20 @ 0x200028
  3205                           ;	unspecified, using default values
  3206   200028                     	org	2097192
  3207   200028  0FFF               	dw	4095
  3208                           
  3209                           ;Config register IDLOC21 @ 0x20002A
  3210                           ;	unspecified, using default values
  3211   20002A                     	org	2097194
  3212   20002A  0FFF               	dw	4095
  3213                           
  3214                           ;Config register IDLOC22 @ 0x20002C
  3215                           ;	unspecified, using default values
  3216   20002C                     	org	2097196
  3217   20002C  0FFF               	dw	4095
  3218                           
  3219                           ;Config register IDLOC23 @ 0x20002E
  3220                           ;	unspecified, using default values
  3221   20002E                     	org	2097198
  3222   20002E  0FFF               	dw	4095
  3223                           
  3224                           ;Config register IDLOC24 @ 0x200030
  3225                           ;	unspecified, using default values
  3226   200030                     	org	2097200
  3227   200030  0FFF               	dw	4095
  3228                           
  3229                           ;Config register IDLOC25 @ 0x200032
  3230                           ;	unspecified, using default values
  3231   200032                     	org	2097202
  3232   200032  0FFF               	dw	4095
  3233                           
  3234                           ;Config register IDLOC26 @ 0x200034
  3235                           ;	unspecified, using default values
  3236   200034                     	org	2097204
  3237   200034  0FFF               	dw	4095
  3238                           
  3239                           ;Config register IDLOC27 @ 0x200036
  3240                           ;	unspecified, using default values
  3241   200036                     	org	2097206
  3242   200036  0FFF               	dw	4095
  3243                           
  3244                           ;Config register IDLOC28 @ 0x200038
  3245                           ;	unspecified, using default values
  3246   200038                     	org	2097208
  3247   200038  0FFF               	dw	4095
  3248                           
  3249                           ;Config register IDLOC29 @ 0x20003A
  3250                           ;	unspecified, using default values
  3251   20003A                     	org	2097210
  3252   20003A  0FFF               	dw	4095
  3253                           
  3254                           ;Config register IDLOC30 @ 0x20003C
  3255                           ;	unspecified, using default values
  3256   20003C                     	org	2097212
  3257   20003C  0FFF               	dw	4095
  3258                           
  3259                           ;Config register IDLOC31 @ 0x20003E
  3260                           ;	unspecified, using default values
  3261   20003E                     	org	2097214
  3262   20003E  0FFF               	dw	4095
  3263                           
  3264                           	psect	config
  3265                           
  3266                           ;Config register CONFIG1 @ 0x300000
  3267                           ;	External Oscillator Selection
  3268                           ;	FEXTOSC = OFF, Oscillator not enabled
  3269                           ;	Reset Oscillator Selection
  3270                           ;	RSTOSC = HFINTOSC_1MHZ, HFINTOSC with HFFRQ = 4 MHz and CDIV = 4:1
  3271   300000                     	org	3145728
  3272   300000  EC                 	db	236
  3273                           
  3274                           ;Config register CONFIG2 @ 0x300001
  3275                           ;	Clock out Enable bit
  3276                           ;	CLKOUTEN = OFF, CLKOUT function is disabled
  3277                           ;	PRLOCKED One-Way Set Enable bit
  3278                           ;	PR1WAY = ON, PRLOCKED bit can be cleared and set only once
  3279                           ;	Clock Switch Enable bit
  3280                           ;	CSWEN = ON, Writing to NOSC and NDIV is allowed
  3281                           ;	Fail-Safe Clock Monitor Enable bit
  3282                           ;	FCMEN = ON, Fail-Safe Clock Monitor enabled
  3283   300001                     	org	3145729
  3284   300001  FF                 	db	255
  3285                           
  3286                           ;Config register CONFIG3 @ 0x300002
  3287                           ;	MCLR Enable bit
  3288                           ;	MCLRE = EXTMCLR, If LVP = 0, MCLR pin is MCLR; If LVP = 1, RE3 pin function is MCLR
  3289                           ;	Power-up timer selection bits
  3290                           ;	PWRTS = PWRT_OFF, PWRT is disabled
  3291                           ;	Multi-vector enable bit
  3292                           ;	MVECEN = OFF, Interrupt contoller does not use vector table to prioritze interrupts
  3293                           ;	IVTLOCK bit One-way set enable bit
  3294                           ;	IVT1WAY = ON, IVTLOCKED bit can be cleared and set only once
  3295                           ;	Low Power BOR Enable bit
  3296                           ;	LPBOREN = OFF, Low-Power BOR disabled
  3297                           ;	Brown-out Reset Enable bits
  3298                           ;	BOREN = SBORDIS, Brown-out Reset enabled , SBOREN bit is ignored
  3299   300002                     	org	3145730
  3300   300002  F7                 	db	247
  3301                           
  3302                           ;Config register CONFIG4 @ 0x300003
  3303                           ;	Brown-out Reset Voltage Selection bits
  3304                           ;	BORV = VBOR_1P9, Brown-out Reset Voltage (VBOR) set to 1.9V
  3305                           ;	ZCD Disable bit
  3306                           ;	ZCD = OFF, ZCD module is disabled. ZCD can be enabled by setting the ZCDSEN bit of ZCD
      +                          CON
  3307                           ;	PPSLOCK bit One-Way Set Enable bit
  3308                           ;	PPS1WAY = ON, PPSLOCKED bit can be cleared and set only once; PPS registers remain loc
      +                          ked after one clear/set cycle
  3309                           ;	Stack Full/Underflow Reset Enable bit
  3310                           ;	STVREN = ON, Stack full/underflow will cause Reset
  3311                           ;	Low Voltage Programming Enable bit
  3312                           ;	LVP = ON, Low voltage programming enabled. MCLR/VPP pin function is MCLR. MCLRE config
      +                          uration bit is ignored
  3313                           ;	Extended Instruction Set Enable bit
  3314                           ;	XINST = OFF, Extended Instruction Set and Indexed Addressing Mode disabled
  3315   300003                     	org	3145731
  3316   300003  FF                 	db	255
  3317                           
  3318                           ;Config register CONFIG5 @ 0x300004
  3319                           ;	WDT Period selection bits
  3320                           ;	WDTCPS = WDTCPS_31, Divider ratio 1:65536; software control of WDTPS
  3321                           ;	WDT operating mode
  3322                           ;	WDTE = OFF, WDT Disabled; SWDTEN is ignored
  3323   300004                     	org	3145732
  3324   300004  9F                 	db	159
  3325                           
  3326                           ;Config register CONFIG6 @ 0x300005
  3327                           ;	WDT Window Select bits
  3328                           ;	WDTCWS = WDTCWS_7, window always open (100%); software control; keyed access not requi
      +                          red
  3329                           ;	WDT input clock selector
  3330                           ;	WDTCCS = SC, Software Control
  3331   300005                     	org	3145733
  3332   300005  FF                 	db	255
  3333                           
  3334                           ;Config register CONFIG7 @ 0x300006
  3335                           ;	Boot Block Size selection bits
  3336                           ;	BBSIZE = BBSIZE_512, Boot Block size is 512 words
  3337                           ;	Boot Block enable bit
  3338                           ;	BBEN = OFF, Boot block disabled
  3339                           ;	Storage Area Flash enable bit
  3340                           ;	SAFEN = OFF, SAF disabled
  3341                           ;	Background Debugger
  3342                           ;	DEBUG = OFF, Background Debugger disabled
  3343   300006                     	org	3145734
  3344   300006  FF                 	db	255
  3345                           
  3346                           ;Config register CONFIG8 @ 0x300007
  3347                           ;	Boot Block Write Protection bit
  3348                           ;	WRTB = OFF, Boot Block not Write protected
  3349                           ;	Configuration Register Write Protection bit
  3350                           ;	WRTC = OFF, Configuration registers not Write protected
  3351                           ;	Data EEPROM Write Protection bit
  3352                           ;	WRTD = OFF, Data EEPROM not Write protected
  3353                           ;	SAF Write protection bit
  3354                           ;	WRTSAF = OFF, SAF not Write Protected
  3355                           ;	Application Block write protection bit
  3356                           ;	WRTAPP = OFF, Application Block not write protected
  3357   300007                     	org	3145735
  3358   300007  FF                 	db	255
  3359                           
  3360                           ; Padding undefined space
  3361   300008                     	org	3145736
  3362   300008  FF                 	db	255
  3363                           
  3364                           ;Config register CONFIG10 @ 0x300009
  3365                           ;	PFM and Data EEPROM Code Protection bit
  3366                           ;	CP = OFF, PFM and Data EEPROM code protection disabled
  3367   300009                     	org	3145737
  3368   300009  FF                 	db	255
  3369                           tosu	equ	0x4FF
  3370                           tosh	equ	0x4FE
  3371                           tosl	equ	0x4FD
  3372                           stkptr	equ	0x4FC
  3373                           pclatu	equ	0x4FB
  3374                           pclath	equ	0x4FA
  3375                           pcl	equ	0x4F9
  3376                           tblptru	equ	0x4F8
  3377                           tblptrh	equ	0x4F7
  3378                           tblptrl	equ	0x4F6
  3379                           tablat	equ	0x4F5
  3380                           prodh	equ	0x4F4
  3381                           prodl	equ	0x4F3
  3382                           indf0	equ	0x4EF
  3383                           postinc0	equ	0x4EE
  3384                           postdec0	equ	0x4ED
  3385                           preinc0	equ	0x4EC
  3386                           plusw0	equ	0x4EB
  3387                           fsr0h	equ	0x4EA
  3388                           fsr0l	equ	0x4E9
  3389                           wreg	equ	0x4E8
  3390                           indf1	equ	0x4E7
  3391                           postinc1	equ	0x4E6
  3392                           postdec1	equ	0x4E5
  3393                           preinc1	equ	0x4E4
  3394                           plusw1	equ	0x4E3
  3395                           fsr1h	equ	0x4E2
  3396                           fsr1l	equ	0x4E1
  3397                           bsr	equ	0x4E0
  3398                           indf2	equ	0x4DF
  3399                           postinc2	equ	0x4DE
  3400                           postdec2	equ	0x4DD
  3401                           preinc2	equ	0x4DC
  3402                           plusw2	equ	0x4DB
  3403                           fsr2h	equ	0x4DA
  3404                           fsr2l	equ	0x4D9
  3405                           status	equ	0x4D8

Data Sizes:
    Strings     0
    Constant    0
    Data        0
    BSS         23
    Persistent  0
    Stack       0

Auto Spaces:
    Space          Size  Autos    Used
    COMRAM           95      8      31
    BANK5           160      0       0
    BANK6           256      0       0
    BANK7           256      0       0
    BANK8           256      0       0
    BANK9           256      0       0
    BANK10          256      0       0
    BANK11          256      0       0
    BANK12          256      0       0
    BANK13          256      0       0
    BANK14          256      0       0
    BANK15          256      0       0
    BANK16          256      0       0
    BANK17          256      0       0
    BANK18          256      0       0
    BANK19          256      0       0
    BANK20          256      0       0
    BANK21          256      0       0
    BANK22          256      0       0
    BANK23          256      0       0
    BANK24          256      0       0
    BANK25          256      0       0
    BANK26          256      0       0
    BANK27          256      0       0
    BANK28          256      0       0
    BANK29          256      0       0
    BANK30          256      0       0
    BANK31          256      0       0
    BANK32          256      0       0
    BANK33          256      0       0
    BANK34          256      0       0
    BANK35          256      0       0
    BANK36          256      0       0

Pointer List with Targets:

    I2C1_SlaveSetBusColIntHandler@handler	PTR FTN()void  size(3) Largest target is 1
		 -> I2C1_SlaveDefBusColInterruptHandler(), 

    I2C1_SlaveBusColInterruptHandler	PTR FTN()void  size(3) Largest target is 1
		 -> Absolute function(), I2C1_SlaveDefBusColInterruptHandler(), 

    I2C1_SlaveSetWrColIntHandler@handler	PTR FTN()void  size(3) Largest target is 1
		 -> I2C1_SlaveDefWrColInterruptHandler(), 

    I2C1_SlaveWrColInterruptHandler	PTR FTN()void  size(3) Largest target is 1
		 -> Absolute function(), I2C1_SlaveDefWrColInterruptHandler(), 

    I2C1_SlaveSetAddrIntHandler@handler	PTR FTN()void  size(3) Largest target is 1
		 -> I2C1_SlaveDefAddrInterruptHandler(), 

    I2C1_SlaveAddrInterruptHandler	PTR FTN()void  size(3) Largest target is 1
		 -> Absolute function(), I2C1_SlaveDefAddrInterruptHandler(), 

    I2C1_SlaveSetWriteIntHandler@handler	PTR FTN()void  size(3) Largest target is 1
		 -> I2C1_SlaveDefWrInterruptHandler(), 

    I2C1_SlaveWrInterruptHandler	PTR FTN()void  size(3) Largest target is 1
		 -> Absolute function(), I2C1_SlaveDefWrInterruptHandler(), 

    I2C1_SlaveSetReadIntHandler@handler	PTR FTN()void  size(3) Largest target is 1
		 -> I2C1_SlaveDefRdInterruptHandler(), 

    I2C1_SlaveRdInterruptHandler	PTR FTN()void  size(3) Largest target is 1
		 -> Absolute function(), I2C1_SlaveDefRdInterruptHandler(), 

    I2C1_SlaveSetIsrHandler@handler	PTR FTN()void  size(3) Largest target is 1
		 -> I2C1_Isr(), 

    I2C1_InterruptHandler	PTR FTN()void  size(3) Largest target is 1
		 -> Absolute function(), I2C1_Isr(), 


Critical Paths under _main in COMRAM

    _I2C1_Open->_I2C1_SlaveSetAddrIntHandler
    _I2C1_Open->_I2C1_SlaveSetBusColIntHandler
    _I2C1_Open->_I2C1_SlaveSetIsrHandler
    _I2C1_Open->_I2C1_SlaveSetReadIntHandler
    _I2C1_Open->_I2C1_SlaveSetWrColIntHandler
    _I2C1_Open->_I2C1_SlaveSetWriteIntHandler

Critical Paths under _INTERRUPT_InterruptManager in COMRAM

    _INTERRUPT_InterruptManager->_I2C1_Isr
    _I2C1_Isr->_I2C1_SlaveSetCounter
    _I2C1_SlaveDefWrInterruptHandler->_I2C1_SlaveSendTxData

Critical Paths under _main in BANK5

    None.

Critical Paths under _INTERRUPT_InterruptManager in BANK5

    None.

Critical Paths under _main in BANK6

    None.

Critical Paths under _INTERRUPT_InterruptManager in BANK6

    None.

Critical Paths under _main in BANK7

    None.

Critical Paths under _INTERRUPT_InterruptManager in BANK7

    None.

Critical Paths under _main in BANK8

    None.

Critical Paths under _INTERRUPT_InterruptManager in BANK8

    None.

Critical Paths under _main in BANK9

    None.

Critical Paths under _INTERRUPT_InterruptManager in BANK9

    None.

Critical Paths under _main in BANK10

    None.

Critical Paths under _INTERRUPT_InterruptManager in BANK10

    None.

Critical Paths under _main in BANK11

    None.

Critical Paths under _INTERRUPT_InterruptManager in BANK11

    None.

Critical Paths under _main in BANK12

    None.

Critical Paths under _INTERRUPT_InterruptManager in BANK12

    None.

Critical Paths under _main in BANK13

    None.

Critical Paths under _INTERRUPT_InterruptManager in BANK13

    None.

Critical Paths under _main in BANK14

    None.

Critical Paths under _INTERRUPT_InterruptManager in BANK14

    None.

Critical Paths under _main in BANK15

    None.

Critical Paths under _INTERRUPT_InterruptManager in BANK15

    None.

Critical Paths under _main in BANK16

    None.

Critical Paths under _INTERRUPT_InterruptManager in BANK16

    None.

Critical Paths under _main in BANK17

    None.

Critical Paths under _INTERRUPT_InterruptManager in BANK17

    None.

Critical Paths under _main in BANK18

    None.

Critical Paths under _INTERRUPT_InterruptManager in BANK18

    None.

Critical Paths under _main in BANK19

    None.

Critical Paths under _INTERRUPT_InterruptManager in BANK19

    None.

Critical Paths under _main in BANK20

    None.

Critical Paths under _INTERRUPT_InterruptManager in BANK20

    None.

Critical Paths under _main in BANK21

    None.

Critical Paths under _INTERRUPT_InterruptManager in BANK21

    None.

Critical Paths under _main in BANK22

    None.

Critical Paths under _INTERRUPT_InterruptManager in BANK22

    None.

Critical Paths under _main in BANK23

    None.

Critical Paths under _INTERRUPT_InterruptManager in BANK23

    None.

Critical Paths under _main in BANK24

    None.

Critical Paths under _INTERRUPT_InterruptManager in BANK24

    None.

Critical Paths under _main in BANK25

    None.

Critical Paths under _INTERRUPT_InterruptManager in BANK25

    None.

Critical Paths under _main in BANK26

    None.

Critical Paths under _INTERRUPT_InterruptManager in BANK26

    None.

Critical Paths under _main in BANK27

    None.

Critical Paths under _INTERRUPT_InterruptManager in BANK27

    None.

Critical Paths under _main in BANK28

    None.

Critical Paths under _INTERRUPT_InterruptManager in BANK28

    None.

Critical Paths under _main in BANK29

    None.

Critical Paths under _INTERRUPT_InterruptManager in BANK29

    None.

Critical Paths under _main in BANK30

    None.

Critical Paths under _INTERRUPT_InterruptManager in BANK30

    None.

Critical Paths under _main in BANK31

    None.

Critical Paths under _INTERRUPT_InterruptManager in BANK31

    None.

Critical Paths under _main in BANK32

    None.

Critical Paths under _INTERRUPT_InterruptManager in BANK32

    None.

Critical Paths under _main in BANK33

    None.

Critical Paths under _INTERRUPT_InterruptManager in BANK33

    None.

Critical Paths under _main in BANK34

    None.

Critical Paths under _INTERRUPT_InterruptManager in BANK34

    None.

Critical Paths under _main in BANK35

    None.

Critical Paths under _INTERRUPT_InterruptManager in BANK35

    None.

Critical Paths under _main in BANK36

    None.

Critical Paths under _INTERRUPT_InterruptManager in BANK36

    None.

Call Graph Tables:

 ---------------------------------------------------------------------------------
 (Depth) Function   	        Calls       Base Space   Used Autos Params    Refs
 ---------------------------------------------------------------------------------
 (0) _main                                                 0     0      0     648
                    _I2C1_Initialize
                          _I2C1_Open
                          _I2C1_Read
                      _I2C1_ReadAddr
                       _I2C1_SendAck
                  _SYSTEM_Initialize
 ---------------------------------------------------------------------------------
 (1) _SYSTEM_Initialize                                    0     0      0       0
                    _I2C1_Initialize
               _INTERRUPT_Initialize
              _OSCILLATOR_Initialize
             _PIN_MANAGER_Initialize
                     _PMD_Initialize
 ---------------------------------------------------------------------------------
 (2) _PMD_Initialize                                       0     0      0       0
 ---------------------------------------------------------------------------------
 (2) _PIN_MANAGER_Initialize                               0     0      0       0
 ---------------------------------------------------------------------------------
 (2) _OSCILLATOR_Initialize                                0     0      0       0
 ---------------------------------------------------------------------------------
 (2) _INTERRUPT_Initialize                                 0     0      0       0
 ---------------------------------------------------------------------------------
 (2) _I2C1_Initialize                                      0     0      0       0
 ---------------------------------------------------------------------------------
 (1) _I2C1_SendAck                                         0     0      0       0
                  _I2C1_SlaveSendAck
 ---------------------------------------------------------------------------------
 (2) _I2C1_SlaveSendAck                                    0     0      0       0
 ---------------------------------------------------------------------------------
 (1) _I2C1_ReadAddr                                        0     0      0       0
                  _I2C1_SlaveGetAddr
 ---------------------------------------------------------------------------------
 (2) _I2C1_SlaveGetAddr                                    0     0      0       0
 ---------------------------------------------------------------------------------
 (1) _I2C1_Read                                            0     0      0       0
                _I2C1_SlaveGetRxData
 ---------------------------------------------------------------------------------
 (2) _I2C1_SlaveGetRxData                                  0     0      0       0
 ---------------------------------------------------------------------------------
 (1) _I2C1_Open                                            0     0      0     648
                _I2C1_SlaveEnableIrq
                     _I2C1_SlaveOpen
        _I2C1_SlaveSetAddrIntHandler
      _I2C1_SlaveSetBusColIntHandler
            _I2C1_SlaveSetIsrHandler
        _I2C1_SlaveSetReadIntHandler
             _I2C1_SlaveSetSlaveAddr
             _I2C1_SlaveSetSlaveMask
       _I2C1_SlaveSetWrColIntHandler
       _I2C1_SlaveSetWriteIntHandler
 ---------------------------------------------------------------------------------
 (2) _I2C1_SlaveSetWriteIntHandler                         3     0      3      98
                                              5 COMRAM     3     0      3
 ---------------------------------------------------------------------------------
 (2) _I2C1_SlaveSetWrColIntHandler                         3     0      3      98
                                              5 COMRAM     3     0      3
 ---------------------------------------------------------------------------------
 (2) _I2C1_SlaveSetSlaveMask                               1     1      0      30
                                              5 COMRAM     1     1      0
 ---------------------------------------------------------------------------------
 (2) _I2C1_SlaveSetSlaveAddr                               1     1      0      30
                                              5 COMRAM     1     1      0
 ---------------------------------------------------------------------------------
 (2) _I2C1_SlaveSetReadIntHandler                          3     0      3      98
                                              5 COMRAM     3     0      3
 ---------------------------------------------------------------------------------
 (2) _I2C1_SlaveSetIsrHandler                              3     0      3      98
                                              5 COMRAM     3     0      3
 ---------------------------------------------------------------------------------
 (2) _I2C1_SlaveSetBusColIntHandler                        3     0      3      98
                                              5 COMRAM     3     0      3
 ---------------------------------------------------------------------------------
 (2) _I2C1_SlaveSetAddrIntHandler                          3     0      3      98
                                              5 COMRAM     3     0      3
 ---------------------------------------------------------------------------------
 (2) _I2C1_SlaveOpen                                       0     0      0       0
 ---------------------------------------------------------------------------------
 (2) _I2C1_SlaveEnableIrq                                  0     0      0       0
 ---------------------------------------------------------------------------------
 Estimated maximum stack depth 2
 ---------------------------------------------------------------------------------
 (Depth) Function   	        Calls       Base Space   Used Autos Params    Refs
 ---------------------------------------------------------------------------------
 (3) _INTERRUPT_InterruptManager                           2     2      0      30
                                              3 COMRAM     2     2      0
                   Absolute function *
                           _I2C1_Isr *
 ---------------------------------------------------------------------------------
 (4) _I2C1_Isr                                             2     2      0      30
                                              1 COMRAM     2     2      0
             _I2C1_SlaveAddrCallBack
                _I2C1_SlaveClearBuff
                 _I2C1_SlaveClearIrq
                   _I2C1_SlaveIsAddr
                   _I2C1_SlaveIsRead
              _I2C1_SlaveIsRxBufFull
                   _I2C1_SlaveIsStop
             _I2C1_SlaveIsTxBufEmpty
               _I2C1_SlaveRdCallBack
             _I2C1_SlaveReleaseClock
               _I2C1_SlaveSetCounter
               _I2C1_SlaveWrCallBack
 ---------------------------------------------------------------------------------
 (5) _I2C1_SlaveWrCallBack                                 0     0      0      15
                   Absolute function *
    _I2C1_SlaveDefWrInterruptHandler *
 ---------------------------------------------------------------------------------
 (6) _I2C1_SlaveDefWrInterruptHandler                      0     0      0      15
               _I2C1_SlaveSendTxData
 ---------------------------------------------------------------------------------
 (7) _I2C1_SlaveSendTxData                                 1     1      0      15
                                              0 COMRAM     1     1      0
 ---------------------------------------------------------------------------------
 (5) _I2C1_SlaveSetCounter                                 1     1      0      15
                                              0 COMRAM     1     1      0
 ---------------------------------------------------------------------------------
 (5) _I2C1_SlaveReleaseClock                               0     0      0       0
 ---------------------------------------------------------------------------------
 (5) _I2C1_SlaveRdCallBack                                 0     0      0       0
                   Absolute function *
    _I2C1_SlaveDefRdInterruptHandler *
 ---------------------------------------------------------------------------------
 (6) _I2C1_SlaveDefRdInterruptHandler                      0     0      0       0
              i2_I2C1_SlaveGetRxData
 ---------------------------------------------------------------------------------
 (7) i2_I2C1_SlaveGetRxData                                0     0      0       0
 ---------------------------------------------------------------------------------
 (5) _I2C1_SlaveIsTxBufEmpty                               0     0      0       0
 ---------------------------------------------------------------------------------
 (5) _I2C1_SlaveIsStop                                     0     0      0       0
 ---------------------------------------------------------------------------------
 (5) _I2C1_SlaveIsRxBufFull                                0     0      0       0
 ---------------------------------------------------------------------------------
 (5) _I2C1_SlaveIsRead                                     0     0      0       0
 ---------------------------------------------------------------------------------
 (5) _I2C1_SlaveIsAddr                                     0     0      0       0
 ---------------------------------------------------------------------------------
 (5) _I2C1_SlaveClearIrq                                   0     0      0       0
 ---------------------------------------------------------------------------------
 (5) _I2C1_SlaveClearBuff                                  0     0      0       0
 ---------------------------------------------------------------------------------
 (5) _I2C1_SlaveAddrCallBack                               0     0      0       0
                   Absolute function *
  _I2C1_SlaveDefAddrInterruptHandler *
 ---------------------------------------------------------------------------------
 (6) _I2C1_SlaveDefAddrInterruptHandler                    0     0      0       0
                i2_I2C1_SlaveGetAddr
 ---------------------------------------------------------------------------------
 (7) i2_I2C1_SlaveGetAddr                                  0     0      0       0
 ---------------------------------------------------------------------------------
 (6) Absolute function(Fake)                               0     0      0       0
 ---------------------------------------------------------------------------------
 Estimated maximum stack depth 7
 ---------------------------------------------------------------------------------

 Call Graph Graphs:

 _main (ROOT)
   _I2C1_Initialize
   _I2C1_Open
     _I2C1_SlaveEnableIrq
     _I2C1_SlaveOpen
     _I2C1_SlaveSetAddrIntHandler
     _I2C1_SlaveSetBusColIntHandler
     _I2C1_SlaveSetIsrHandler
     _I2C1_SlaveSetReadIntHandler
     _I2C1_SlaveSetSlaveAddr
     _I2C1_SlaveSetSlaveMask
     _I2C1_SlaveSetWrColIntHandler
     _I2C1_SlaveSetWriteIntHandler
   _I2C1_Read
     _I2C1_SlaveGetRxData
   _I2C1_ReadAddr
     _I2C1_SlaveGetAddr
   _I2C1_SendAck
     _I2C1_SlaveSendAck
   _SYSTEM_Initialize
     _I2C1_Initialize
     _INTERRUPT_Initialize
     _OSCILLATOR_Initialize
     _PIN_MANAGER_Initialize
     _PMD_Initialize

 _INTERRUPT_InterruptManager (ROOT)
   Absolute function(Fake) *
   _I2C1_Isr *
     _I2C1_SlaveAddrCallBack
       Absolute function(Fake) *
       _I2C1_SlaveDefAddrInterruptHandler *
         i2_I2C1_SlaveGetAddr
     _I2C1_SlaveClearBuff
     _I2C1_SlaveClearIrq
     _I2C1_SlaveIsAddr
     _I2C1_SlaveIsRead
     _I2C1_SlaveIsRxBufFull
     _I2C1_SlaveIsStop
     _I2C1_SlaveIsTxBufEmpty
     _I2C1_SlaveRdCallBack
       Absolute function(Fake) *
       _I2C1_SlaveDefRdInterruptHandler *
         i2_I2C1_SlaveGetRxData
     _I2C1_SlaveReleaseClock
     _I2C1_SlaveSetCounter
     _I2C1_SlaveWrCallBack
       Absolute function(Fake) *
       _I2C1_SlaveDefWrInterruptHandler *
         _I2C1_SlaveSendTxData

 Address spaces:
Name               Size   Autos  Total    Cost      Usage
BIGRAM            1FFF      0       0      69        0.0%
EEDATA             400      0       0       0        0.0%
BITBIGSFRhhllll    164      0       0      81        0.0%
BITBIGSFRlllllh    160      0       0      86        0.0%
BITBIGSFR_1        100      0       0      68        0.0%
BITBANK36          100      0       0      66        0.0%
BANK36             100      0       0      67        0.0%
BITBANK35          100      0       0      64        0.0%
BANK35             100      0       0      65        0.0%
BITBANK34          100      0       0      62        0.0%
BANK34             100      0       0      63        0.0%
BITBANK33          100      0       0      60        0.0%
BANK33             100      0       0      61        0.0%
BITBANK32          100      0       0      58        0.0%
BANK32             100      0       0      59        0.0%
BITBANK31          100      0       0      56        0.0%
BANK31             100      0       0      57        0.0%
BITBANK30          100      0       0      54        0.0%
BANK30             100      0       0      55        0.0%
BITBANK29          100      0       0      52        0.0%
BANK29             100      0       0      53        0.0%
BITBANK28          100      0       0      50        0.0%
BANK28             100      0       0      51        0.0%
BITBANK27          100      0       0      48        0.0%
BANK27             100      0       0      49        0.0%
BITBANK26          100      0       0      46        0.0%
BANK26             100      0       0      47        0.0%
BITBANK25          100      0       0      44        0.0%
BANK25             100      0       0      45        0.0%
BITBANK24          100      0       0      42        0.0%
BANK24             100      0       0      43        0.0%
BITBANK23          100      0       0      40        0.0%
BANK23             100      0       0      41        0.0%
BITBANK22          100      0       0      38        0.0%
BANK22             100      0       0      39        0.0%
BITBANK21          100      0       0      36        0.0%
BANK21             100      0       0      37        0.0%
BITBANK20          100      0       0      34        0.0%
BANK20             100      0       0      35        0.0%
BITBANK19          100      0       0      32        0.0%
BANK19             100      0       0      33        0.0%
BITBANK18          100      0       0      30        0.0%
BANK18             100      0       0      31        0.0%
BITBANK17          100      0       0      28        0.0%
BANK17             100      0       0      29        0.0%
BITBANK16          100      0       0      26        0.0%
BANK16             100      0       0      27        0.0%
BITBANK15          100      0       0      24        0.0%
BANK15             100      0       0      25        0.0%
BITBANK14          100      0       0      22        0.0%
BANK14             100      0       0      23        0.0%
BITBANK13          100      0       0      20        0.0%
BANK13             100      0       0      21        0.0%
BITBANK12          100      0       0      18        0.0%
BANK12             100      0       0      19        0.0%
BITBANK11          100      0       0      16        0.0%
BANK11             100      0       0      17        0.0%
BITBANK10          100      0       0      14        0.0%
BANK10             100      0       0      15        0.0%
BITBANK9           100      0       0      12        0.0%
BANK9              100      0       0      13        0.0%
BITBANK8           100      0       0      10        0.0%
BANK8              100      0       0      11        0.0%
BITBANK7           100      0       0       8        0.0%
BANK7              100      0       0       9        0.0%
BITBANK6           100      0       0       6        0.0%
BANK6              100      0       0       7        0.0%
BITBANK5            A0      0       0       4        0.0%
BANK5               A0      0       0       5        0.0%
BITBIGSFRhhlhhh     78      0       0      75        0.0%
BITBIGSFRllllll     60      0       0      91        0.0%
BITCOMRAM           5F      0       0       0        0.0%
COMRAM              5F      8      1F       1       32.6%
BITBIGSFRllllh      5A      0       0      85        0.0%
BITBIGSFRllllll     43      0       0      89        0.0%
BITBIGSFRhhhh       29      0       0      70        0.0%
BITBIGSFRlllh       14      0       0      84        0.0%
BITBIGSFRhhhll       F      0       0      74        0.0%
BITBIGSFRhhhlhh      A      0       0      71        0.0%
BITBIGSFRhhhlhl      8      0       0      73        0.0%
BITBIGSFRhhllll      3      0       0      80        0.0%
BITBIGSFRhhlhhl      3      0       0      76        0.0%
BITBIGSFRhhlllh      3      0       0      79        0.0%
BITBIGSFRhhllh       3      0       0      78        0.0%
BITBIGSFRhhlhl       3      0       0      77        0.0%
BITBIGSFRhhhlhh      2      0       0      72        0.0%
BITBIGSFRllllll      1      0       0      90        0.0%
BITBIGSFRlllllh      1      0       0      87        0.0%
BITBIGSFRlllllh      1      0       0      88        0.0%
BITBIGSFRllhh        1      0       0      83        0.0%
BITBIGSFRlhl         1      0       0      82        0.0%
BIGSFR_1             0      0       0     200        0.0%
BIGSFR               0      0       0     200        0.0%
BITSFR_6             0      0       0     200        0.0%
SFR_6                0      0       0     200        0.0%
BITSFR_5             0      0       0     200        0.0%
SFR_5                0      0       0     200        0.0%
BITSFR_4             0      0       0     200        0.0%
SFR_4                0      0       0     200        0.0%
BITSFR_3             0      0       0     200        0.0%
SFR_3                0      0       0     200        0.0%
BITSFR_2             0      0       0     200        0.0%
SFR_2                0      0       0     200        0.0%
BITSFR_1             0      0       0     200        0.0%
SFR_1                0      0       0     200        0.0%
BITSFR               0      0       0     200        0.0%
SFR                  0      0       0     200        0.0%
STACK                0      0       0       2        0.0%
NULL                 0      0       0       0        0.0%
ABS                  0      0      1F      92        0.0%
DATA                 0      0      1F       3        0.0%
CODE                 0      0       0       0        0.0%


Microchip Technology PIC18 Macro Assembler V2.40 build 20220703182018 
Symbol Table                                                                                   Wed Jan 25 17:08:54 2023

                 ??_I2C1_SlaveAddrCallBack 0518                                         u10 04F2  
                                       u11 04EE                            ??_I2C1_ReadAddr 051D  
                                      l300 0586                                        l150 05D0  
                                      l303 05CA                                        l135 045C  
                                      l240 04F4                                        l144 05D6  
                                      l209 057E                                        l138 031E  
                                      l219 0546                                        l252 052A  
                                      l229 0570                                        l333 05F2  
                                      l246 0518                                        l159 05C4  
                                      l511 0406                                        l249 0506  
                                      l505 0472                                        l186 0562  
                                      l508 0442                                        l189 0554  
                                      l199 0538                                        l297 05DC  
                                      l449 01FC                                        u350 0342  
                                      u351 033E                   __end_of_I2C1_SlaveIsAddr 04E2  
                 __end_of_I2C1_SlaveIsRead 04CC                   __end_of_I2C1_SlaveIsStop 04A0  
                                      tosl 0004FD                                        wreg 0004E8  
                                     l1240 0444                                       l1320 016C  
                                     l1250 04F8                                       l1242 0452  
                                     l1330 0180                                       l1322 016E  
                                     l1244 04E2                                       l1316 05F0  
                                     l1340 01D2                                       l1332 0186  
                                     l1324 0170                                       l1246 04F2  
                                     l1270 0580                                       l1350 01E0  
                                     l1342 01D4                                       l1334 0188  
                                     l1326 0176                                       l1318 0150  
                                     l1264 051A                                       l1248 050A  
                                     l1352 01E2                                       l1344 01DA  
                                     l1336 01CE                                       l1328 0178  
                                     l1266 05D8                                       l1354 01E8  
                                     l1346 01DC                                       l1338 01D0  
                                     l1450 046A                                       l1348 01DE  
                                     l1356 03E4                                       l1452 046E  
                                     l1444 045E                                       l1550 0556  
                                     l1382 05CC                                       l1278 05C6  
                                     l1358 0428                                       l1446 0462  
                                     l1552 0564                                       l1560 053A  
                                     l1448 0466                           __end_of_I2C1_Isr 0150  
                                     l1554 052C                                       l1570 02CA  
                                     l1562 02AA                                       l1378 05D2  
                                     l1386 05C0                                       l1556 0548  
                                     l1572 02DA                                       l1564 02AE  
                                     l1580 0320                                       l1558 0572  
                                     l1574 02EA                                       l1566 02B4  
                                     l1590 0346                                       l1582 0328  
                                     l1576 02FA                                       l1568 02BA  
                                     l1584 032A                                       l1578 030A  
                                     l1586 032E                                       l1588 0342  
                                     _LATA 0004BE                                       _LATB 0004BF  
                                     _LATC 0004C0                                       _LATD 0004C1  
                                     _LATE 0004C2                                       _LATF 0004C3  
                                     _PMD0 000060                                       _PMD1 000061  
                                     _PMD3 000063                                       _PMD4 000064  
                                     _PMD5 000065                                       _PMD6 000066  
                                     _PMD7 000067                                       _PMD8 000068  
                                     _WPUA 000401                                       _WPUB 000409  
                                     _WPUC 000411                                       _WPUD 000419  
                                     _WPUE 000421                                       _WPUF 000429  
                                     _main 0320         I2C1_SlaveSetAddrIntHandler@handler 051D  
                                     start 001A                                 _i2c1RdData 0516  
                             ___param_bank 000000                                 _i2c1WrData 0517  
       I2C1_SlaveSetReadIntHandler@handler 051D               _I2C1_SlaveRdInterruptHandler 050D  
             _I2C1_SlaveWrInterruptHandler 050A                           ??_I2C1_SlaveOpen 051D  
            __end_of_OSCILLATOR_Initialize 0444                          __end_of_I2C1_Read 05D8  
                        __end_of_I2C1_Open 0320                                      ?_main 0518  
                                    i2l203 0382                                      i2l300 05BE  
                                    i2l213 03E2                                      i2l206 058E  
                                    i2l216 05B6                                      i2l340 0260  
                                    i2l341 02A0                                      i2l270 05EE  
                                    i2l342 0280                                      i2l255 04E0  
                                    i2l183 014E                                      i2l273 05AE  
                                    i2l193 03B2                                      i2l258 04CA  
                                    i2l346 02A0                                      i2l338 0240  
                                    i2l291 04B4                                      i2l267 049E  
                                    i2l196 05A6                                      i2l276 059E  
                                    i2l285 0488                                      i2l294 0596  
                                    i2l279 05E2                                      i2l297 05E8  
                                    _OSCEN 0000B3                                      _TRISA 0004C6  
                                    _TRISB 0004C7                                      _TRISC 0004C8  
                                    _TRISD 0004C9                                      _TRISE 0004CA  
                                    _TRISF 0004CB                          ??_I2C1_Initialize 051D  
           I2C1_SlaveSetSlaveMask@maskAddr 051D                             _i2c1SlaveState 0514  
                                    pclath 0004FA                                      pclatu 0004FB  
                    i2_I2C1_SlaveGetRxData 05E4                                      status 0004D8  
                          __initialization 0408                               __end_of_main 0354  
                    _I2C1_InterruptHandler 0510                ?_INTERRUPT_InterruptManager 0518  
                                   ??_main 0520                         _I2C1_SlaveClearIrq 05A8  
                            __activetblptr 000003                        ?_I2C1_SlaveClearIrq 0518  
                                   _ACTCON 0000AC                    ?_I2C1_SlaveReleaseClock 0518  
                                   _ANSELA 000400                                     _ANSELB 000408  
                                   _ANSELC 000410                                     _ANSELD 000418  
                                   _ANSELE 000420                                     _ANSELF 000428  
                                   _RB1I2C 000289                                     _RB2I2C 000288  
                                   _RC3I2C 000287                                     _RC4I2C 000286  
                                   _RC3PPS 000214                                     _RC4PPS 000215  
                                   _ODCONA 000402                                     _ODCONB 00040A  
                                   _ODCONC 000412                                     _ODCOND 00041A  
                                   _ODCONE 000422                                     _ODCONF 00042A  
                                   i2l1300 0474                                     i2l1230 05B8  
                                   i2l1312 0384                                     i2l1224 0592  
                                   i2l1304 0354                                     i2l1400 004C  
                                   i2l1226 05E4                                     i2l1234 05A0  
                                   i2l1314 0398                                     i2l1306 0368  
                                   i2l1410 009C                                     i2l1402 0064  
                                   i2l1308 04A0                                     i2l1236 0588  
                                   i2l1420 00C8                                     i2l1412 00A4  
                                   i2l1404 0078                                     i2l1500 0206  
                                   i2l1238 05B0                                     i2l1430 00F4  
                                   i2l1422 00D0                                     i2l1414 00AC  
                                   i2l1406 0080                                     i2l1510 026E  
                                   i2l1502 0214                                     i2l1280 048A  
                                   i2l1432 0108                                     i2l1424 00D4  
                                   i2l1416 00B0                                     i2l1408 0088  
                                   i2l1504 0222                                     i2l1274 04B6  
                                   i2l1290 05DE                                     i2l1426 00DC  
                                   i2l1418 00B4                                     i2l1514 028E  
                                   i2l1506 024E                                     i2l1284 05A8  
                                   i2l1292 04CC                                     i2l1612 0124  
                                   i2l1436 0110                                     i2l1286 05EA  
                                   i2l1438 014A                                     i2l1390 0032  
                                   i2l1296 03B4                                     i2l1288 059A  
                                   i2l1392 0036                                     i2l1298 03C8  
                                   i2l1394 003A                                     i2l1396 0040  
                                   i2l1388 001E                                     i2l1398 0044  
                                   _INLVLA 000404                                     _INLVLB 00040C  
                                   _INLVLC 000414                                     _INLVLD 00041C  
                                   _INLVLE 000424                                     _INLVLF 00042C  
                                   _OSCFRQ 0000B1                                     i2u2_40 04C8  
                                   i2u2_41 04C2                                     i2u2_46 04CA  
                                   i2u3_40 049C                                     i2u3_41 0496  
                                   i2u3_46 049E                                     i2u4_40 04DE  
                                   i2u4_41 04D8                                     i2u5_40 04E0  
                                   i2u6_40 03C8                                     i2u6_41 03C4  
                                   i2u7_48 03CE                                     i2u8_40 0486  
                                   i2u7_49 03E2                                     i2u8_41 0480  
                                   i2u8_46 0488                                     i2u9_40 0368  
                                   i2u9_41 0364                       ??_I2C1_SlaveClearIrq 0518  
                                   clear_0 040E                                  ?_I2C1_Isr 0518  
                  ?_I2C1_SlaveSetSlaveAddr 0518                                     isa$std 000001  
                  ?_I2C1_SlaveSetSlaveMask 0518                             _PMD_Initialize 03E4  
     __end_of_I2C1_SlaveSetWrColIntHandler 0548               _I2C1_SlaveSetWrColIntHandler 053A  
     I2C1_SlaveSetBusColIntHandler@handler 051D             __end_of_I2C1_SlaveReleaseClock 05E4  
                   _I2C1_SlaveAddrCallBack 03B4                     ?i2_I2C1_SlaveGetRxData 0518  
                        _SYSTEM_Initialize 045E                                 __accesstop 0560  
                  __end_of__initialization 0422        I2C1_SlaveSetWrColIntHandler@handler 051D  
                       ?_SYSTEM_Initialize 0518                              ___rparam_used 000001  
                           __pcstackCOMRAM 0518                        ??_SYSTEM_Initialize 051D  
           __end_of_I2C1_SlaveSetSlaveAddr 051A                        i2_I2C1_SlaveGetAddr 05B8  
           __end_of_I2C1_SlaveSetSlaveMask 0508                                 ??_I2C1_Isr 0519  
                   __end_of_PMD_Initialize 0408                          ?_I2C1_SlaveIsAddr 0518  
                        ?_I2C1_SlaveIsRead 0518                          ?_I2C1_SlaveIsStop 0518  
                       ??_I2C1_SlaveIsAddr 0518                         ??_I2C1_SlaveIsRead 0518  
                       ??_I2C1_SlaveIsStop 0518                        _I2C1_SlaveClearBuff 05EA  
                __end_of_SYSTEM_Initialize 0474                       ?i2_I2C1_SlaveGetAddr 0518  
                      _I2C1_SlaveEnableIrq 051A                        _I2C1_SlaveGetRxData 05D8  
                    _I2C1_SlaveIsRxBufFull 04A0                                    IVTBASEH 00045E  
                                  IVTBASEL 00045D                                    IVTBASEU 00045F  
            ?_I2C1_SlaveSetWriteIntHandler 051D                       ?_I2C1_SlaveClearBuff 0518  
                                  _I2C1CNT 00028D                                    _I2C1PIR 00029A  
                                  _I2C1RXB 00028B                                    _I2C1TXB 00028C  
                          _I2C1_Initialize 0444                       ?_I2C1_SlaveEnableIrq 0518  
                     ?_I2C1_SlaveGetRxData 0518                            ?_PMD_Initialize 0518  
                    __end_of_I2C1_ReadAddr 05D2                                  _I2C1_Read 05D2  
                                  _OSCCON1 0000AD                                    _OSCCON3 0000AF  
                                _I2C1_Open 02AA                                    i2u11_40 04B2  
                                  i2u10_48 036E                                    i2u11_41 04AC  
                                  i2u10_49 0382                                    i2u11_46 04B4  
                                  i2u12_40 0398                                    i2u20_40 0108  
                                  i2u12_41 0394                                    i2u20_41 0104  
                                  i2u13_48 039E                                    i2u14_40 0032  
                                  i2u30_40 026E                                    i2u13_49 03B2  
                                  i2u14_41 002E                                    i2u30_41 026A  
                                  i2u15_40 0064                                    i2u31_40 027C  
                                  i2u15_41 0060                                    i2u31_41 0278  
                                  i2u16_40 0078                                    i2u32_40 028E  
                                  i2u16_41 0074                                    i2u32_41 028A  
                                  i2u17_40 009C                                    i2u33_40 029C  
                                  i2u25_40 0214                                    i2u17_41 0098  
                                  i2u33_41 0298                                    i2u25_41 0210  
                                  i2u18_40 00C8                                    i2u26_40 0222  
                                  i2u18_41 00C4                                    i2u26_41 021E  
                                  i2u19_40 00F0                                    i2u19_41 00EC  
                                  i2u28_40 024E                                    i2u27_48 0228  
                                  i2u28_41 024A                                    i2u27_49 023C  
                                  i2u29_40 025C                                    i2u29_41 0258  
                                  _OSCTUNE 0000B0                                    _SLRCONA 000403  
                                  _SLRCONB 00040B                                    _SLRCONC 000413  
                                  _SLRCOND 00041B                                    _SLRCONE 000423  
                                  _SLRCONF 00042B                      ??i2_I2C1_SlaveGetAddr 0518  
                 ?_I2C1_SlaveSetIsrHandler 051D             ?_I2C1_SlaveSetBusColIntHandler 051D  
                                  _Receive 0513                                    __Hparam 0000  
                                  __Lparam 0000                      ??_I2C1_SlaveClearBuff 0518  
                    ??_I2C1_SlaveEnableIrq 051D                      ??_I2C1_SlaveGetRxData 051D  
                                  __pcinit 0408                                    __ramtop 2600  
                                  __ptext0 0320                                    __ptext1 045E  
                                  __ptext2 03E4                                    __ptext3 0150  
                                  __ptext4 0428                                    __ptext5 05F0  
                                  __ptext6 0444                                    __ptext7 05C0  
                                  __ptext8 05C6                                    __ptext9 05CC  
           _I2C1_SlaveAddrInterruptHandler 0507                      _OSCILLATOR_Initialize 0428  
                              _I2C1ERRbits 000297            I2C1_SlaveSetSlaveAddr@slaveAddr 051D  
                 ??_PIN_MANAGER_Initialize 051D                                _I2C1PIEbits 00029B  
                               ?_I2C1_Read 0518                                 ?_I2C1_Open 0518  
                 ??_I2C1_SlaveIsTxBufEmpty 0518                                _I2C1PIRbits 00029A  
                     end_of_initialization 0422                              ?_I2C1_SendAck 0518  
                   ?_I2C1_SlaveIsRxBufFull 0518            _I2C1_SlaveWrColInterruptHandler 0501  
                  __end_of_I2C1_Initialize 045E               __end_of_I2C1_SlaveRdCallBack 03B4  
                                  postinc0 0004EE             ??_I2C1_SlaveSetWriteIntHandler 0520  
          __end_of_I2C1_SlaveSetIsrHandler 0564                    ?_I2C1_SlaveAddrCallBack 0518  
                  ??i2_I2C1_SlaveGetRxData 0518             I2C1_SlaveSetIsrHandler@handler 051D  
                           ??_I2C1_SendAck 051D                I2C1_SlaveSetCounter@counter 0518  
             __end_of_INTERRUPT_Initialize 05F4                              _i2c1SlaveAddr 0515  
                   ?_OSCILLATOR_Initialize 0518             __end_of_I2C1_SlaveAddrCallBack 03E4  
             __end_of_I2C1_SlaveSetCounter 05A0               __end_of_I2C1_SlaveSendTxData 0598  
                      start_initialization 0408                                ??_I2C1_Read 051D  
                              ??_I2C1_Open 0520               __end_of_I2C1_SlaveWrCallBack 0384  
                               ivt0x8_base 0008                          _I2C1_SlaveGetAddr 0580  
                       ?_I2C1_SlaveGetAddr 0518                   I2C1_SlaveSendTxData@data 0518  
                        _I2C1_SlaveSendAck 05C6                           ?_I2C1_Initialize 0518  
                       ?_I2C1_SlaveSendAck 0518                        ??_I2C1_SlaveGetAddr 051D  
                         ??_PMD_Initialize 051D                        ??_I2C1_SlaveSendAck 051D  
       fp__I2C1_SlaveDefRdInterruptHandler 0000    __end_of_I2C1_SlaveDefRdInterruptHandler 05A8  
        ??_I2C1_SlaveDefRdInterruptHandler 0518           ?_I2C1_SlaveDefRdInterruptHandler 0518  
          _I2C1_SlaveDefRdInterruptHandler 05A0         fp__I2C1_SlaveDefWrInterruptHandler 0000  
  __end_of_I2C1_SlaveDefWrInterruptHandler 0590          ??_I2C1_SlaveDefWrInterruptHandler 0519  
         ?_I2C1_SlaveDefWrInterruptHandler 0518            _I2C1_SlaveDefWrInterruptHandler 0588  
                              __pbssCOMRAM 0501                       _I2C1_SlaveRdCallBack 0384  
                __end_of_I2C1_SlaveGetAddr 0588               ?_I2C1_SlaveSetAddrIntHandler 051D  
                __end_of_I2C1_SlaveSendAck 05CC                     _PIN_MANAGER_Initialize 0150  
                   _I2C1_SlaveIsTxBufEmpty 0474               ?_I2C1_SlaveSetReadIntHandler 051D  
                                 _I2C1ADB0 00028E                                   _I2C1ADR0 000290  
                                 _I2C1ADR1 000291                                   _I2C1ADR2 000292  
                                 _I2C1ADR3 000293                                   _I2C1CON0 000294  
                                 _I2C1CON1 000295                                   _I2C1CON2 000296  
          ??_I2C1_SlaveSetBusColIntHandler 0520                                   _I2C1_Isr 001E  
             ??_INTERRUPT_InterruptManager 051B                       __end_of_I2C1_SendAck 05C6  
                 ??_I2C1_SlaveReleaseClock 0518                __end_ofi2_I2C1_SlaveGetAddr 05C0  
      __end_of_I2C1_SlaveSetAddrIntHandler 0580                _I2C1_SlaveSetAddrIntHandler 0572  
                           _I2C1_SlaveOpen 04E2                      ?_I2C1_SlaveRdCallBack 0518  
                  ??_I2C1_SlaveIsRxBufFull 0518              ?_I2C1_SlaveSetWrColIntHandler 051D  
                     _INTERRUPT_Initialize 05F0                                 _I2C1SDAPPS 000270  
                               _I2C1SCLPPS 000271              ??_I2C1_SlaveSetAddrIntHandler 0520  
              __end_of_I2C1_SlaveClearBuff 05F0                                   _PIE7bits 0004A5  
                 ??_I2C1_SlaveSetSlaveAddr 051D        __end_of_I2C1_SlaveSetReadIntHandler 0556  
              _I2C1_SlaveSetReadIntHandler 0548                   ??_I2C1_SlaveSetSlaveMask 051D  
              __end_of_I2C1_SlaveEnableIrq 052C                       _I2C1_SlaveSetCounter 0598  
                            _I2C1STAT0bits 000298                              _I2C1STAT1bits 000299  
              __end_of_I2C1_SlaveGetRxData 05DE                       _I2C1_SlaveSendTxData 0590  
                                 _PIR7bits 0004B5                       _I2C1_SlaveWrCallBack 0354  
            ??_I2C1_SlaveSetReadIntHandler 0520                     __end_of_I2C1_SlaveOpen 04F6  
         _I2C1_SlaveBusColInterruptHandler 0504              __end_ofi2_I2C1_SlaveGetRxData 05EA  
                              _INTCON0bits 0004D6                      ?_INTERRUPT_Initialize 0518  
       _I2C1_SlaveDefWrColInterruptHandler 000000       fp__I2C1_SlaveDefAddrInterruptHandler 0000  
__end_of_I2C1_SlaveDefAddrInterruptHandler 05B8        ??_I2C1_SlaveDefAddrInterruptHandler 0518  
       ?_I2C1_SlaveDefAddrInterruptHandler 0518          _I2C1_SlaveDefAddrInterruptHandler 05B0  
                         _I2C1_SlaveIsAddr 04CC                           _I2C1_SlaveIsRead 04B6  
                         _I2C1_SlaveIsStop 048A                      ?_I2C1_SlaveSetCounter 0518  
                                 __Hrparam 0000                      ?_I2C1_SlaveSendTxData 0518  
                                 __Lrparam 0000                      ?_I2C1_SlaveWrCallBack 0518  
                  ??_OSCILLATOR_Initialize 051D        _I2C1_SlaveDefBusColInterruptHandler 000000  
                          ?_I2C1_SlaveOpen 0518                     ??_I2C1_SlaveRdCallBack 0518  
    __end_of_I2C1_SlaveSetBusColIntHandler 0572              _I2C1_SlaveSetBusColIntHandler 0564  
                             _I2C1CON0bits 000294                               _I2C1CON1bits 000295  
                            _I2C1_ReadAddr 05CC                                   __pivt0x8 0008  
                              fp__I2C1_Isr 0000                                   __ptext10 0580  
                                 __ptext11 05D2                                   __ptext20 0564  
                                 __ptext12 05D8                                   __ptext21 0572  
                                 __ptext13 02AA                                   __ptext30 05DE  
                                 __ptext22 04E2                                   __ptext14 052C  
                                 __ptext31 0384                                   __ptext23 051A  
                                 __ptext15 053A                                   __ptext40 05EA  
                                 __ptext32 05A0                                   __ptext24 01FE  
                                 __ptext16 04F6                                   __ptext41 03B4  
                                 __ptext33 05E4                                   __ptext25 001E  
                                 __ptext17 0508                                   __ptext42 05B0  
                                 __ptext34 0474                                   __ptext26 0354  
                                 __ptext18 0548                                   __ptext43 05B8  
                                 __ptext35 048A                                   __ptext27 0588  
                                 __ptext19 0556                                   __ptext44 0000  
                                 __ptext36 04A0                                   __ptext28 0590  
                                 __ptext37 04B6                                   __ptext29 0598  
                                 __ptext38 04CC                                   __ptext39 05A8  
     __end_of_I2C1_SlaveSetWriteIntHandler 053A               _I2C1_SlaveSetWriteIntHandler 052C  
           ??_I2C1_SlaveSetWrColIntHandler 0520                 __end_of_I2C1_SlaveClearIrq 05B0  
                  _I2C1_SlaveSetIsrHandler 0556                                   isa$xinst 000000  
       __end_of_INTERRUPT_InterruptManager 02AA                 _INTERRUPT_InterruptManager 01FE  
                           ?_I2C1_ReadAddr 0518                     ??_INTERRUPT_Initialize 051D  
                                 intlevel2 0000                     _I2C1_SlaveReleaseClock 05DE  
                  ?_PIN_MANAGER_Initialize 0518                               _I2C1_SendAck 05C0  
                  ?_I2C1_SlaveIsTxBufEmpty 0518                     ??_I2C1_SlaveSetCounter 0518  
                   ??_I2C1_SlaveSendTxData 0518                     ??_I2C1_SlaveWrCallBack 0519  
      I2C1_SlaveSetWriteIntHandler@handler 051D                     _I2C1_SlaveSetSlaveAddr 0508  
                   _I2C1_SlaveSetSlaveMask 04F6             __end_of_PIN_MANAGER_Initialize 01FE  
           __end_of_I2C1_SlaveIsTxBufEmpty 048A              __end_of_I2C1_SlaveIsRxBufFull 04B6  
                ??_I2C1_SlaveSetIsrHandler 0520  
