

Microchip MPLAB XC8 Assembler V2.40 build 20220703182018 
                                                                                               Mon Nov 28 17:07:16 2022

Microchip MPLAB XC8 C Compiler v2.40 (Free license) build 20220703182018 Og1 
     1                           	processor	18F57Q43
     2                           	fnconf	rparam,??,?,0
     3                           	pagewidth 120
     4                           	opt	flic
     5                           	psect	idataBANK6,global,class=CODE,delta=1,noexec
     6                           	psect	cinit,global,reloc=2,class=CODE,delta=1
     7                           	psect	dataBANK6,global,class=BANK6,space=1,delta=1,lowdata,noexec
     8                           	psect	cstackCOMRAM,global,class=COMRAM,space=1,delta=1,lowdata,noexec
     9                           	psect	text0,global,reloc=2,class=CODE,delta=1
    10                           	psect	text1,global,reloc=2,class=CODE,delta=1
    11                           	psect	text2,global,reloc=2,class=CODE,delta=1
    12                           	psect	text3,global,reloc=2,class=CODE,delta=1
    13                           	psect	text4,global,reloc=2,class=CODE,delta=1
    14                           	psect	text5,global,reloc=2,class=CODE,delta=1
    15                           	psect	text6,global,reloc=2,class=CODE,delta=1
    16                           	psect	intsave_regs,global,class=BIGRAM,space=1,delta=1,noexec
    17                           	psect	rparam,global,class=COMRAM,space=1,delta=1,noexec
    18                           	psect	idloc,global,abs,ovrld,class=IDLOC,space=5,delta=1,noexec
    19                           	psect	config,global,abs,ovrld,class=CONFIG,space=4,delta=1,noexec
    20   000000                     
    21                           ; Generated 17/06/2022 GMT
    22                           ; 
    23                           ; Copyright © 2022, Microchip Technology Inc. and its subsidiaries ("Microchip")
    24                           ; All rights reserved.
    25                           ; 
    26                           ; This software is developed by Microchip Technology Inc. and its subsidiaries ("Microch
      +                          ip").
    27                           ; 
    28                           ; Redistribution and use in source and binary forms, with or without modification, are
    29                           ; permitted provided that the following conditions are met:
    30                           ; 
    31                           ;     1. Redistributions of source code must retain the above copyright notice, this lis
      +                          t of
    32                           ;        conditions and the following disclaimer.
    33                           ; 
    34                           ;     2. Redistributions in binary form must reproduce the above copyright notice, this 
      +                          list
    35                           ;        of conditions and the following disclaimer in the documentation and/or other
    36                           ;        materials provided with the distribution. Publication is not required when
    37                           ;        this file is used in an embedded application.
    38                           ; 
    39                           ;     3. Microchip's name may not be used to endorse or promote products derived from th
      +                          is
    40                           ;        software without specific prior written permission.
    41                           ; 
    42                           ; THIS SOFTWARE IS PROVIDED BY MICROCHIP "AS IS" AND ANY EXPRESS OR IMPLIED WARRANTIES,
    43                           ; INCLUDING, BUT NOT LIMITED TO, THE IMPLIED WARRANTIES OF MERCHANTABILITY AND FITNESS F
      +                          OR
    44                           ; PURPOSE ARE DISCLAIMED.  IN NO EVENT SHALL MICROCHIP BE LIABLE FOR ANY DIRECT, INDIREC
      +                          T,
    45                           ; INCIDENTAL, SPECIAL, EXEMPLARY, OR CONSEQUENTIAL DAMAGES (INCLUDING BUT NOT LIMITED TO
    46                           ; PROCUREMENT OF SUBSTITUTE GOODS OR SERVICES; LOSS OF USE, DATA OR PROFITS; OR BUSINESS
    47                           ; INTERRUPTION) HOWSOEVER CAUSED AND ON ANY THEORY OF LIABILITY, WHETHER IN CONTRACT, ST
      +                          RICT
    48                           ; LIABILITY, OR TORT (INCLUDING NEGLIGENCE OR OTHERWISE) ARISING IN ANY WAY OUT OF THE U
      +                          SE OF
    49                           ; THIS SOFTWARE, EVEN IF ADVISED OF THE POSSIBILITY OF SUCH DAMAGE.
    50                           ; 
    51                           ; 
    52                           ; Code-generator required, PIC18F57Q43 Definitions
    53                           ; 
    54                           ; SFR Addresses
    55   000000                     
    56                           	psect	idataBANK6
    57   01FF34                     __pidataBANK6:
    58                           	callstack 0
    59                           
    60                           ;initializer for _sine_wave
    61   01FF34  00FE               	dw	254
    62   01FF36  00FA               	dw	250
    63   01FF38  00F6               	dw	246
    64   01FF3A  00F2               	dw	242
    65   01FF3C  00EE               	dw	238
    66   01FF3E  00EA               	dw	234
    67   01FF40  00E6               	dw	230
    68   01FF42  00E5               	dw	229
    69   01FF44  00E4               	dw	228
    70   01FF46  00E3               	dw	227
    71   01FF48  00E2               	dw	226
    72   01FF4A  00E3               	dw	227
    73   01FF4C  00E4               	dw	228
    74   01FF4E  00E5               	dw	229
    75   01FF50  00E6               	dw	230
    76   01FF52  00EA               	dw	234
    77   01FF54  00EE               	dw	238
    78   01FF56  00F2               	dw	242
    79   01FF58  00F6               	dw	246
    80   01FF5A  00FA               	dw	250
    81   01FF5C  00FE               	dw	254
    82   01FF5E  00                 	db	0
    83   01FF5F  00                 	db	0
    84   01FF60  00                 	db	0
    85   01FF61  00                 	db	0
    86   01FF62  00                 	db	0
    87   01FF63  00                 	db	0
    88   01FF64  00                 	db	0
    89   01FF65  00                 	db	0
    90   01FF66  00                 	db	0
    91   01FF67  00                 	db	0
    92   01FF68  00                 	db	0
    93   01FF69  00                 	db	0
    94   01FF6A  00                 	db	0
    95   01FF6B  00                 	db	0
    96   01FF6C  00                 	db	0
    97   01FF6D  00                 	db	0
    98   01FF6E  00                 	db	0
    99   01FF6F  00                 	db	0
   100   01FF70  00                 	db	0
   101   01FF71  00                 	db	0
   102   01FF72  00                 	db	0
   103   01FF73  00                 	db	0
   104   01FF74  00                 	db	0
   105   01FF75  00                 	db	0
   106   01FF76  00                 	db	0
   107   01FF77  00                 	db	0
   108   01FF78  00                 	db	0
   109   01FF79  00                 	db	0
   110   01FF7A  00                 	db	0
   111   01FF7B  00                 	db	0
   112   01FF7C  00                 	db	0
   113   01FF7D  00                 	db	0
   114   01FF7E  00                 	db	0
   115   01FF7F  00                 	db	0
   116   01FF80  00                 	db	0
   117   01FF81  00                 	db	0
   118   01FF82  00                 	db	0
   119   01FF83  00                 	db	0
   120   01FF84  00                 	db	0
   121   01FF85  00                 	db	0
   122   01FF86  00                 	db	0
   123   01FF87  00                 	db	0
   124   01FF88  00                 	db	0
   125   01FF89  00                 	db	0
   126   01FF8A  00                 	db	0
   127   01FF8B  00                 	db	0
   128   01FF8C  00                 	db	0
   129   01FF8D  00                 	db	0
   130   01FF8E  00                 	db	0
   131   01FF8F  00                 	db	0
   132   01FF90  00                 	db	0
   133   01FF91  00                 	db	0
   134   01FF92  00                 	db	0
   135   01FF93  00                 	db	0
   136   01FF94  00                 	db	0
   137   01FF95  00                 	db	0
   138   01FF96  00                 	db	0
   139   01FF97  00                 	db	0
   140   01FF98  00                 	db	0
   141   01FF99  00                 	db	0
   142   01FF9A  00                 	db	0
   143   01FF9B  00                 	db	0
   144   01FF9C  00                 	db	0
   145   01FF9D  00                 	db	0
   146   01FF9E  00                 	db	0
   147   01FF9F  00                 	db	0
   148   01FFA0  00                 	db	0
   149   01FFA1  00                 	db	0
   150   01FFA2  00                 	db	0
   151   01FFA3  00                 	db	0
   152   01FFA4  00                 	db	0
   153   01FFA5  00                 	db	0
   154   01FFA6  00                 	db	0
   155   01FFA7  00                 	db	0
   156   01FFA8  00                 	db	0
   157   01FFA9  00                 	db	0
   158   01FFAA  00                 	db	0
   159   01FFAB  00                 	db	0
   160   01FFAC  00                 	db	0
   161   01FFAD  00                 	db	0
   162   01FFAE  00                 	db	0
   163   01FFAF  00                 	db	0
   164   01FFB0  00                 	db	0
   165   01FFB1  00                 	db	0
   166   01FFB2  00                 	db	0
   167   01FFB3  00                 	db	0
   168   01FFB4  00                 	db	0
   169   01FFB5  00                 	db	0
   170   01FFB6  00                 	db	0
   171   01FFB7  00                 	db	0
   172   01FFB8  00                 	db	0
   173   01FFB9  00                 	db	0
   174   01FFBA  00                 	db	0
   175   01FFBB  00                 	db	0
   176   01FFBC  00                 	db	0
   177   01FFBD  00                 	db	0
   178   01FFBE  00                 	db	0
   179   01FFBF  00                 	db	0
   180   01FFC0  00                 	db	0
   181   01FFC1  00                 	db	0
   182   01FFC2  00                 	db	0
   183   01FFC3  00                 	db	0
   184   01FFC4  00                 	db	0
   185   01FFC5  00                 	db	0
   186   01FFC6  00                 	db	0
   187   01FFC7  00                 	db	0
   188   01FFC8  00                 	db	0
   189   01FFC9  00                 	db	0
   190   01FFCA  00                 	db	0
   191   01FFCB  00                 	db	0
   192   01FFCC  00                 	db	0
   193   01FFCD  00                 	db	0
   194   01FFCE  00                 	db	0
   195   01FFCF  00                 	db	0
   196   01FFD0  00                 	db	0
   197   01FFD1  00                 	db	0
   198   01FFD2  00                 	db	0
   199   01FFD3  00                 	db	0
   200   01FFD4  00                 	db	0
   201   01FFD5  00                 	db	0
   202   01FFD6  00                 	db	0
   203   01FFD7  00                 	db	0
   204   01FFD8  00                 	db	0
   205   01FFD9  00                 	db	0
   206   01FFDA  00                 	db	0
   207   01FFDB  00                 	db	0
   208   01FFDC  00                 	db	0
   209   01FFDD  00                 	db	0
   210   01FFDE  00                 	db	0
   211   01FFDF  00                 	db	0
   212   01FFE0  00                 	db	0
   213   01FFE1  00                 	db	0
   214   01FFE2  00                 	db	0
   215   01FFE3  00                 	db	0
   216   01FFE4  00                 	db	0
   217   01FFE5  00                 	db	0
   218   01FFE6  00                 	db	0
   219   01FFE7  00                 	db	0
   220   01FFE8  00                 	db	0
   221   01FFE9  00                 	db	0
   222   01FFEA  00                 	db	0
   223   01FFEB  00                 	db	0
   224   01FFEC  00                 	db	0
   225   01FFED  00                 	db	0
   226   01FFEE  00                 	db	0
   227   01FFEF  00                 	db	0
   228   01FFF0  00                 	db	0
   229   01FFF1  00                 	db	0
   230   01FFF2  00                 	db	0
   231   01FFF3  00                 	db	0
   232   01FFF4  00                 	db	0
   233   01FFF5  00                 	db	0
   234   01FFF6  00                 	db	0
   235   01FFF7  00                 	db	0
   236   01FFF8  00                 	db	0
   237   01FFF9  00                 	db	0
   238   01FFFA  00                 	db	0
   239   01FFFB  00                 	db	0
   240   000000                     _TRISD	set	1225
   241   000000                     _TRISC	set	1224
   242   000000                     _TRISB	set	1223
   243   000000                     _LATC	set	1216
   244   000000                     _LATB	set	1215
   245   000000                     _OSCTUNE	set	176
   246   000000                     _OSCFRQ	set	177
   247   000000                     _OSCEN	set	179
   248   000000                     _PMD0	set	96
   249   000000                     _DAC1DATL	set	125
   250   000000                     _DAC1CON	set	127
   251   000000                     _ACTCON	set	172
   252   000000                     _OSCCON1	set	173
   253   000000                     _OSCCON3	set	175
   254   000000                     _RC4I2C	set	646
   255   000000                     _RC3I2C	set	647
   256   000000                     _RB2I2C	set	648
   257   000000                     _RB1I2C	set	649
   258   000000                     _ANSELA	set	1024
   259   000000                     _ANSELB	set	1032
   260   000000                     _ANSELC	set	1040
   261   000000                     _ANSELD	set	1048
   262   000000                     _LATA	set	1214
   263   000000                     _LATD	set	1217
   264   000000                     _LATE	set	1218
   265   000000                     _PMD3	set	99
   266   000000                     _PMD1	set	97
   267   000000                     _PMD8	set	104
   268   000000                     _PMD7	set	103
   269   000000                     _PMD6	set	102
   270   000000                     _PMD5	set	101
   271   000000                     _PMD4	set	100
   272   000000                     _TRISA	set	1222
   273   000000                     _TRISE	set	1226
   274   000000                     _LATF	set	1219
   275   000000                     _TRISF	set	1227
   276   000000                     _INLVLD	set	1052
   277   000000                     _SLRCOND	set	1051
   278   000000                     _ODCOND	set	1050
   279   000000                     _WPUD	set	1049
   280   000000                     _ANSELE	set	1056
   281   000000                     _INLVLC	set	1044
   282   000000                     _SLRCONC	set	1043
   283   000000                     _ODCONC	set	1042
   284   000000                     _WPUC	set	1041
   285   000000                     _INLVLB	set	1036
   286   000000                     _SLRCONB	set	1035
   287   000000                     _ODCONB	set	1034
   288   000000                     _WPUB	set	1033
   289   000000                     _INLVLE	set	1060
   290   000000                     _SLRCONE	set	1059
   291   000000                     _ODCONE	set	1058
   292   000000                     _WPUE	set	1057
   293   000000                     _ANSELF	set	1064
   294   000000                     _INLVLF	set	1068
   295   000000                     _SLRCONF	set	1067
   296   000000                     _ODCONF	set	1066
   297   000000                     _WPUF	set	1065
   298   000000                     _INLVLA	set	1028
   299   000000                     _SLRCONA	set	1027
   300   000000                     _ODCONA	set	1026
   301   000000                     _WPUA	set	1025
   302                           
   303                           ; #config settings
   304                           
   305                           	psect	cinit
   306   01FDBC                     __pcinit:
   307                           	callstack 0
   308   01FDBC                     start_initialization:
   309                           	callstack 0
   310   01FDBC                     __initialization:
   311                           	callstack 0
   312                           
   313                           ; Initialize objects allocated to BANK6 (200 bytes)
   314                           ; load TBLPTR registers with __pidataBANK6
   315   01FDBC  0E34               	movlw	low __pidataBANK6
   316   01FDBE  6EF6               	movwf	tblptrl,c
   317   01FDC0  0EFF               	movlw	high __pidataBANK6
   318   01FDC2  6EF7               	movwf	tblptrh,c
   319   01FDC4  0E01               	movlw	low (__pidataBANK6 shr (0+16))
   320   01FDC6  6EF8               	movwf	tblptru,c
   321   01FDC8  EE01  F200         	lfsr	0,__pdataBANK6
   322   01FDCC  EE10 F0C8          	lfsr	1,200
   323   01FDD0                     copy_data0:
   324   01FDD0  0009               	tblrd		*+
   325   01FDD2  C4F5 F4EE          	movff	tablat,postinc0
   326   01FDD6  50E5               	movf	postdec1,w,c
   327   01FDD8  50E1               	movf	fsr1l,w,c
   328   01FDDA  E1FA               	bnz	copy_data0
   329   01FDDC                     end_of_initialization:
   330                           	callstack 0
   331   01FDDC                     __end_of__initialization:
   332                           	callstack 0
   333   01FDDC  0100               	movlb	0
   334   01FDDE  EF3E  F0FF         	goto	_main	;jump to C main() function
   335                           
   336                           	psect	dataBANK6
   337   000600                     __pdataBANK6:
   338                           	callstack 0
   339   000600                     _sine_wave:
   340                           	callstack 0
   341   000600                     	ds	200
   342                           
   343                           	psect	cstackCOMRAM
   344   000501                     __pcstackCOMRAM:
   345                           	callstack 0
   346   000501                     DAC1_SetOutput@inputData:
   347                           	callstack 0
   348                           
   349                           ; 1 bytes @ 0x0
   350   000501                     	ds	1
   351   000502                     main@a:
   352                           	callstack 0
   353                           
   354                           ; 2 bytes @ 0x1
   355   000502                     	ds	2
   356   000504                     main@sample_number:
   357                           	callstack 0
   358                           
   359                           ; 2 bytes @ 0x3
   360   000504                     	ds	2
   361   000506                     main@i:
   362                           	callstack 0
   363                           
   364                           ; 2 bytes @ 0x5
   365   000506                     	ds	2
   366                           
   367 ;;
   368 ;;Main: autosize = 0, tempsize = 0, incstack = 0, save=0
   369 ;;
   370 ;; *************** function _main *****************
   371 ;; Defined at:
   372 ;;		line 71 in file "main.c"
   373 ;; Parameters:    Size  Location     Type
   374 ;;		None
   375 ;; Auto vars:     Size  Location     Type
   376 ;;  sample_numbe    2    3[COMRAM] int 
   377 ;;  a               2    1[COMRAM] int 
   378 ;;  i               2    5[COMRAM] int 
   379 ;; Return value:  Size  Location     Type
   380 ;;                  1    wreg      void 
   381 ;; Registers used:
   382 ;;		wreg, fsr2l, fsr2h, status,2, status,0, cstack
   383 ;; Tracked objects:
   384 ;;		On entry : 0/0
   385 ;;		On exit  : 0/0
   386 ;;		Unchanged: 0/0
   387 ;; Data sizes:     COMRAM   BANK5   BANK6   BANK7   BANK8   BANK9  BANK10  BANK11  BANK12  BANK13  BANK14  BANK15  BANK1
      +6  BANK17  BANK18  BANK19  BANK20  BANK21  BANK22  BANK23  BANK24  BANK25  BANK26  BANK27  BANK28  BANK29  BANK30  BANK3
      +1  BANK32  BANK33  BANK34  BANK35  BANK36
   388 ;;      Params:         0       0       0       0       0       0       0       0       0       0       0       0       
      +0       0       0       0       0       0       0       0       0       0       0       0       0       0       0       
      +0       0       0       0       0       0
   389 ;;      Locals:         6       0       0       0       0       0       0       0       0       0       0       0       
      +0       0       0       0       0       0       0       0       0       0       0       0       0       0       0       
      +0       0       0       0       0       0
   390 ;;      Temps:          0       0       0       0       0       0       0       0       0       0       0       0       
      +0       0       0       0       0       0       0       0       0       0       0       0       0       0       0       
      +0       0       0       0       0       0
   391 ;;      Totals:         6       0       0       0       0       0       0       0       0       0       0       0       
      +0       0       0       0       0       0       0       0       0       0       0       0       0       0       0       
      +0       0       0       0       0       0
   392 ;;Total ram usage:        6 bytes
   393 ;; Hardware stack levels required when called: 2
   394 ;; This function calls:
   395 ;;		_DAC1_Initialize
   396 ;;		_DAC1_SetOutput
   397 ;;		_SYSTEM_Initialize
   398 ;; This function is called by:
   399 ;;		Startup code after reset
   400 ;; This function uses a non-reentrant model
   401 ;;
   402                           
   403                           	psect	text0
   404   01FE7C                     __ptext0:
   405                           	callstack 0
   406   01FE7C                     _main:
   407                           	callstack 125
   408   01FE7C                     
   409                           ;main.c: 74:     SYSTEM_Initialize();
   410   01FE7C  ECB5  F0FE         	call	_SYSTEM_Initialize	;wreg free
   411                           
   412                           ;main.c: 75:     DAC1_Initialize();
   413   01FE80  ECAF  F0FE         	call	_DAC1_Initialize	;wreg free
   414   01FE84                     l911:
   415                           
   416                           ;main.c: 88:     {;main.c: 91:         for(int i=0;i<255;i++)
   417   01FE84  0E00               	movlw	0
   418   01FE86  6E07               	movwf	(main@i+1)^(0+1280),c
   419   01FE88  0E00               	movlw	0
   420   01FE8A  6E06               	movwf	main@i^(0+1280),c
   421   01FE8C                     l917:
   422                           
   423                           ;main.c: 92:         {;main.c: 93:             DAC1_SetOutput(i);
   424   01FE8C  5006               	movf	main@i^(0+1280),w,c
   425   01FE8E  ECAB  F0FE         	call	_DAC1_SetOutput
   426   01FE92                     
   427                           ;main.c: 95:             if(i==254)
   428   01FE92  0EFE               	movlw	254
   429   01FE94  1806               	xorwf	main@i^(0+1280),w,c
   430   01FE96  1007               	iorwf	(main@i+1)^(0+1280),w,c
   431   01FE98  A4D8               	btfss	status,2,c
   432   01FE9A  EF51  F0FF         	goto	u11
   433   01FE9E  EF53  F0FF         	goto	u10
   434   01FEA2                     u11:
   435   01FEA2  EF87  F0FF         	goto	l943
   436   01FEA6                     u10:
   437   01FEA6                     
   438                           ;main.c: 96:             {;main.c: 97:                 for(int a=0;a<8;a++)
   439   01FEA6  0E00               	movlw	0
   440   01FEA8  6E03               	movwf	(main@a+1)^(0+1280),c
   441   01FEAA  0E00               	movlw	0
   442   01FEAC  6E02               	movwf	main@a^(0+1280),c
   443   01FEAE                     l927:
   444                           
   445                           ;main.c: 98:                 {;main.c: 99:                     for(int sample_number=0;s
      +                          ample_number<21;sample_number++)
   446   01FEAE  0E00               	movlw	0
   447   01FEB0  6E05               	movwf	(main@sample_number+1)^(0+1280),c
   448   01FEB2  0E00               	movlw	0
   449   01FEB4  6E04               	movwf	main@sample_number^(0+1280),c
   450   01FEB6                     l933:
   451                           
   452                           ;main.c: 100:                     {;main.c: 101:                         DAC1_SetOutput(
      +                          sine_wave[sample_number]);
   453   01FEB6  90D8               	bcf	status,0,c
   454   01FEB8  3404               	rlcf	main@sample_number^(0+1280),w,c
   455   01FEBA  6ED9               	movwf	fsr2l,c
   456   01FEBC  3405               	rlcf	(main@sample_number+1)^(0+1280),w,c
   457   01FEBE  6EDA               	movwf	fsr2h,c
   458   01FEC0  0E00               	movlw	low _sine_wave
   459   01FEC2  26D9               	addwf	fsr2l,f,c
   460   01FEC4  0E06               	movlw	high _sine_wave
   461   01FEC6  22DA               	addwfc	fsr2h,f,c
   462   01FEC8  50DF               	movf	indf2,w,c
   463   01FECA  ECAB  F0FE         	call	_DAC1_SetOutput
   464   01FECE                     
   465                           ;main.c: 102:                     }
   466   01FECE  4A04               	infsnz	main@sample_number^(0+1280),f,c
   467   01FED0  2A05               	incf	(main@sample_number+1)^(0+1280),f,c
   468   01FED2  BE05               	btfsc	(main@sample_number+1)^(0+1280),7,c
   469   01FED4  EF75  F0FF         	goto	u21
   470   01FED8  5005               	movf	(main@sample_number+1)^(0+1280),w,c
   471   01FEDA  E109               	bnz	u20
   472   01FEDC  0E15               	movlw	21
   473   01FEDE  5C04               	subwf	main@sample_number^(0+1280),w,c
   474   01FEE0  A0D8               	btfss	status,0,c
   475   01FEE2  EF75  F0FF         	goto	u21
   476   01FEE6  EF77  F0FF         	goto	u20
   477   01FEEA                     u21:
   478   01FEEA  EF5B  F0FF         	goto	l933
   479   01FEEE                     u20:
   480   01FEEE                     
   481                           ;main.c: 103:                 }
   482   01FEEE  4A02               	infsnz	main@a^(0+1280),f,c
   483   01FEF0  2A03               	incf	(main@a+1)^(0+1280),f,c
   484   01FEF2  BE03               	btfsc	(main@a+1)^(0+1280),7,c
   485   01FEF4  EF85  F0FF         	goto	u31
   486   01FEF8  5003               	movf	(main@a+1)^(0+1280),w,c
   487   01FEFA  E109               	bnz	u30
   488   01FEFC  0E08               	movlw	8
   489   01FEFE  5C02               	subwf	main@a^(0+1280),w,c
   490   01FF00  A0D8               	btfss	status,0,c
   491   01FF02  EF85  F0FF         	goto	u31
   492   01FF06  EF87  F0FF         	goto	u30
   493   01FF0A                     u31:
   494   01FF0A  EF57  F0FF         	goto	l927
   495   01FF0E                     u30:
   496   01FF0E                     l943:
   497                           
   498                           ;main.c: 105:         }
   499   01FF0E  4A06               	infsnz	main@i^(0+1280),f,c
   500   01FF10  2A07               	incf	(main@i+1)^(0+1280),f,c
   501   01FF12  BE07               	btfsc	(main@i+1)^(0+1280),7,c
   502   01FF14  EF94  F0FF         	goto	u41
   503   01FF18  5007               	movf	(main@i+1)^(0+1280),w,c
   504   01FF1A  E108               	bnz	u40
   505   01FF1C  2806               	incf	main@i^(0+1280),w,c
   506   01FF1E  A0D8               	btfss	status,0,c
   507   01FF20  EF94  F0FF         	goto	u41
   508   01FF24  EF96  F0FF         	goto	u40
   509   01FF28                     u41:
   510   01FF28  EF46  F0FF         	goto	l917
   511   01FF2C                     u40:
   512   01FF2C  EF42  F0FF         	goto	l911
   513   01FF30  EFFE  F0FF         	goto	start
   514   01FF34                     __end_of_main:
   515                           	callstack 0
   516                           
   517 ;; *************** function _SYSTEM_Initialize *****************
   518 ;; Defined at:
   519 ;;		line 50 in file "mcc_generated_files/mcc.c"
   520 ;; Parameters:    Size  Location     Type
   521 ;;		None
   522 ;; Auto vars:     Size  Location     Type
   523 ;;		None
   524 ;; Return value:  Size  Location     Type
   525 ;;                  1    wreg      void 
   526 ;; Registers used:
   527 ;;		wreg, status,2, cstack
   528 ;; Tracked objects:
   529 ;;		On entry : 0/0
   530 ;;		On exit  : 0/0
   531 ;;		Unchanged: 0/0
   532 ;; Data sizes:     COMRAM   BANK5   BANK6   BANK7   BANK8   BANK9  BANK10  BANK11  BANK12  BANK13  BANK14  BANK15  BANK1
      +6  BANK17  BANK18  BANK19  BANK20  BANK21  BANK22  BANK23  BANK24  BANK25  BANK26  BANK27  BANK28  BANK29  BANK30  BANK3
      +1  BANK32  BANK33  BANK34  BANK35  BANK36
   533 ;;      Params:         0       0       0       0       0       0       0       0       0       0       0       0       
      +0       0       0       0       0       0       0       0       0       0       0       0       0       0       0       
      +0       0       0       0       0       0
   534 ;;      Locals:         0       0       0       0       0       0       0       0       0       0       0       0       
      +0       0       0       0       0       0       0       0       0       0       0       0       0       0       0       
      +0       0       0       0       0       0
   535 ;;      Temps:          0       0       0       0       0       0       0       0       0       0       0       0       
      +0       0       0       0       0       0       0       0       0       0       0       0       0       0       0       
      +0       0       0       0       0       0
   536 ;;      Totals:         0       0       0       0       0       0       0       0       0       0       0       0       
      +0       0       0       0       0       0       0       0       0       0       0       0       0       0       0       
      +0       0       0       0       0       0
   537 ;;Total ram usage:        0 bytes
   538 ;; Hardware stack levels used: 1
   539 ;; Hardware stack levels required when called: 1
   540 ;; This function calls:
   541 ;;		_DAC1_Initialize
   542 ;;		_OSCILLATOR_Initialize
   543 ;;		_PIN_MANAGER_Initialize
   544 ;;		_PMD_Initialize
   545 ;; This function is called by:
   546 ;;		_main
   547 ;; This function uses a non-reentrant model
   548 ;;
   549                           
   550                           	psect	text1
   551   01FD6A                     __ptext1:
   552                           	callstack 0
   553   01FD6A                     _SYSTEM_Initialize:
   554                           	callstack 125
   555   01FD6A                     
   556                           ;mcc_generated_files/mcc.c: 52:     PMD_Initialize();
   557   01FD6A  ECCC  F0FE         	call	_PMD_Initialize	;wreg free
   558                           
   559                           ;mcc_generated_files/mcc.c: 53:     PIN_MANAGER_Initialize();
   560   01FD6E  ECF1  F0FE         	call	_PIN_MANAGER_Initialize	;wreg free
   561                           
   562                           ;mcc_generated_files/mcc.c: 54:     OSCILLATOR_Initialize();
   563   01FD72  ECBE  F0FE         	call	_OSCILLATOR_Initialize	;wreg free
   564                           
   565                           ;mcc_generated_files/mcc.c: 55:     DAC1_Initialize();
   566   01FD76  ECAF  F0FE         	call	_DAC1_Initialize	;wreg free
   567   01FD7A  0012               	return		;funcret
   568   01FD7C                     __end_of_SYSTEM_Initialize:
   569                           	callstack 0
   570                           
   571 ;; *************** function _PMD_Initialize *****************
   572 ;; Defined at:
   573 ;;		line 74 in file "mcc_generated_files/mcc.c"
   574 ;; Parameters:    Size  Location     Type
   575 ;;		None
   576 ;; Auto vars:     Size  Location     Type
   577 ;;		None
   578 ;; Return value:  Size  Location     Type
   579 ;;                  1    wreg      void 
   580 ;; Registers used:
   581 ;;		wreg, status,2
   582 ;; Tracked objects:
   583 ;;		On entry : 0/0
   584 ;;		On exit  : 0/0
   585 ;;		Unchanged: 0/0
   586 ;; Data sizes:     COMRAM   BANK5   BANK6   BANK7   BANK8   BANK9  BANK10  BANK11  BANK12  BANK13  BANK14  BANK15  BANK1
      +6  BANK17  BANK18  BANK19  BANK20  BANK21  BANK22  BANK23  BANK24  BANK25  BANK26  BANK27  BANK28  BANK29  BANK30  BANK3
      +1  BANK32  BANK33  BANK34  BANK35  BANK36
   587 ;;      Params:         0       0       0       0       0       0       0       0       0       0       0       0       
      +0       0       0       0       0       0       0       0       0       0       0       0       0       0       0       
      +0       0       0       0       0       0
   588 ;;      Locals:         0       0       0       0       0       0       0       0       0       0       0       0       
      +0       0       0       0       0       0       0       0       0       0       0       0       0       0       0       
      +0       0       0       0       0       0
   589 ;;      Temps:          0       0       0       0       0       0       0       0       0       0       0       0       
      +0       0       0       0       0       0       0       0       0       0       0       0       0       0       0       
      +0       0       0       0       0       0
   590 ;;      Totals:         0       0       0       0       0       0       0       0       0       0       0       0       
      +0       0       0       0       0       0       0       0       0       0       0       0       0       0       0       
      +0       0       0       0       0       0
   591 ;;Total ram usage:        0 bytes
   592 ;; Hardware stack levels used: 1
   593 ;; This function calls:
   594 ;;		Nothing
   595 ;; This function is called by:
   596 ;;		_SYSTEM_Initialize
   597 ;; This function uses a non-reentrant model
   598 ;;
   599                           
   600                           	psect	text2
   601   01FD98                     __ptext2:
   602                           	callstack 0
   603   01FD98                     _PMD_Initialize:
   604                           	callstack 125
   605   01FD98                     
   606                           ;mcc_generated_files/mcc.c: 77:     PMD0 = 0x00;
   607   01FD98  0E00               	movlw	0
   608   01FD9A  0100               	movlb	0	; () banked
   609   01FD9C  6F60               	movwf	96,b	;volatile
   610                           
   611                           ;mcc_generated_files/mcc.c: 79:     PMD1 = 0x00;
   612   01FD9E  0E00               	movlw	0
   613   01FDA0  6F61               	movwf	97,b	;volatile
   614                           
   615                           ;mcc_generated_files/mcc.c: 81:     PMD3 = 0x00;
   616   01FDA2  0E00               	movlw	0
   617   01FDA4  6F63               	movwf	99,b	;volatile
   618                           
   619                           ;mcc_generated_files/mcc.c: 83:     PMD4 = 0x00;
   620   01FDA6  0E00               	movlw	0
   621   01FDA8  6F64               	movwf	100,b	;volatile
   622                           
   623                           ;mcc_generated_files/mcc.c: 85:     PMD5 = 0x00;
   624   01FDAA  0E00               	movlw	0
   625   01FDAC  6F65               	movwf	101,b	;volatile
   626                           
   627                           ;mcc_generated_files/mcc.c: 87:     PMD6 = 0x00;
   628   01FDAE  0E00               	movlw	0
   629   01FDB0  6F66               	movwf	102,b	;volatile
   630                           
   631                           ;mcc_generated_files/mcc.c: 89:     PMD7 = 0x00;
   632   01FDB2  0E00               	movlw	0
   633   01FDB4  6F67               	movwf	103,b	;volatile
   634                           
   635                           ;mcc_generated_files/mcc.c: 91:     PMD8 = 0x00;
   636   01FDB6  0E00               	movlw	0
   637   01FDB8  6F68               	movwf	104,b	;volatile
   638   01FDBA                     
   639                           ; BSR set to: 0
   640   01FDBA  0012               	return		;funcret
   641   01FDBC                     __end_of_PMD_Initialize:
   642                           	callstack 0
   643                           
   644 ;; *************** function _PIN_MANAGER_Initialize *****************
   645 ;; Defined at:
   646 ;;		line 55 in file "mcc_generated_files/pin_manager.c"
   647 ;; Parameters:    Size  Location     Type
   648 ;;		None
   649 ;; Auto vars:     Size  Location     Type
   650 ;;		None
   651 ;; Return value:  Size  Location     Type
   652 ;;                  1    wreg      void 
   653 ;; Registers used:
   654 ;;		wreg, status,2
   655 ;; Tracked objects:
   656 ;;		On entry : 0/0
   657 ;;		On exit  : 0/0
   658 ;;		Unchanged: 0/0
   659 ;; Data sizes:     COMRAM   BANK5   BANK6   BANK7   BANK8   BANK9  BANK10  BANK11  BANK12  BANK13  BANK14  BANK15  BANK1
      +6  BANK17  BANK18  BANK19  BANK20  BANK21  BANK22  BANK23  BANK24  BANK25  BANK26  BANK27  BANK28  BANK29  BANK30  BANK3
      +1  BANK32  BANK33  BANK34  BANK35  BANK36
   660 ;;      Params:         0       0       0       0       0       0       0       0       0       0       0       0       
      +0       0       0       0       0       0       0       0       0       0       0       0       0       0       0       
      +0       0       0       0       0       0
   661 ;;      Locals:         0       0       0       0       0       0       0       0       0       0       0       0       
      +0       0       0       0       0       0       0       0       0       0       0       0       0       0       0       
      +0       0       0       0       0       0
   662 ;;      Temps:          0       0       0       0       0       0       0       0       0       0       0       0       
      +0       0       0       0       0       0       0       0       0       0       0       0       0       0       0       
      +0       0       0       0       0       0
   663 ;;      Totals:         0       0       0       0       0       0       0       0       0       0       0       0       
      +0       0       0       0       0       0       0       0       0       0       0       0       0       0       0       
      +0       0       0       0       0       0
   664 ;;Total ram usage:        0 bytes
   665 ;; Hardware stack levels used: 1
   666 ;; This function calls:
   667 ;;		Nothing
   668 ;; This function is called by:
   669 ;;		_SYSTEM_Initialize
   670 ;; This function uses a non-reentrant model
   671 ;;
   672                           
   673                           	psect	text3
   674   01FDE2                     __ptext3:
   675                           	callstack 0
   676   01FDE2                     _PIN_MANAGER_Initialize:
   677                           	callstack 125
   678   01FDE2                     
   679                           ;mcc_generated_files/pin_manager.c: 60:     LATE = 0x00;
   680   01FDE2  0E00               	movlw	0
   681   01FDE4  6EC2               	movwf	194,c	;volatile
   682                           
   683                           ;mcc_generated_files/pin_manager.c: 61:     LATD = 0x00;
   684   01FDE6  0E00               	movlw	0
   685   01FDE8  6EC1               	movwf	193,c	;volatile
   686                           
   687                           ;mcc_generated_files/pin_manager.c: 62:     LATA = 0x00;
   688   01FDEA  0E00               	movlw	0
   689   01FDEC  6EBE               	movwf	190,c	;volatile
   690                           
   691                           ;mcc_generated_files/pin_manager.c: 63:     LATF = 0x00;
   692   01FDEE  0E00               	movlw	0
   693   01FDF0  6EC3               	movwf	195,c	;volatile
   694                           
   695                           ;mcc_generated_files/pin_manager.c: 64:     LATB = 0x00;
   696   01FDF2  0E00               	movlw	0
   697   01FDF4  6EBF               	movwf	191,c	;volatile
   698                           
   699                           ;mcc_generated_files/pin_manager.c: 65:     LATC = 0x00;
   700   01FDF6  0E00               	movlw	0
   701   01FDF8  6EC0               	movwf	192,c	;volatile
   702                           
   703                           ;mcc_generated_files/pin_manager.c: 70:     TRISE = 0x07;
   704   01FDFA  0E07               	movlw	7
   705   01FDFC  6ECA               	movwf	202,c	;volatile
   706   01FDFE                     
   707                           ;mcc_generated_files/pin_manager.c: 71:     TRISF = 0xFF;
   708   01FDFE  68CB               	setf	203,c	;volatile
   709   01FE00                     
   710                           ;mcc_generated_files/pin_manager.c: 72:     TRISA = 0xFF;
   711   01FE00  68C6               	setf	198,c	;volatile
   712   01FE02                     
   713                           ;mcc_generated_files/pin_manager.c: 73:     TRISB = 0xFF;
   714   01FE02  68C7               	setf	199,c	;volatile
   715   01FE04                     
   716                           ;mcc_generated_files/pin_manager.c: 74:     TRISC = 0xFF;
   717   01FE04  68C8               	setf	200,c	;volatile
   718   01FE06                     
   719                           ;mcc_generated_files/pin_manager.c: 75:     TRISD = 0xFF;
   720   01FE06  68C9               	setf	201,c	;volatile
   721   01FE08                     
   722                           ;mcc_generated_files/pin_manager.c: 80:     ANSELD = 0xFF;
   723   01FE08  0104               	movlb	4	; () banked
   724   01FE0A  6918               	setf	24,b	;volatile
   725   01FE0C                     
   726                           ; BSR set to: 4
   727                           ;mcc_generated_files/pin_manager.c: 81:     ANSELC = 0xFF;
   728   01FE0C  6910               	setf	16,b	;volatile
   729   01FE0E                     
   730                           ; BSR set to: 4
   731                           ;mcc_generated_files/pin_manager.c: 82:     ANSELB = 0xFF;
   732   01FE0E  6908               	setf	8,b	;volatile
   733                           
   734                           ;mcc_generated_files/pin_manager.c: 83:     ANSELE = 0x07;
   735   01FE10  0E07               	movlw	7
   736   01FE12  6F20               	movwf	32,b	;volatile
   737   01FE14                     
   738                           ; BSR set to: 4
   739                           ;mcc_generated_files/pin_manager.c: 84:     ANSELF = 0xFF;
   740   01FE14  6928               	setf	40,b	;volatile
   741                           
   742                           ;mcc_generated_files/pin_manager.c: 85:     ANSELA = 0x7F;
   743   01FE16  0E7F               	movlw	127
   744   01FE18  6F00               	movwf	0,b	;volatile
   745                           
   746                           ;mcc_generated_files/pin_manager.c: 90:     WPUD = 0x00;
   747   01FE1A  0E00               	movlw	0
   748   01FE1C  6F19               	movwf	25,b	;volatile
   749                           
   750                           ;mcc_generated_files/pin_manager.c: 91:     WPUF = 0x00;
   751   01FE1E  0E00               	movlw	0
   752   01FE20  6F29               	movwf	41,b	;volatile
   753                           
   754                           ;mcc_generated_files/pin_manager.c: 92:     WPUE = 0x00;
   755   01FE22  0E00               	movlw	0
   756   01FE24  6F21               	movwf	33,b	;volatile
   757                           
   758                           ;mcc_generated_files/pin_manager.c: 93:     WPUB = 0x00;
   759   01FE26  0E00               	movlw	0
   760   01FE28  6F09               	movwf	9,b	;volatile
   761                           
   762                           ;mcc_generated_files/pin_manager.c: 94:     WPUA = 0x00;
   763   01FE2A  0E00               	movlw	0
   764   01FE2C  6F01               	movwf	1,b	;volatile
   765                           
   766                           ;mcc_generated_files/pin_manager.c: 95:     WPUC = 0x00;
   767   01FE2E  0E00               	movlw	0
   768   01FE30  6F11               	movwf	17,b	;volatile
   769                           
   770                           ;mcc_generated_files/pin_manager.c: 100:     RB1I2C = 0x00;
   771   01FE32  0E00               	movlw	0
   772   01FE34  0102               	movlb	2	; () banked
   773   01FE36  6F89               	movwf	137,b	;volatile
   774                           
   775                           ;mcc_generated_files/pin_manager.c: 101:     RB2I2C = 0x00;
   776   01FE38  0E00               	movlw	0
   777   01FE3A  6F88               	movwf	136,b	;volatile
   778                           
   779                           ;mcc_generated_files/pin_manager.c: 102:     RC3I2C = 0x00;
   780   01FE3C  0E00               	movlw	0
   781   01FE3E  6F87               	movwf	135,b	;volatile
   782                           
   783                           ;mcc_generated_files/pin_manager.c: 103:     RC4I2C = 0x00;
   784   01FE40  0E00               	movlw	0
   785   01FE42  6F86               	movwf	134,b	;volatile
   786                           
   787                           ;mcc_generated_files/pin_manager.c: 108:     ODCONE = 0x00;
   788   01FE44  0E00               	movlw	0
   789   01FE46  0104               	movlb	4	; () banked
   790   01FE48  6F22               	movwf	34,b	;volatile
   791                           
   792                           ;mcc_generated_files/pin_manager.c: 109:     ODCONF = 0x00;
   793   01FE4A  0E00               	movlw	0
   794   01FE4C  6F2A               	movwf	42,b	;volatile
   795                           
   796                           ;mcc_generated_files/pin_manager.c: 110:     ODCONA = 0x00;
   797   01FE4E  0E00               	movlw	0
   798   01FE50  6F02               	movwf	2,b	;volatile
   799                           
   800                           ;mcc_generated_files/pin_manager.c: 111:     ODCONB = 0x00;
   801   01FE52  0E00               	movlw	0
   802   01FE54  6F0A               	movwf	10,b	;volatile
   803                           
   804                           ;mcc_generated_files/pin_manager.c: 112:     ODCONC = 0x00;
   805   01FE56  0E00               	movlw	0
   806   01FE58  6F12               	movwf	18,b	;volatile
   807                           
   808                           ;mcc_generated_files/pin_manager.c: 113:     ODCOND = 0x00;
   809   01FE5A  0E00               	movlw	0
   810   01FE5C  6F1A               	movwf	26,b	;volatile
   811   01FE5E                     
   812                           ; BSR set to: 4
   813                           ;mcc_generated_files/pin_manager.c: 118:     SLRCONA = 0xFF;
   814   01FE5E  6903               	setf	3,b	;volatile
   815   01FE60                     
   816                           ; BSR set to: 4
   817                           ;mcc_generated_files/pin_manager.c: 119:     SLRCONB = 0xFF;
   818   01FE60  690B               	setf	11,b	;volatile
   819   01FE62                     
   820                           ; BSR set to: 4
   821                           ;mcc_generated_files/pin_manager.c: 120:     SLRCONC = 0xFF;
   822   01FE62  6913               	setf	19,b	;volatile
   823   01FE64                     
   824                           ; BSR set to: 4
   825                           ;mcc_generated_files/pin_manager.c: 121:     SLRCOND = 0xFF;
   826   01FE64  691B               	setf	27,b	;volatile
   827                           
   828                           ;mcc_generated_files/pin_manager.c: 122:     SLRCONE = 0x07;
   829   01FE66  0E07               	movlw	7
   830   01FE68  6F23               	movwf	35,b	;volatile
   831   01FE6A                     
   832                           ; BSR set to: 4
   833                           ;mcc_generated_files/pin_manager.c: 123:     SLRCONF = 0xFF;
   834   01FE6A  692B               	setf	43,b	;volatile
   835   01FE6C                     
   836                           ; BSR set to: 4
   837                           ;mcc_generated_files/pin_manager.c: 128:     INLVLA = 0xFF;
   838   01FE6C  6904               	setf	4,b	;volatile
   839   01FE6E                     
   840                           ; BSR set to: 4
   841                           ;mcc_generated_files/pin_manager.c: 129:     INLVLB = 0xFF;
   842   01FE6E  690C               	setf	12,b	;volatile
   843   01FE70                     
   844                           ; BSR set to: 4
   845                           ;mcc_generated_files/pin_manager.c: 130:     INLVLC = 0xFF;
   846   01FE70  6914               	setf	20,b	;volatile
   847   01FE72                     
   848                           ; BSR set to: 4
   849                           ;mcc_generated_files/pin_manager.c: 131:     INLVLD = 0xFF;
   850   01FE72  691C               	setf	28,b	;volatile
   851                           
   852                           ;mcc_generated_files/pin_manager.c: 132:     INLVLE = 0x0F;
   853   01FE74  0E0F               	movlw	15
   854   01FE76  6F24               	movwf	36,b	;volatile
   855   01FE78                     
   856                           ; BSR set to: 4
   857                           ;mcc_generated_files/pin_manager.c: 133:     INLVLF = 0xFF;
   858   01FE78  692C               	setf	44,b	;volatile
   859   01FE7A                     
   860                           ; BSR set to: 4
   861   01FE7A  0012               	return		;funcret
   862   01FE7C                     __end_of_PIN_MANAGER_Initialize:
   863                           	callstack 0
   864                           
   865 ;; *************** function _OSCILLATOR_Initialize *****************
   866 ;; Defined at:
   867 ;;		line 58 in file "mcc_generated_files/mcc.c"
   868 ;; Parameters:    Size  Location     Type
   869 ;;		None
   870 ;; Auto vars:     Size  Location     Type
   871 ;;		None
   872 ;; Return value:  Size  Location     Type
   873 ;;                  1    wreg      void 
   874 ;; Registers used:
   875 ;;		wreg, status,2
   876 ;; Tracked objects:
   877 ;;		On entry : 0/0
   878 ;;		On exit  : 0/0
   879 ;;		Unchanged: 0/0
   880 ;; Data sizes:     COMRAM   BANK5   BANK6   BANK7   BANK8   BANK9  BANK10  BANK11  BANK12  BANK13  BANK14  BANK15  BANK1
      +6  BANK17  BANK18  BANK19  BANK20  BANK21  BANK22  BANK23  BANK24  BANK25  BANK26  BANK27  BANK28  BANK29  BANK30  BANK3
      +1  BANK32  BANK33  BANK34  BANK35  BANK36
   881 ;;      Params:         0       0       0       0       0       0       0       0       0       0       0       0       
      +0       0       0       0       0       0       0       0       0       0       0       0       0       0       0       
      +0       0       0       0       0       0
   882 ;;      Locals:         0       0       0       0       0       0       0       0       0       0       0       0       
      +0       0       0       0       0       0       0       0       0       0       0       0       0       0       0       
      +0       0       0       0       0       0
   883 ;;      Temps:          0       0       0       0       0       0       0       0       0       0       0       0       
      +0       0       0       0       0       0       0       0       0       0       0       0       0       0       0       
      +0       0       0       0       0       0
   884 ;;      Totals:         0       0       0       0       0       0       0       0       0       0       0       0       
      +0       0       0       0       0       0       0       0       0       0       0       0       0       0       0       
      +0       0       0       0       0       0
   885 ;;Total ram usage:        0 bytes
   886 ;; Hardware stack levels used: 1
   887 ;; This function calls:
   888 ;;		Nothing
   889 ;; This function is called by:
   890 ;;		_SYSTEM_Initialize
   891 ;; This function uses a non-reentrant model
   892 ;;
   893                           
   894                           	psect	text4
   895   01FD7C                     __ptext4:
   896                           	callstack 0
   897   01FD7C                     _OSCILLATOR_Initialize:
   898                           	callstack 125
   899   01FD7C                     
   900                           ;mcc_generated_files/mcc.c: 61:     OSCCON1 = 0x62;
   901   01FD7C  0E62               	movlw	98
   902   01FD7E  0100               	movlb	0	; () banked
   903   01FD80  6FAD               	movwf	173,b	;volatile
   904                           
   905                           ;mcc_generated_files/mcc.c: 63:     OSCCON3 = 0x00;
   906   01FD82  0E00               	movlw	0
   907   01FD84  6FAF               	movwf	175,b	;volatile
   908                           
   909                           ;mcc_generated_files/mcc.c: 65:     OSCEN = 0x00;
   910   01FD86  0E00               	movlw	0
   911   01FD88  6FB3               	movwf	179,b	;volatile
   912                           
   913                           ;mcc_generated_files/mcc.c: 67:     OSCFRQ = 0x02;
   914   01FD8A  0E02               	movlw	2
   915   01FD8C  6FB1               	movwf	177,b	;volatile
   916                           
   917                           ;mcc_generated_files/mcc.c: 69:     OSCTUNE = 0x00;
   918   01FD8E  0E00               	movlw	0
   919   01FD90  6FB0               	movwf	176,b	;volatile
   920                           
   921                           ;mcc_generated_files/mcc.c: 71:     ACTCON = 0x00;
   922   01FD92  0E00               	movlw	0
   923   01FD94  6FAC               	movwf	172,b	;volatile
   924   01FD96                     
   925                           ; BSR set to: 0
   926   01FD96  0012               	return		;funcret
   927   01FD98                     __end_of_OSCILLATOR_Initialize:
   928                           	callstack 0
   929                           
   930 ;; *************** function _DAC1_Initialize *****************
   931 ;; Defined at:
   932 ;;		line 58 in file "mcc_generated_files/dac1.c"
   933 ;; Parameters:    Size  Location     Type
   934 ;;		None
   935 ;; Auto vars:     Size  Location     Type
   936 ;;		None
   937 ;; Return value:  Size  Location     Type
   938 ;;                  1    wreg      void 
   939 ;; Registers used:
   940 ;;		wreg, status,2
   941 ;; Tracked objects:
   942 ;;		On entry : 0/0
   943 ;;		On exit  : 0/0
   944 ;;		Unchanged: 0/0
   945 ;; Data sizes:     COMRAM   BANK5   BANK6   BANK7   BANK8   BANK9  BANK10  BANK11  BANK12  BANK13  BANK14  BANK15  BANK1
      +6  BANK17  BANK18  BANK19  BANK20  BANK21  BANK22  BANK23  BANK24  BANK25  BANK26  BANK27  BANK28  BANK29  BANK30  BANK3
      +1  BANK32  BANK33  BANK34  BANK35  BANK36
   946 ;;      Params:         0       0       0       0       0       0       0       0       0       0       0       0       
      +0       0       0       0       0       0       0       0       0       0       0       0       0       0       0       
      +0       0       0       0       0       0
   947 ;;      Locals:         0       0       0       0       0       0       0       0       0       0       0       0       
      +0       0       0       0       0       0       0       0       0       0       0       0       0       0       0       
      +0       0       0       0       0       0
   948 ;;      Temps:          0       0       0       0       0       0       0       0       0       0       0       0       
      +0       0       0       0       0       0       0       0       0       0       0       0       0       0       0       
      +0       0       0       0       0       0
   949 ;;      Totals:         0       0       0       0       0       0       0       0       0       0       0       0       
      +0       0       0       0       0       0       0       0       0       0       0       0       0       0       0       
      +0       0       0       0       0       0
   950 ;;Total ram usage:        0 bytes
   951 ;; Hardware stack levels used: 1
   952 ;; This function calls:
   953 ;;		Nothing
   954 ;; This function is called by:
   955 ;;		_SYSTEM_Initialize
   956 ;;		_main
   957 ;; This function uses a non-reentrant model
   958 ;;
   959                           
   960                           	psect	text5
   961   01FD5E                     __ptext5:
   962                           	callstack 0
   963   01FD5E                     _DAC1_Initialize:
   964                           	callstack 125
   965   01FD5E                     
   966                           ;mcc_generated_files/dac1.c: 61:     DAC1CON = 0xA0;
   967   01FD5E  0EA0               	movlw	160
   968   01FD60  0100               	movlb	0	; () banked
   969   01FD62  6F7F               	movwf	127,b	;volatile
   970                           
   971                           ;mcc_generated_files/dac1.c: 63:     DAC1DATL = 0x33;
   972   01FD64  0E33               	movlw	51
   973   01FD66  6F7D               	movwf	125,b	;volatile
   974   01FD68                     
   975                           ; BSR set to: 0
   976   01FD68  0012               	return		;funcret
   977   01FD6A                     __end_of_DAC1_Initialize:
   978                           	callstack 0
   979                           
   980 ;; *************** function _DAC1_SetOutput *****************
   981 ;; Defined at:
   982 ;;		line 66 in file "mcc_generated_files/dac1.c"
   983 ;; Parameters:    Size  Location     Type
   984 ;;  inputData       1    wreg     unsigned char 
   985 ;; Auto vars:     Size  Location     Type
   986 ;;  inputData       1    0[COMRAM] unsigned char 
   987 ;; Return value:  Size  Location     Type
   988 ;;                  1    wreg      void 
   989 ;; Registers used:
   990 ;;		wreg
   991 ;; Tracked objects:
   992 ;;		On entry : 0/0
   993 ;;		On exit  : 0/0
   994 ;;		Unchanged: 0/0
   995 ;; Data sizes:     COMRAM   BANK5   BANK6   BANK7   BANK8   BANK9  BANK10  BANK11  BANK12  BANK13  BANK14  BANK15  BANK1
      +6  BANK17  BANK18  BANK19  BANK20  BANK21  BANK22  BANK23  BANK24  BANK25  BANK26  BANK27  BANK28  BANK29  BANK30  BANK3
      +1  BANK32  BANK33  BANK34  BANK35  BANK36
   996 ;;      Params:         0       0       0       0       0       0       0       0       0       0       0       0       
      +0       0       0       0       0       0       0       0       0       0       0       0       0       0       0       
      +0       0       0       0       0       0
   997 ;;      Locals:         1       0       0       0       0       0       0       0       0       0       0       0       
      +0       0       0       0       0       0       0       0       0       0       0       0       0       0       0       
      +0       0       0       0       0       0
   998 ;;      Temps:          0       0       0       0       0       0       0       0       0       0       0       0       
      +0       0       0       0       0       0       0       0       0       0       0       0       0       0       0       
      +0       0       0       0       0       0
   999 ;;      Totals:         1       0       0       0       0       0       0       0       0       0       0       0       
      +0       0       0       0       0       0       0       0       0       0       0       0       0       0       0       
      +0       0       0       0       0       0
  1000 ;;Total ram usage:        1 bytes
  1001 ;; Hardware stack levels used: 1
  1002 ;; This function calls:
  1003 ;;		Nothing
  1004 ;; This function is called by:
  1005 ;;		_main
  1006 ;; This function uses a non-reentrant model
  1007 ;;
  1008                           
  1009                           	psect	text6
  1010   01FD56                     __ptext6:
  1011                           	callstack 0
  1012   01FD56                     _DAC1_SetOutput:
  1013                           	callstack 126
  1014                           
  1015                           ; BSR set to: 0
  1016                           ;incstack = 0
  1017                           ;DAC1_SetOutput@inputData stored from wreg
  1018   01FD56  6E01               	movwf	DAC1_SetOutput@inputData^(0+1280),c
  1019   01FD58                     
  1020                           ;mcc_generated_files/dac1.c: 66: void DAC1_SetOutput(uint8_t inputData);mcc_generated_fi
      +                          les/dac1.c: 67: {;mcc_generated_files/dac1.c: 68:     DAC1DATL = inputData;
  1021   01FD58  C501  F07D         	movff	DAC1_SetOutput@inputData,125	;volatile
  1022   01FD5C  0012               	return		;funcret
  1023   01FD5E                     __end_of_DAC1_SetOutput:
  1024                           	callstack 0
  1025   000000                     
  1026                           	psect	rparam
  1027   000000                     
  1028                           	psect	idloc
  1029                           
  1030                           ;Config register IDLOC0 @ 0x200000
  1031                           ;	unspecified, using default values
  1032   200000                     	org	2097152
  1033   200000  0FFF               	dw	4095
  1034                           
  1035                           ;Config register IDLOC1 @ 0x200002
  1036                           ;	unspecified, using default values
  1037   200002                     	org	2097154
  1038   200002  0FFF               	dw	4095
  1039                           
  1040                           ;Config register IDLOC2 @ 0x200004
  1041                           ;	unspecified, using default values
  1042   200004                     	org	2097156
  1043   200004  0FFF               	dw	4095
  1044                           
  1045                           ;Config register IDLOC3 @ 0x200006
  1046                           ;	unspecified, using default values
  1047   200006                     	org	2097158
  1048   200006  0FFF               	dw	4095
  1049                           
  1050                           ;Config register IDLOC4 @ 0x200008
  1051                           ;	unspecified, using default values
  1052   200008                     	org	2097160
  1053   200008  0FFF               	dw	4095
  1054                           
  1055                           ;Config register IDLOC5 @ 0x20000A
  1056                           ;	unspecified, using default values
  1057   20000A                     	org	2097162
  1058   20000A  0FFF               	dw	4095
  1059                           
  1060                           ;Config register IDLOC6 @ 0x20000C
  1061                           ;	unspecified, using default values
  1062   20000C                     	org	2097164
  1063   20000C  0FFF               	dw	4095
  1064                           
  1065                           ;Config register IDLOC7 @ 0x20000E
  1066                           ;	unspecified, using default values
  1067   20000E                     	org	2097166
  1068   20000E  0FFF               	dw	4095
  1069                           
  1070                           ;Config register IDLOC8 @ 0x200010
  1071                           ;	unspecified, using default values
  1072   200010                     	org	2097168
  1073   200010  0FFF               	dw	4095
  1074                           
  1075                           ;Config register IDLOC9 @ 0x200012
  1076                           ;	unspecified, using default values
  1077   200012                     	org	2097170
  1078   200012  0FFF               	dw	4095
  1079                           
  1080                           ;Config register IDLOC10 @ 0x200014
  1081                           ;	unspecified, using default values
  1082   200014                     	org	2097172
  1083   200014  0FFF               	dw	4095
  1084                           
  1085                           ;Config register IDLOC11 @ 0x200016
  1086                           ;	unspecified, using default values
  1087   200016                     	org	2097174
  1088   200016  0FFF               	dw	4095
  1089                           
  1090                           ;Config register IDLOC12 @ 0x200018
  1091                           ;	unspecified, using default values
  1092   200018                     	org	2097176
  1093   200018  0FFF               	dw	4095
  1094                           
  1095                           ;Config register IDLOC13 @ 0x20001A
  1096                           ;	unspecified, using default values
  1097   20001A                     	org	2097178
  1098   20001A  0FFF               	dw	4095
  1099                           
  1100                           ;Config register IDLOC14 @ 0x20001C
  1101                           ;	unspecified, using default values
  1102   20001C                     	org	2097180
  1103   20001C  0FFF               	dw	4095
  1104                           
  1105                           ;Config register IDLOC15 @ 0x20001E
  1106                           ;	unspecified, using default values
  1107   20001E                     	org	2097182
  1108   20001E  0FFF               	dw	4095
  1109                           
  1110                           ;Config register IDLOC16 @ 0x200020
  1111                           ;	unspecified, using default values
  1112   200020                     	org	2097184
  1113   200020  0FFF               	dw	4095
  1114                           
  1115                           ;Config register IDLOC17 @ 0x200022
  1116                           ;	unspecified, using default values
  1117   200022                     	org	2097186
  1118   200022  0FFF               	dw	4095
  1119                           
  1120                           ;Config register IDLOC18 @ 0x200024
  1121                           ;	unspecified, using default values
  1122   200024                     	org	2097188
  1123   200024  0FFF               	dw	4095
  1124                           
  1125                           ;Config register IDLOC19 @ 0x200026
  1126                           ;	unspecified, using default values
  1127   200026                     	org	2097190
  1128   200026  0FFF               	dw	4095
  1129                           
  1130                           ;Config register IDLOC20 @ 0x200028
  1131                           ;	unspecified, using default values
  1132   200028                     	org	2097192
  1133   200028  0FFF               	dw	4095
  1134                           
  1135                           ;Config register IDLOC21 @ 0x20002A
  1136                           ;	unspecified, using default values
  1137   20002A                     	org	2097194
  1138   20002A  0FFF               	dw	4095
  1139                           
  1140                           ;Config register IDLOC22 @ 0x20002C
  1141                           ;	unspecified, using default values
  1142   20002C                     	org	2097196
  1143   20002C  0FFF               	dw	4095
  1144                           
  1145                           ;Config register IDLOC23 @ 0x20002E
  1146                           ;	unspecified, using default values
  1147   20002E                     	org	2097198
  1148   20002E  0FFF               	dw	4095
  1149                           
  1150                           ;Config register IDLOC24 @ 0x200030
  1151                           ;	unspecified, using default values
  1152   200030                     	org	2097200
  1153   200030  0FFF               	dw	4095
  1154                           
  1155                           ;Config register IDLOC25 @ 0x200032
  1156                           ;	unspecified, using default values
  1157   200032                     	org	2097202
  1158   200032  0FFF               	dw	4095
  1159                           
  1160                           ;Config register IDLOC26 @ 0x200034
  1161                           ;	unspecified, using default values
  1162   200034                     	org	2097204
  1163   200034  0FFF               	dw	4095
  1164                           
  1165                           ;Config register IDLOC27 @ 0x200036
  1166                           ;	unspecified, using default values
  1167   200036                     	org	2097206
  1168   200036  0FFF               	dw	4095
  1169                           
  1170                           ;Config register IDLOC28 @ 0x200038
  1171                           ;	unspecified, using default values
  1172   200038                     	org	2097208
  1173   200038  0FFF               	dw	4095
  1174                           
  1175                           ;Config register IDLOC29 @ 0x20003A
  1176                           ;	unspecified, using default values
  1177   20003A                     	org	2097210
  1178   20003A  0FFF               	dw	4095
  1179                           
  1180                           ;Config register IDLOC30 @ 0x20003C
  1181                           ;	unspecified, using default values
  1182   20003C                     	org	2097212
  1183   20003C  0FFF               	dw	4095
  1184                           
  1185                           ;Config register IDLOC31 @ 0x20003E
  1186                           ;	unspecified, using default values
  1187   20003E                     	org	2097214
  1188   20003E  0FFF               	dw	4095
  1189                           
  1190                           	psect	config
  1191                           
  1192                           ;Config register CONFIG1 @ 0x300000
  1193                           ;	External Oscillator Selection
  1194                           ;	FEXTOSC = OFF, Oscillator not enabled
  1195                           ;	Reset Oscillator Selection
  1196                           ;	RSTOSC = HFINTOSC_1MHZ, HFINTOSC with HFFRQ = 4 MHz and CDIV = 4:1
  1197   300000                     	org	3145728
  1198   300000  EC                 	db	236
  1199                           
  1200                           ;Config register CONFIG2 @ 0x300001
  1201                           ;	Clock out Enable bit
  1202                           ;	CLKOUTEN = OFF, CLKOUT function is disabled
  1203                           ;	PRLOCKED One-Way Set Enable bit
  1204                           ;	PR1WAY = ON, PRLOCKED bit can be cleared and set only once
  1205                           ;	Clock Switch Enable bit
  1206                           ;	CSWEN = ON, Writing to NOSC and NDIV is allowed
  1207                           ;	Fail-Safe Clock Monitor Enable bit
  1208                           ;	FCMEN = ON, Fail-Safe Clock Monitor enabled
  1209   300001                     	org	3145729
  1210   300001  FF                 	db	255
  1211                           
  1212                           ;Config register CONFIG3 @ 0x300002
  1213                           ;	MCLR Enable bit
  1214                           ;	MCLRE = EXTMCLR, If LVP = 0, MCLR pin is MCLR; If LVP = 1, RE3 pin function is MCLR
  1215                           ;	Power-up timer selection bits
  1216                           ;	PWRTS = PWRT_OFF, PWRT is disabled
  1217                           ;	Multi-vector enable bit
  1218                           ;	MVECEN = OFF, Interrupt contoller does not use vector table to prioritze interrupts
  1219                           ;	IVTLOCK bit One-way set enable bit
  1220                           ;	IVT1WAY = ON, IVTLOCKED bit can be cleared and set only once
  1221                           ;	Low Power BOR Enable bit
  1222                           ;	LPBOREN = OFF, Low-Power BOR disabled
  1223                           ;	Brown-out Reset Enable bits
  1224                           ;	BOREN = SBORDIS, Brown-out Reset enabled , SBOREN bit is ignored
  1225   300002                     	org	3145730
  1226   300002  F7                 	db	247
  1227                           
  1228                           ;Config register CONFIG4 @ 0x300003
  1229                           ;	Brown-out Reset Voltage Selection bits
  1230                           ;	BORV = VBOR_1P9, Brown-out Reset Voltage (VBOR) set to 1.9V
  1231                           ;	ZCD Disable bit
  1232                           ;	ZCD = OFF, ZCD module is disabled. ZCD can be enabled by setting the ZCDSEN bit of ZCD
      +                          CON
  1233                           ;	PPSLOCK bit One-Way Set Enable bit
  1234                           ;	PPS1WAY = ON, PPSLOCKED bit can be cleared and set only once; PPS registers remain loc
      +                          ked after one clear/set cycle
  1235                           ;	Stack Full/Underflow Reset Enable bit
  1236                           ;	STVREN = ON, Stack full/underflow will cause Reset
  1237                           ;	Low Voltage Programming Enable bit
  1238                           ;	LVP = ON, Low voltage programming enabled. MCLR/VPP pin function is MCLR. MCLRE config
      +                          uration bit is ignored
  1239                           ;	Extended Instruction Set Enable bit
  1240                           ;	XINST = OFF, Extended Instruction Set and Indexed Addressing Mode disabled
  1241   300003                     	org	3145731
  1242   300003  FF                 	db	255
  1243                           
  1244                           ;Config register CONFIG5 @ 0x300004
  1245                           ;	WDT Period selection bits
  1246                           ;	WDTCPS = WDTCPS_31, Divider ratio 1:65536; software control of WDTPS
  1247                           ;	WDT operating mode
  1248                           ;	WDTE = OFF, WDT Disabled; SWDTEN is ignored
  1249   300004                     	org	3145732
  1250   300004  9F                 	db	159
  1251                           
  1252                           ;Config register CONFIG6 @ 0x300005
  1253                           ;	WDT Window Select bits
  1254                           ;	WDTCWS = WDTCWS_7, window always open (100%); software control; keyed access not requi
      +                          red
  1255                           ;	WDT input clock selector
  1256                           ;	WDTCCS = SC, Software Control
  1257   300005                     	org	3145733
  1258   300005  FF                 	db	255
  1259                           
  1260                           ;Config register CONFIG7 @ 0x300006
  1261                           ;	Boot Block Size selection bits
  1262                           ;	BBSIZE = BBSIZE_512, Boot Block size is 512 words
  1263                           ;	Boot Block enable bit
  1264                           ;	BBEN = OFF, Boot block disabled
  1265                           ;	Storage Area Flash enable bit
  1266                           ;	SAFEN = OFF, SAF disabled
  1267                           ;	Background Debugger
  1268                           ;	DEBUG = OFF, Background Debugger disabled
  1269   300006                     	org	3145734
  1270   300006  FF                 	db	255
  1271                           
  1272                           ;Config register CONFIG8 @ 0x300007
  1273                           ;	Boot Block Write Protection bit
  1274                           ;	WRTB = OFF, Boot Block not Write protected
  1275                           ;	Configuration Register Write Protection bit
  1276                           ;	WRTC = OFF, Configuration registers not Write protected
  1277                           ;	Data EEPROM Write Protection bit
  1278                           ;	WRTD = OFF, Data EEPROM not Write protected
  1279                           ;	SAF Write protection bit
  1280                           ;	WRTSAF = OFF, SAF not Write Protected
  1281                           ;	Application Block write protection bit
  1282                           ;	WRTAPP = OFF, Application Block not write protected
  1283   300007                     	org	3145735
  1284   300007  FF                 	db	255
  1285                           
  1286                           ; Padding undefined space
  1287   300008                     	org	3145736
  1288   300008  FF                 	db	255
  1289                           
  1290                           ;Config register CONFIG10 @ 0x300009
  1291                           ;	PFM and Data EEPROM Code Protection bit
  1292                           ;	CP = OFF, PFM and Data EEPROM code protection disabled
  1293   300009                     	org	3145737
  1294   300009  FF                 	db	255
  1295                           tosu	equ	0x4FF
  1296                           tosh	equ	0x4FE
  1297                           tosl	equ	0x4FD
  1298                           stkptr	equ	0x4FC
  1299                           pclatu	equ	0x4FB
  1300                           pclath	equ	0x4FA
  1301                           pcl	equ	0x4F9
  1302                           tblptru	equ	0x4F8
  1303                           tblptrh	equ	0x4F7
  1304                           tblptrl	equ	0x4F6
  1305                           tablat	equ	0x4F5
  1306                           prodh	equ	0x4F4
  1307                           prodl	equ	0x4F3
  1308                           indf0	equ	0x4EF
  1309                           postinc0	equ	0x4EE
  1310                           postdec0	equ	0x4ED
  1311                           preinc0	equ	0x4EC
  1312                           plusw0	equ	0x4EB
  1313                           fsr0h	equ	0x4EA
  1314                           fsr0l	equ	0x4E9
  1315                           wreg	equ	0x4E8
  1316                           indf1	equ	0x4E7
  1317                           postinc1	equ	0x4E6
  1318                           postdec1	equ	0x4E5
  1319                           preinc1	equ	0x4E4
  1320                           plusw1	equ	0x4E3
  1321                           fsr1h	equ	0x4E2
  1322                           fsr1l	equ	0x4E1
  1323                           bsr	equ	0x4E0
  1324                           indf2	equ	0x4DF
  1325                           postinc2	equ	0x4DE
  1326                           postdec2	equ	0x4DD
  1327                           preinc2	equ	0x4DC
  1328                           plusw2	equ	0x4DB
  1329                           fsr2h	equ	0x4DA
  1330                           fsr2l	equ	0x4D9
  1331                           status	equ	0x4D8

Data Sizes:
    Strings     0
    Constant    0
    Data        200
    BSS         0
    Persistent  0
    Stack       0

Auto Spaces:
    Space          Size  Autos    Used
    COMRAM           95      7       7
    BANK5           160      0       0
    BANK6           256      0     200
    BANK7           256      0       0
    BANK8           256      0       0
    BANK9           256      0       0
    BANK10          256      0       0
    BANK11          256      0       0
    BANK12          256      0       0
    BANK13          256      0       0
    BANK14          256      0       0
    BANK15          256      0       0
    BANK16          256      0       0
    BANK17          256      0       0
    BANK18          256      0       0
    BANK19          256      0       0
    BANK20          256      0       0
    BANK21          256      0       0
    BANK22          256      0       0
    BANK23          256      0       0
    BANK24          256      0       0
    BANK25          256      0       0
    BANK26          256      0       0
    BANK27          256      0       0
    BANK28          256      0       0
    BANK29          256      0       0
    BANK30          256      0       0
    BANK31          256      0       0
    BANK32          256      0       0
    BANK33          256      0       0
    BANK34          256      0       0
    BANK35          256      0       0
    BANK36          256      0       0

Pointer List with Targets:

    None.

Critical Paths under _main in COMRAM

    _main->_DAC1_SetOutput

Critical Paths under _main in BANK5

    None.

Critical Paths under _main in BANK6

    None.

Critical Paths under _main in BANK7

    None.

Critical Paths under _main in BANK8

    None.

Critical Paths under _main in BANK9

    None.

Critical Paths under _main in BANK10

    None.

Critical Paths under _main in BANK11

    None.

Critical Paths under _main in BANK12

    None.

Critical Paths under _main in BANK13

    None.

Critical Paths under _main in BANK14

    None.

Critical Paths under _main in BANK15

    None.

Critical Paths under _main in BANK16

    None.

Critical Paths under _main in BANK17

    None.

Critical Paths under _main in BANK18

    None.

Critical Paths under _main in BANK19

    None.

Critical Paths under _main in BANK20

    None.

Critical Paths under _main in BANK21

    None.

Critical Paths under _main in BANK22

    None.

Critical Paths under _main in BANK23

    None.

Critical Paths under _main in BANK24

    None.

Critical Paths under _main in BANK25

    None.

Critical Paths under _main in BANK26

    None.

Critical Paths under _main in BANK27

    None.

Critical Paths under _main in BANK28

    None.

Critical Paths under _main in BANK29

    None.

Critical Paths under _main in BANK30

    None.

Critical Paths under _main in BANK31

    None.

Critical Paths under _main in BANK32

    None.

Critical Paths under _main in BANK33

    None.

Critical Paths under _main in BANK34

    None.

Critical Paths under _main in BANK35

    None.

Critical Paths under _main in BANK36

    None.

Call Graph Tables:

 ---------------------------------------------------------------------------------
 (Depth) Function   	        Calls       Base Space   Used Autos Params    Refs
 ---------------------------------------------------------------------------------
 (0) _main                                                 6     6      0     150
                                              1 COMRAM     6     6      0
                    _DAC1_Initialize
                     _DAC1_SetOutput
                  _SYSTEM_Initialize
 ---------------------------------------------------------------------------------
 (1) _SYSTEM_Initialize                                    0     0      0       0
                    _DAC1_Initialize
              _OSCILLATOR_Initialize
             _PIN_MANAGER_Initialize
                     _PMD_Initialize
 ---------------------------------------------------------------------------------
 (2) _PMD_Initialize                                       0     0      0       0
 ---------------------------------------------------------------------------------
 (2) _PIN_MANAGER_Initialize                               0     0      0       0
 ---------------------------------------------------------------------------------
 (2) _OSCILLATOR_Initialize                                0     0      0       0
 ---------------------------------------------------------------------------------
 (2) _DAC1_Initialize                                      0     0      0       0
 ---------------------------------------------------------------------------------
 (1) _DAC1_SetOutput                                       1     1      0      15
                                              0 COMRAM     1     1      0
 ---------------------------------------------------------------------------------
 Estimated maximum stack depth 2
 ---------------------------------------------------------------------------------

 Call Graph Graphs:

 _main (ROOT)
   _DAC1_Initialize
   _DAC1_SetOutput
   _SYSTEM_Initialize
     _DAC1_Initialize
     _OSCILLATOR_Initialize
     _PIN_MANAGER_Initialize
     _PMD_Initialize

 Address spaces:
Name               Size   Autos  Total    Cost      Usage
BIGRAM            1FFF      0       0      70        0.0%
EEDATA             400      0       0       0        0.0%
BITBIGSFRhhhhll    1D2      0       0      80        0.0%
BITBIGSFRhhhhll    176      0       0      79        0.0%
BITBIGSFR_1        100      0       0      69        0.0%
BITBANK36          100      0       0      67        0.0%
BANK36             100      0       0      68        0.0%
BITBANK35          100      0       0      65        0.0%
BANK35             100      0       0      66        0.0%
BITBANK34          100      0       0      63        0.0%
BANK34             100      0       0      64        0.0%
BITBANK33          100      0       0      61        0.0%
BANK33             100      0       0      62        0.0%
BITBANK32          100      0       0      59        0.0%
BANK32             100      0       0      60        0.0%
BITBANK31          100      0       0      57        0.0%
BANK31             100      0       0      58        0.0%
BITBANK30          100      0       0      55        0.0%
BANK30             100      0       0      56        0.0%
BITBANK29          100      0       0      53        0.0%
BANK29             100      0       0      54        0.0%
BITBANK28          100      0       0      51        0.0%
BANK28             100      0       0      52        0.0%
BITBANK27          100      0       0      49        0.0%
BANK27             100      0       0      50        0.0%
BITBANK26          100      0       0      46        0.0%
BANK26             100      0       0      47        0.0%
BITBANK25          100      0       0      44        0.0%
BANK25             100      0       0      45        0.0%
BITBANK24          100      0       0      42        0.0%
BANK24             100      0       0      43        0.0%
BITBANK23          100      0       0      40        0.0%
BANK23             100      0       0      41        0.0%
BITBANK22          100      0       0      38        0.0%
BANK22             100      0       0      39        0.0%
BITBANK21          100      0       0      36        0.0%
BANK21             100      0       0      37        0.0%
BITBANK20          100      0       0      34        0.0%
BANK20             100      0       0      35        0.0%
BITBANK19          100      0       0      32        0.0%
BANK19             100      0       0      33        0.0%
BITBANK18          100      0       0      30        0.0%
BANK18             100      0       0      31        0.0%
BITBANK17          100      0       0      28        0.0%
BANK17             100      0       0      29        0.0%
BITBANK16          100      0       0      26        0.0%
BANK16             100      0       0      27        0.0%
BITBANK15          100      0       0      24        0.0%
BANK15             100      0       0      25        0.0%
BITBANK14          100      0       0      22        0.0%
BANK14             100      0       0      23        0.0%
BITBANK13          100      0       0      20        0.0%
BANK13             100      0       0      21        0.0%
BITBANK12          100      0       0      18        0.0%
BANK12             100      0       0      19        0.0%
BITBANK11          100      0       0      16        0.0%
BANK11             100      0       0      17        0.0%
BITBANK10          100      0       0      14        0.0%
BANK10             100      0       0      15        0.0%
BITBANK9           100      0       0      12        0.0%
BANK9              100      0       0      13        0.0%
BITBANK8           100      0       0      10        0.0%
BANK8              100      0       0      11        0.0%
BITBANK7           100      0       0       8        0.0%
BANK7              100      0       0       9        0.0%
BITBANK6           100      0       0       6        0.0%
BANK6              100      0      C8       7       78.1%
BITBANK5            A0      0       0       4        0.0%
BANK5               A0      0       0       5        0.0%
BITBIGSFRhhhhll     91      0       0      73        0.0%
BITBIGSFRlll        60      0       0      87        0.0%
BITCOMRAM           5F      0       0       0        0.0%
COMRAM              5F      7       7       1        7.4%
BITBIGSFRhhhhhh     34      0       0      71        0.0%
BITBIGSFRhl         2C      0       0      83        0.0%
BITBIGSFRllhh       14      0       0      85        0.0%
BITBIGSFRhhhhll      3      0       0      78        0.0%
BITBIGSFRhhhhll      3      0       0      74        0.0%
BITBIGSFRhhhhll      3      0       0      77        0.0%
BITBIGSFRhhhhll      3      0       0      76        0.0%
BITBIGSFRhhhhll      3      0       0      75        0.0%
BITBIGSFRhhhhhl      2      0       0      72        0.0%
BITBIGSFRllhl        1      0       0      86        0.0%
BITBIGSFRhhhlh       1      0       0      81        0.0%
BITBIGSFRhhl         1      0       0      82        0.0%
BITBIGSFRlh          1      0       0      84        0.0%
BIGSFR_1             0      0       0     200        0.0%
BIGSFR               0      0       0     200        0.0%
BITSFR_6             0      0       0     200        0.0%
SFR_6                0      0       0     200        0.0%
BITSFR_5             0      0       0     200        0.0%
SFR_5                0      0       0     200        0.0%
BITSFR_4             0      0       0     200        0.0%
SFR_4                0      0       0     200        0.0%
BITSFR_3             0      0       0     200        0.0%
SFR_3                0      0       0     200        0.0%
BITSFR_2             0      0       0     200        0.0%
SFR_2                0      0       0     200        0.0%
BITSFR_1             0      0       0     200        0.0%
SFR_1                0      0       0     200        0.0%
BITSFR               0      0       0     200        0.0%
SFR                  0      0       0     200        0.0%
STACK                0      0       0       2        0.0%
NULL                 0      0       0       0        0.0%
ABS                  0      0      CF      48        0.0%
DATA                 0      0      CF       3        0.0%
CODE                 0      0       0       0        0.0%


Microchip Technology PIC18 Macro Assembler V2.40 build 20220703182018 
Symbol Table                                                                                   Mon Nov 28 17:07:16 2022

                             l7 FD68                              l10 FD5C                              l52 FD7A  
                            l55 FD96                              l58 FDBA                              u10 FEA6  
                            u11 FEA2                              u20 FEEE                              u21 FEEA  
                            u30 FF0E                              u31 FF0A                              u40 FF2C  
                            u41 FF28                 _DAC1_Initialize FD5E                             l153 FE7A  
                           l901 FD58                             l903 FD6A                             l911 FE84  
                           l921 FEA6                             l861 FDFE                             l941 FEF2  
                           l933 FEB6                             l917 FE8C                             l909 FE7C  
                           l855 FD5E                             l871 FE08                             l863 FE00  
                           l935 FECE                             l927 FEAE                             l943 FF0E  
                           l919 FE92                             l881 FE60                             l873 FE0C  
                           l865 FE02                             l857 FD98                             l945 FF12  
                           l937 FED2                             l891 FE6E                             l883 FE62  
                           l875 FE0E                             l867 FE04                             l859 FDE2  
                           l939 FEEE                             l893 FE70                             l885 FE64  
                           l877 FE14                             l869 FE06                             l895 FE72  
                           l887 FE6A                             l879 FE5E                             l897 FE78  
                           l889 FE6C                             l899 FD7C                  _DAC1_SetOutput FD56  
                          _LATA 0004BE                            _LATB 0004BF                            _LATC 0004C0  
                          _LATD 0004C1                            _LATE 0004C2                            _LATF 0004C3  
                          _PMD0 000060                            _PMD1 000061                            _PMD3 000063  
                          _PMD4 000064                            _PMD5 000065                            _PMD6 000066  
                          _PMD7 000067                            _PMD8 000068                            _WPUA 000401  
                          _WPUB 000409                            _WPUC 000411                            _WPUD 000419  
                          _WPUE 000421                            _WPUF 000429                            _main FE7C  
                          fsr2h 0004DA                            indf2 0004DF                            fsr1l 0004E1  
                          fsr2l 0004D9                            start FFFC                    ___param_bank 000000  
 __end_of_OSCILLATOR_Initialize FD98                           ?_main 0501          __end_of_DAC1_SetOutput FD5E  
                         _OSCEN 0000B3                           _TRISA 0004C6                           _TRISB 0004C7  
                         _TRISC 0004C8                           _TRISD 0004C9                           _TRISE 0004CA  
                         _TRISF 0004CB                           main@a 0502                           main@i 0506  
                         tablat 0004F5                           status 0004D8                 __initialization FDBC  
                  __end_of_main FF34         __end_of_DAC1_Initialize FD6A                          ??_main 0502  
                 __activetblptr 000000                 ?_DAC1_SetOutput 0501                          _ACTCON 0000AC  
                        _ANSELA 000400                          _ANSELB 000408                          _ANSELC 000410  
                        _ANSELD 000418                          _ANSELE 000420                          _ANSELF 000428  
                        _RB1I2C 000289                          _RB2I2C 000288                          _RC3I2C 000287  
                        _RC4I2C 000286                          _ODCONA 000402                          _ODCONB 00040A  
                        _ODCONC 000412                          _ODCOND 00041A                          _ODCONE 000422  
                        _ODCONF 00042A                          _INLVLA 000404                          _INLVLB 00040C  
                        _INLVLC 000414                          _INLVLD 00041C                          _INLVLE 000424  
                        _INLVLF 00042C                          _OSCFRQ 0000B1         DAC1_SetOutput@inputData 0501  
                        isa$std 000001                  _PMD_Initialize FD98                          tblptrh 0004F7  
                        tblptrl 0004F6                          tblptru 0004F8               _SYSTEM_Initialize FD6A  
                    __accesstop 0560         __end_of__initialization FDDC              ?_SYSTEM_Initialize 0501  
                 ___rparam_used 000001                  __pcstackCOMRAM 0501                    __pidataBANK6 FF34  
           ??_SYSTEM_Initialize 0501                ?_DAC1_Initialize 0501          __end_of_PMD_Initialize FDBC  
     __end_of_SYSTEM_Initialize FD7C                         _DAC1CON 00007F               main@sample_number 0504  
               ?_PMD_Initialize 0501                         _OSCCON1 0000AD                         _OSCCON3 0000AF  
                       _OSCTUNE 0000B0                         _SLRCONA 000403                         _SLRCONB 00040B  
                       _SLRCONC 000413                         _SLRCOND 00041B                         _SLRCONE 000423  
                       _SLRCONF 00042B                         __Hparam 0000                         __Lparam 0000  
              ??_DAC1_SetOutput 0501                         __pcinit FDBC                         __ramtop 2600  
                       __ptext0 FE7C                         __ptext1 FD6A                         __ptext2 FD98  
                       __ptext3 FDE2                         __ptext4 FD7C                         __ptext5 FD5E  
                       __ptext6 FD56           _OSCILLATOR_Initialize FD7C        ??_PIN_MANAGER_Initialize 0501  
          end_of_initialization FDDC                         postdec1 0004E5                         postinc0 0004EE  
        ?_OSCILLATOR_Initialize 0501             start_initialization FDBC                ??_PMD_Initialize 0501  
                   __pdataBANK6 0600          _PIN_MANAGER_Initialize FDE2                        _DAC1DATL 00007D  
                     _sine_wave 0600                       copy_data0 FDD0               ??_DAC1_Initialize 0501  
                      __Hrparam 0000                        __Lrparam 0000         ??_OSCILLATOR_Initialize 0501  
                      isa$xinst 000000         ?_PIN_MANAGER_Initialize 0501  __end_of_PIN_MANAGER_Initialize FE7C  
