Microchip MPLAB XC8 Compiler V2.40

Linker command line:

-W-3 \
  --edf=C:\Program Files\Microchip\xc8\v2.40\pic\dat\20220703182018_en.msgs \
  -cn -h+dist/default/production\PIC_MASTER_TO_PIC_I2C.X.production.sym \
  --cmf=dist/default/production\PIC_MASTER_TO_PIC_I2C.X.production.cmf -z \
  -Q18F57Q43 -oC:\Users\surendra\AppData\Local\Temp\xcAsge4.4 \
  --defsym=__MPLAB_BUILD=1 --fixupoverflow=error \
  -Mdist/default/production/PIC_MASTER_TO_PIC_I2C.X.production.map \
  --md=C:\Users\surendra\AppData\Local\Temp\xcAsge4.dat -E1 \
  -ver=XC8 Compiler --acfsm=1493 -ACODE=00h-01FFFFh -ACONST=00h-01FFFFh \
  -ASMALLCONST=02600h-026FFhx474 \
  -AMEDIUMCONST=02600h-0FFFFh,012600h-01FFFFh -ACOMRAM=0501h-055Fh \
  -AABS1=0500h-024FFh -ABIGRAM=0501h-024FFh \
  -ARAM=0560h-05FFh,0600h-06FFhx31 -ABANK5=0560h-05FFh -ABANK6=0600h-06FFh \
  -ABANK7=0700h-07FFh -ABANK8=0800h-08FFh -ABANK9=0900h-09FFh \
  -ABANK10=0A00h-0AFFh -ABANK11=0B00h-0BFFh -ABANK12=0C00h-0CFFh \
  -ABANK13=0D00h-0DFFh -ABANK14=0E00h-0EFFh -ABANK15=0F00h-0FFFh \
  -ABANK16=01000h-010FFh -ABANK17=01100h-011FFh -ABANK18=01200h-012FFh \
  -ABANK19=01300h-013FFh -ABANK20=01400h-014FFh -ABANK21=01500h-015FFh \
  -ABANK22=01600h-016FFh -ABANK23=01700h-017FFh -ABANK24=01800h-018FFh \
  -ABANK25=01900h-019FFh -ABANK26=01A00h-01AFFh -ABANK27=01B00h-01BFFh \
  -ABANK28=01C00h-01CFFh -ABANK29=01D00h-01DFFh -ABANK30=01E00h-01EFFh \
  -ABANK31=01F00h-01FFFh -ABANK32=02000h-020FFh -ABANK33=02100h-021FFh \
  -ABANK34=02200h-022FFh -ABANK35=02300h-023FFh -ABANK36=02400h-024FFh \
  -ASFR=00h-0FFhx4,0400h-045Fh,0460h-04FFh,02500h-025FFh \
  -ABIGSFR=00h-04FFh,02500h-025FFh -ACONFIG=0300000h-0300011h \
  -AIDLOC=0200000h-020003Fh -AEEDATA=0380000h-03803FFh -peeprom_data=EEDATA \
  -preset_vec=00h -ppowerup=CODE,init -pramtop=02600h \
  -psmallconst=SMALLCONST -pmediumconst=MEDIUMCONST -pconst=CONST \
  -AFARRAM=00h-00h \
  -prdata=COMRAM,nvrram=COMRAM,nvbit=COMRAM,rbss=COMRAM,rbit=COMRAM \
  -pfarbss=FARRAM,fardata=FARRAM,nvFARRAM=FARRAM \
  -pintsave_regs=BIGRAM,bigbss=BIGRAM,bigdata=BIGRAM -pbss=RAM \
  -pidata=CODE,irdata=CODE,ibigdata=CODE,ifardata=CODE -prparam=COMRAM \
  C:\Users\surendra\AppData\Local\Temp\xcAsge4.o \
  dist/default/production\PIC_MASTER_TO_PIC_I2C.X.production.o 

Object code version is 3.11

Machine type is 18F57Q43



                Name                               Link     Load   Length Selector   Space Scale
C:\Users\surendra\AppData\Local\Temp\xcAsge4.o
                idloc                            200000   200000       40        0       5
                config                           300000   300000        A        0       4
                init                              1FFFC    1FFFC        4     FFFE       0
                reset_vec                             0        0        4        0       0
dist/default/production\PIC_MASTER_TO_PIC_I2C.X.production.o
                idloc                            200000   200000       40        0       5
                config                           300000   300000        A        0       4
                smallconst                         2600     2600       3C     1300       0
                text67                             31C8     31C8        8     131E       0
                text66                             3178     3178        C     131E       0
                text65                             307C     307C       1C     131E       0
                text64                             2F2E     2F2E       2A     131E       0
                text63                             3206     3206        6     131E       0
                text62                             3200     3200        6     131E       0
                text61                             31FA     31FA        6     131E       0
                text60                             3106     3106       16     131E       0
                text59                             30F0     30F0       16     131E       0
                text58                             30DA     30DA       16     131E       0
                text57                             2D38     2D38       52     131E       0
                text56                             2FEA     2FEA       22     131E       0
                text55                             29DA     29DA       84     131E       0
                text54                             3060     3060       1C     131E       0
                text53                             2EAA     2EAA       30     131E       0
                text52                             2E7A     2E7A       30     131E       0
                text51                             2E4A     2E4A       30     131E       0
                text50                             2E1A     2E1A       30     131E       0
                text49                             2DD6     2DD6       44     131E       0
                text48                             3218     3218        4     131E       0
                text47                             3214     3214        4     131E       0
                text46                             318E     318E        A     131E       0
                text45                             31F4     31F4        6     131E       0
                text44                             31EE     31EE        6     131E       0
                text43                             31C0     31C0        8     131E       0
                text42                             31B8     31B8        8     131E       0
                text41                             31E8     31E8        6     131E       0
                text40                             30C4     30C4       16     131E       0
                text39                             31E2     31E2        6     131E       0
                text38                             31DC     31DC        6     131E       0
                text37                             31D6     31D6        6     131E       0
                text36                             31D0     31D0        6     131E       0
                text35                             30AE     30AE       16     131E       0
                text34                             3098     3098       16     131E       0
                text33                             31B0     31B0        8     131E       0
                text32                             3184     3184        A     131E       0
                text31                             2F04     2F04       2A     131E       0
                text30                             311C     311C       14     131E       0
                text29                             263C     263C      120     131E       0
                text28                             294A     294A       90     131E       0
                text27                             2A5E     2A5E       7A     131E       0
                text26                             28AC     28AC       9E     131E       0
                text25                             316C     316C        C     131E       0
                text24                             3210     3210        4     131E       0
                text23                             320C     320C        4     131E       0
                text22                             2F58     2F58       28     131E       0
                text21                             31A8     31A8        8     131E       0
                text20                             315E     315E        E     131E       0
                text19                             31A0     31A0        8     131E       0
                text18                             3150     3150        E     131E       0
                text17                             2B4C     2B4C       6C     131E       0
                text16                             2AD8     2AD8       74     131E       0
                text15                             3142     3142        E     131E       0
                text14                             2BB8     2BB8       6A     131E       0
                text13                             2CDE     2CDE       5A     131E       0
                text12                             3044     3044       1C     131E       0
                text11                             2D8A     2D8A       4C     131E       0
                text10                             3198     3198        8     131E       0
                text9                              2EDA     2EDA       2A     131E       0
                text8                              280A     280A       A2     131E       0
                text7                              3028     3028       1C     131E       0
                text6                              2C80     2C80       5E     131E       0
                text5                              2FC8     2FC8       22     131E       0
                text4                              300C     300C       1C     131E       0
                text3                              275C     275C       AE     131E       0
                text2                              2FA4     2FA4       24     131E       0
                text1                              3130     3130       12     131E       0
                text0                              2C22     2C22       5E     131E       0
                cstackCOMRAM                        52B      52B       1C      501       1
                dataCOMRAM                          547      547        1      501       1
                bssCOMRAM                           501      501       2A      501       1
                cinit                              2F80     2F80       24     131E       0
                idataCOMRAM                        321C     321C        1     131E       0

TOTAL           Name                               Link     Load   Length     Space
        CLASS   CODE           
                init                              1FFFC    1FFFC        4         0
                reset_vec                             0        0        4         0
                text67                             31C8     31C8        8         0
                text66                             3178     3178        C         0
                text65                             307C     307C       1C         0
                text64                             2F2E     2F2E       2A         0
                text63                             3206     3206        6         0
                text62                             3200     3200        6         0
                text61                             31FA     31FA        6         0
                text60                             3106     3106       16         0
                text59                             30F0     30F0       16         0
                text58                             30DA     30DA       16         0
                text57                             2D38     2D38       52         0
                text56                             2FEA     2FEA       22         0
                text55                             29DA     29DA       84         0
                text54                             3060     3060       1C         0
                text53                             2EAA     2EAA       30         0
                text52                             2E7A     2E7A       30         0
                text51                             2E4A     2E4A       30         0
                text50                             2E1A     2E1A       30         0
                text49                             2DD6     2DD6       44         0
                text48                             3218     3218        4         0
                text47                             3214     3214        4         0
                text46                             318E     318E        A         0
                text45                             31F4     31F4        6         0
                text44                             31EE     31EE        6         0
                text43                             31C0     31C0        8         0
                text42                             31B8     31B8        8         0
                text41                             31E8     31E8        6         0
                text40                             30C4     30C4       16         0
                text39                             31E2     31E2        6         0
                text38                             31DC     31DC        6         0
                text37                             31D6     31D6        6         0
                text36                             31D0     31D0        6         0
                text35                             30AE     30AE       16         0
                text34                             3098     3098       16         0
                text33                             31B0     31B0        8         0
                text32                             3184     3184        A         0
                text31                             2F04     2F04       2A         0
                text30                             311C     311C       14         0
                text29                             263C     263C      120         0
                text28                             294A     294A       90         0
                text27                             2A5E     2A5E       7A         0
                text26                             28AC     28AC       9E         0
                text25                             316C     316C        C         0
                text24                             3210     3210        4         0
                text23                             320C     320C        4         0
                text22                             2F58     2F58       28         0
                text21                             31A8     31A8        8         0
                text20                             315E     315E        E         0
                text19                             31A0     31A0        8         0
                text18                             3150     3150        E         0
                text17                             2B4C     2B4C       6C         0
                text16                             2AD8     2AD8       74         0
                text15                             3142     3142        E         0
                text14                             2BB8     2BB8       6A         0
                text13                             2CDE     2CDE       5A         0
                text12                             3044     3044       1C         0
                text11                             2D8A     2D8A       4C         0
                text10                             3198     3198        8         0
                text9                              2EDA     2EDA       2A         0
                text8                              280A     280A       A2         0
                text7                              3028     3028       1C         0
                text6                              2C80     2C80       5E         0
                text5                              2FC8     2FC8       22         0
                text4                              300C     300C       1C         0
                text3                              275C     275C       AE         0
                text2                              2FA4     2FA4       24         0
                text1                              3130     3130       12         0
                text0                              2C22     2C22       5E         0
                cinit                              2F80     2F80       24         0
                idataCOMRAM                        321C     321C        1         0

        CLASS   CONST          

        CLASS   SMALLCONST     
                smallconst                         2600     2600       3C         0

        CLASS   MEDIUMCONST    

        CLASS   COMRAM         
                cstackCOMRAM                        52B      52B       1C         1
                dataCOMRAM                          547      547        1         1
                bssCOMRAM                           501      501       2A         1

        CLASS   ABS1           

        CLASS   BIGRAM         

        CLASS   RAM            

        CLASS   BANK5          

        CLASS   BANK6          

        CLASS   BANK7          

        CLASS   BANK8          

        CLASS   BANK9          

        CLASS   BANK10         

        CLASS   BANK11         

        CLASS   BANK12         

        CLASS   BANK13         

        CLASS   BANK14         

        CLASS   BANK15         

        CLASS   BANK16         

        CLASS   BANK17         

        CLASS   BANK18         

        CLASS   BANK19         

        CLASS   BANK20         

        CLASS   BANK21         

        CLASS   BANK22         

        CLASS   BANK23         

        CLASS   BANK24         

        CLASS   BANK25         

        CLASS   BANK26         

        CLASS   BANK27         

        CLASS   BANK28         

        CLASS   BANK29         

        CLASS   BANK30         

        CLASS   BANK31         

        CLASS   BANK32         

        CLASS   BANK33         

        CLASS   BANK34         

        CLASS   BANK35         

        CLASS   BANK36         

        CLASS   SFR            

        CLASS   BIGSFR         

        CLASS   CONFIG         
                config                           300000   300000        A         4

        CLASS   IDLOC          
                idloc                            200000   200000       40         5

        CLASS   EEDATA         

        CLASS   FARRAM         

        CLASS   HEAP           

        CLASS   STACK          



SEGMENTS        Name                           Load    Length   Top    Selector   Space  Class

                reset_vec                      000000  000004  000004         0       0  CODE    
                bssCOMRAM                      000501  000047  000548       501       1  COMRAM  
                smallconst                     002600  00003C  00263C      1300       0  SMALLCON
                text29                         00263C  000BE1  00321D      131E       0  CODE    
                init                           01FFFC  000004  020000      FFFE       0  CODE    


UNUSED ADDRESS RANGES

        Name                Unused          Largest block    Delta
        BANK10           000A00-000AFF              100
        BANK11           000B00-000BFF              100
        BANK12           000C00-000CFF              100
        BANK13           000D00-000DFF              100
        BANK14           000E00-000EFF              100
        BANK15           000F00-000FFF              100
        BANK16           001000-0010FF              100
        BANK17           001100-0011FF              100
        BANK18           001200-0012FF              100
        BANK19           001300-0013FF              100
        BANK20           001400-0014FF              100
        BANK21           001500-0015FF              100
        BANK22           001600-0016FF              100
        BANK23           001700-0017FF              100
        BANK24           001800-0018FF              100
        BANK25           001900-0019FF              100
        BANK26           001A00-001AFF              100
        BANK27           001B00-001BFF              100
        BANK28           001C00-001CFF              100
        BANK29           001D00-001DFF              100
        BANK30           001E00-001EFF              100
        BANK31           001F00-001FFF              100
        BANK32           002000-0020FF              100
        BANK33           002100-0021FF              100
        BANK34           002200-0022FF              100
        BANK35           002300-0023FF              100
        BANK36           002400-0024FF              100
        BANK5            000560-0005FF               A0
        BANK6            000600-0006FF              100
        BANK7            000700-0007FF              100
        BANK8            000800-0008FF              100
        BANK9            000900-0009FF              100
        BIGRAM           000548-0024FF             1FB8
        BIGSFR           000000-0004FF              500
                         002500-0025FF              100
        CODE             000004-0025FF             25FC
                         00321D-01FFFB            1CDDF
        COMRAM           000548-00055F               18
        CONFIG           30000A-300011                8
        CONST            000004-0025FF             25FC
                         00321D-01FFFB            1CDDF
        EEDATA           380000-3803FF              400
        MEDIUMCONST      00321D-00FFFF             CDE3
                         012600-01FFFB             D9FC
        RAM              000560-0024FF              100
        SFR              000000-0004FF              100
                         002500-0025FF              100
        SMALLCONST       00321D-01FFFB              100

                                  Symbol Table

I2C1_CallbackReturnReset@funPtr       cstackCOMRAM 000536
I2C1_Close@returnValue                cstackCOMRAM 00052B
I2C1_DO_RX@retFsmState                cstackCOMRAM 00053C
I2C1_DO_TX@dataTx                     cstackCOMRAM 00053C
I2C1_DO_TX@retFsmState                cstackCOMRAM 00053D
I2C1_MasterOperation@read             cstackCOMRAM 00053E
I2C1_MasterOperation@returnValue      cstackCOMRAM 00053F
I2C1_MasterSendTxData@data            cstackCOMRAM 00052B
I2C1_MasterSetCounter@counter         cstackCOMRAM 00052B
I2C1_Open@address                     cstackCOMRAM 00052B
I2C1_Open@returnValue                 cstackCOMRAM 00052C
I2C1_SetAddressNackCallback@cb        cstackCOMRAM 000531
I2C1_SetAddressNackCallback@ptr       cstackCOMRAM 000534
I2C1_SetBuffer@buffer                 cstackCOMRAM 00052B
I2C1_SetBuffer@bufferSize             cstackCOMRAM 00052D
I2C1_SetCallback@cb                   cstackCOMRAM 00052B
I2C1_SetCallback@idx                  cstackCOMRAM 000530
I2C1_SetCallback@ptr                  cstackCOMRAM 00052E
I2C1_SetDataCompleteCallback@cb       cstackCOMRAM 000531
I2C1_SetDataCompleteCallback@ptr      cstackCOMRAM 000534
I2C1_WriteNBytes@address              cstackCOMRAM 000544
I2C1_WriteNBytes@data                 cstackCOMRAM 000540
I2C1_WriteNBytes@len                  cstackCOMRAM 000542
_ACTCON                               (abs)        0000AC
_ANSELA                               (abs)        000400
_ANSELB                               (abs)        000408
_ANSELC                               (abs)        000410
_ANSELD                               (abs)        000418
_ANSELE                               (abs)        000420
_ANSELF                               (abs)        000428
_I2C1CLK                              (abs)        00029C
_I2C1CNT                              (abs)        00028D
_I2C1CON0                             (abs)        000294
_I2C1CON0bits                         (abs)        000294
_I2C1CON1                             (abs)        000295
_I2C1CON1bits                         (abs)        000295
_I2C1CON2                             (abs)        000296
_I2C1ERR                              (abs)        000297
_I2C1ERRbits                          (abs)        000297
_I2C1PIE                              (abs)        00029B
_I2C1PIEbits                          (abs)        00029B
_I2C1PIR                              (abs)        00029A
_I2C1PIRbits                          (abs)        00029A
_I2C1RXB                              (abs)        00028B
_I2C1SCLPPS                           (abs)        000271
_I2C1SDAPPS                           (abs)        000270
_I2C1STAT1bits                        (abs)        000299
_I2C1TXB                              (abs)        00028C
_I2C1_CallbackReturnReset             text47       003214
_I2C1_CallbackReturnStop              text48       003218
_I2C1_ClearInterruptFlags             text57       002D38
_I2C1_Close                           text64       002F2E
_I2C1_DO_ADDRESS_NACK                 text17       002B4C
_I2C1_DO_BUS_COLLISION                text16       002AD8
_I2C1_DO_BUS_ERROR                    text15       003142
_I2C1_DO_IDLE                         text32       003184
_I2C1_DO_RESET                        text18       003150
_I2C1_DO_RX                           text28       00294A
_I2C1_DO_RX_ACK                       text21       0031A8
_I2C1_DO_RX_EMPTY                     text26       0028AC
_I2C1_DO_RX_NACK_RESTART              text19       0031A0
_I2C1_DO_RX_NACK_STOP                 text20       00315E
_I2C1_DO_SEND_ADR_READ                text31       002F04
_I2C1_DO_SEND_ADR_WRITE               text30       00311C
_I2C1_DO_SEND_RESTART                 text23       00320C
_I2C1_DO_SEND_RESTART_READ            text25       00316C
_I2C1_DO_SEND_RESTART_WRITE           text24       003210
_I2C1_DO_SEND_STOP                    text22       002F58
_I2C1_DO_TX                           text29       00263C
_I2C1_DO_TX$837                       cstackCOMRAM 00053A
_I2C1_DO_TX_ACK                       text33       0031B0
_I2C1_DO_TX_EMPTY                     text27       002A5E
_I2C1_Initialize                      text5        002FC8
_I2C1_MasterClearCountFlag            text63       003206
_I2C1_MasterClearIrq                  text67       0031C8
_I2C1_MasterClearNackFlag             text62       003200
_I2C1_MasterClearStopFlag             text61       0031FA
_I2C1_MasterClose                     text66       003178
_I2C1_MasterDisableIrq                text65       00307C
_I2C1_MasterDisableRestart            text45       0031F4
_I2C1_MasterEnableRestart             text44       0031EE
_I2C1_MasterFsm                       text14       002BB8
_I2C1_MasterGetCounter                text36       0031D0
_I2C1_MasterGetRxData                 text41       0031E8
_I2C1_MasterIsCountFlagSet            text60       003106
_I2C1_MasterIsNack                    text35       0030AE
_I2C1_MasterIsNackFlagSet             text59       0030F0
_I2C1_MasterIsRxBufFull               text40       0030C4
_I2C1_MasterIsStopFlagSet             text58       0030DA
_I2C1_MasterIsTxBufEmpty              text34       003098
_I2C1_MasterOpen                      text9        002EDA
_I2C1_MasterOperation                 text11       002D8A
_I2C1_MasterResetBus                  text46       00318E
_I2C1_MasterSendAck                   text39       0031E2
_I2C1_MasterSendNack                  text38       0031DC
_I2C1_MasterSendTxData                text42       0031B8
_I2C1_MasterSetCounter                text43       0031C0
_I2C1_MasterStop                      text37       0031D6
_I2C1_MasterWaitForEvent              text13       002CDE
_I2C1_MasterWrite                     text10       003198
_I2C1_Open                            text8        00280A
_I2C1_Poller                          text12       003044
_I2C1_SetAddressNackCallback          text7        003028
_I2C1_SetBuffer                       text56       002FEA
_I2C1_SetCallback                     text55       0029DA
_I2C1_SetDataCompleteCallback         text54       003060
_I2C1_Status                          bssCOMRAM    000501
_I2C1_WriteNBytes                     text6        002C80
_INLVLA                               (abs)        000404
_INLVLB                               (abs)        00040C
_INLVLC                               (abs)        000414
_INLVLD                               (abs)        00041C
_INLVLE                               (abs)        000424
_INLVLF                               (abs)        00042C
_LATA                                 (abs)        0004BE
_LATB                                 (abs)        0004BF
_LATC                                 (abs)        0004C0
_LATD                                 (abs)        0004C1
_LATE                                 (abs)        0004C2
_LATF                                 (abs)        0004C3
_ODCONA                               (abs)        000402
_ODCONB                               (abs)        00040A
_ODCONC                               (abs)        000412
_ODCOND                               (abs)        00041A
_ODCONE                               (abs)        000422
_ODCONF                               (abs)        00042A
_OSCCON1                              (abs)        0000AD
_OSCCON3                              (abs)        0000AF
_OSCEN                                (abs)        0000B3
_OSCFRQ                               (abs)        0000B1
_OSCILLATOR_Initialize                text4        00300C
_OSCTUNE                              (abs)        0000B0
_PIE7bits                             (abs)        0004A5
_PIN_MANAGER_Initialize               text3        00275C
_PIR7bits                             (abs)        0004B5
_PMD0                                 (abs)        000060
_PMD1                                 (abs)        000061
_PMD3                                 (abs)        000063
_PMD4                                 (abs)        000064
_PMD5                                 (abs)        000065
_PMD6                                 (abs)        000066
_PMD7                                 (abs)        000067
_PMD8                                 (abs)        000068
_PMD_Initialize                       text2        002FA4
_RB1I2C                               (abs)        000289
_RB2I2C                               (abs)        000288
_RC3I2C                               (abs)        000287
_RC3PPS                               (abs)        000214
_RC4I2C                               (abs)        000286
_RC4PPS                               (abs)        000215
_SLRCONA                              (abs)        000403
_SLRCONB                              (abs)        00040B
_SLRCONC                              (abs)        000413
_SLRCOND                              (abs)        00041B
_SLRCONE                              (abs)        000423
_SLRCONF                              (abs)        00042B
_SYSTEM_Initialize                    text1        003130
_Send                                 dataCOMRAM   000547
_TRISA                                (abs)        0004C6
_TRISB                                (abs)        0004C7
_TRISC                                (abs)        0004C8
_TRISD                                (abs)        0004C9
_TRISE                                (abs)        0004CA
_TRISF                                (abs)        0004CB
_WPUA                                 (abs)        000401
_WPUB                                 (abs)        000409
_WPUC                                 (abs)        000411
_WPUD                                 (abs)        000419
_WPUE                                 (abs)        000421
_WPUF                                 (abs)        000429
__HRAM                                (abs)        000000
__Habs1                               abs1         000000
__Hbank10                             bank10       000000
__Hbank11                             bank11       000000
__Hbank12                             bank12       000000
__Hbank13                             bank13       000000
__Hbank14                             bank14       000000
__Hbank15                             bank15       000000
__Hbank16                             bank16       000000
__Hbank17                             bank17       000000
__Hbank18                             bank18       000000
__Hbank19                             bank19       000000
__Hbank20                             bank20       000000
__Hbank21                             bank21       000000
__Hbank22                             bank22       000000
__Hbank23                             bank23       000000
__Hbank24                             bank24       000000
__Hbank25                             bank25       000000
__Hbank26                             bank26       000000
__Hbank27                             bank27       000000
__Hbank28                             bank28       000000
__Hbank29                             bank29       000000
__Hbank30                             bank30       000000
__Hbank31                             bank31       000000
__Hbank32                             bank32       000000
__Hbank33                             bank33       000000
__Hbank34                             bank34       000000
__Hbank35                             bank35       000000
__Hbank36                             bank36       000000
__Hbank5                              bank5        000000
__Hbank6                              bank6        000000
__Hbank7                              bank7        000000
__Hbank8                              bank8        000000
__Hbank9                              bank9        000000
__Hbigbss                             bigbss       000000
__Hbigdata                            bigdata      000000
__Hbigram                             bigram       000000
__Hbigsfr                             bigsfr       000000
__Hbss                                bss          000000
__HbssCOMRAM                          bssCOMRAM    000000
__Hcinit                              cinit        000000
__Hclrtext                            clrtext      000000
__Hcomram                             comram       000000
__Hconfig                             config       30000A
__Hconst                              const        000000
__HcstackCOMRAM                       cstackCOMRAM 000000
__Hdata                               data         000000
__HdataCOMRAM                         dataCOMRAM   000000
__Heeprom_data                        eeprom_data  000000
__Hfarbss                             farbss       000000
__Hfardata                            fardata      000000
__Hheap                               heap         000000
__Hibigdata                           ibigdata     000000
__Hidata                              idata        000000
__HidataCOMRAM                        idataCOMRAM  000000
__Hidloc                              idloc        200040
__Hifardata                           ifardata     000000
__Hinit                               init         020000
__Hintsave_regs                       intsave_regs 000000
__Hirdata                             irdata       000000
__Hmediumconst                        mediumconst  000000
__HnvFARRAM                           nvFARRAM     000000
__Hnvbit                              nvbit        000000
__Hnvrram                             nvrram       000000
__Hparam                              rparam       000000
__Hpowerup                            powerup      000000
__Hram                                ram          000000
__Hramtop                             ramtop       002600
__Hrbit                               rbit         000000
__Hrbss                               rbss         000000
__Hrdata                              rdata        000000
__Hreset_vec                          reset_vec    000004
__Hrparam                             rparam       000000
__Hsfr                                sfr          000000
__Hsmallconst                         smallconst   00263C
__Hspace_0                            (abs)        020000
__Hspace_1                            (abs)        000548
__Hspace_2                            (abs)        000000
__Hspace_4                            (abs)        60000A
__Hstack                              stack        000000
__Hstruct                             struct       000000
__Htemp                               temp         000000
__Htext                               text         000000
__Htext0                              text0        000000
__Htext1                              text1        000000
__Htext10                             text10       000000
__Htext11                             text11       000000
__Htext12                             text12       000000
__Htext13                             text13       000000
__Htext14                             text14       000000
__Htext15                             text15       000000
__Htext16                             text16       000000
__Htext17                             text17       000000
__Htext18                             text18       000000
__Htext19                             text19       000000
__Htext2                              text2        000000
__Htext20                             text20       000000
__Htext21                             text21       000000
__Htext22                             text22       000000
__Htext23                             text23       000000
__Htext24                             text24       000000
__Htext25                             text25       000000
__Htext26                             text26       000000
__Htext27                             text27       000000
__Htext28                             text28       000000
__Htext29                             text29       000000
__Htext3                              text3        000000
__Htext30                             text30       000000
__Htext31                             text31       000000
__Htext32                             text32       000000
__Htext33                             text33       000000
__Htext34                             text34       000000
__Htext35                             text35       000000
__Htext36                             text36       000000
__Htext37                             text37       000000
__Htext38                             text38       000000
__Htext39                             text39       000000
__Htext4                              text4        000000
__Htext40                             text40       000000
__Htext41                             text41       000000
__Htext42                             text42       000000
__Htext43                             text43       000000
__Htext44                             text44       000000
__Htext45                             text45       000000
__Htext46                             text46       000000
__Htext47                             text47       000000
__Htext48                             text48       000000
__Htext49                             text49       000000
__Htext5                              text5        000000
__Htext50                             text50       000000
__Htext51                             text51       000000
__Htext52                             text52       000000
__Htext53                             text53       000000
__Htext54                             text54       000000
__Htext55                             text55       000000
__Htext56                             text56       000000
__Htext57                             text57       000000
__Htext58                             text58       000000
__Htext59                             text59       000000
__Htext6                              text6        000000
__Htext60                             text60       000000
__Htext61                             text61       000000
__Htext62                             text62       000000
__Htext63                             text63       000000
__Htext64                             text64       000000
__Htext65                             text65       000000
__Htext66                             text66       000000
__Htext67                             text67       000000
__Htext68                             text68       000000
__Htext7                              text7        000000
__Htext8                              text8        000000
__Htext9                              text9        000000
__LRAM                                (abs)        000001
__Labs1                               abs1         000000
__Lbank10                             bank10       000000
__Lbank11                             bank11       000000
__Lbank12                             bank12       000000
__Lbank13                             bank13       000000
__Lbank14                             bank14       000000
__Lbank15                             bank15       000000
__Lbank16                             bank16       000000
__Lbank17                             bank17       000000
__Lbank18                             bank18       000000
__Lbank19                             bank19       000000
__Lbank20                             bank20       000000
__Lbank21                             bank21       000000
__Lbank22                             bank22       000000
__Lbank23                             bank23       000000
__Lbank24                             bank24       000000
__Lbank25                             bank25       000000
__Lbank26                             bank26       000000
__Lbank27                             bank27       000000
__Lbank28                             bank28       000000
__Lbank29                             bank29       000000
__Lbank30                             bank30       000000
__Lbank31                             bank31       000000
__Lbank32                             bank32       000000
__Lbank33                             bank33       000000
__Lbank34                             bank34       000000
__Lbank35                             bank35       000000
__Lbank36                             bank36       000000
__Lbank5                              bank5        000000
__Lbank6                              bank6        000000
__Lbank7                              bank7        000000
__Lbank8                              bank8        000000
__Lbank9                              bank9        000000
__Lbigbss                             bigbss       000000
__Lbigdata                            bigdata      000000
__Lbigram                             bigram       000000
__Lbigsfr                             bigsfr       000000
__Lbss                                bss          000000
__LbssCOMRAM                          bssCOMRAM    000000
__Lcinit                              cinit        000000
__Lclrtext                            clrtext      000000
__Lcomram                             comram       000000
__Lconfig                             config       000000
__Lconst                              const        000000
__LcstackCOMRAM                       cstackCOMRAM 000000
__Ldata                               data         000000
__LdataCOMRAM                         dataCOMRAM   000000
__Leeprom_data                        eeprom_data  000000
__Lfarbss                             farbss       000000
__Lfardata                            fardata      000000
__Lheap                               heap         000000
__Libigdata                           ibigdata     000000
__Lidata                              idata        000000
__LidataCOMRAM                        idataCOMRAM  000000
__Lidloc                              idloc        000000
__Lifardata                           ifardata     000000
__Linit                               init         01FFFC
__Lintsave_regs                       intsave_regs 000000
__Lirdata                             irdata       000000
__Lmediumconst                        mediumconst  000000
__LnvFARRAM                           nvFARRAM     000000
__Lnvbit                              nvbit        000000
__Lnvrram                             nvrram       000000
__Lparam                              rparam       000000
__Lpowerup                            powerup      000000
__Lram                                ram          000000
__Lramtop                             ramtop       002600
__Lrbit                               rbit         000000
__Lrbss                               rbss         000000
__Lrdata                              rdata        000000
__Lreset_vec                          reset_vec    000000
__Lrparam                             rparam       000000
__Lsfr                                sfr          000000
__Lsmallconst                         smallconst   002600
__Lspace_0                            (abs)        000000
__Lspace_1                            (abs)        000000
__Lspace_2                            (abs)        000000
__Lspace_4                            (abs)        000000
__Lstack                              stack        000000
__Lstruct                             struct       000000
__Ltemp                               temp         000000
__Ltext                               text         000000
__Ltext0                              text0        000000
__Ltext1                              text1        000000
__Ltext10                             text10       000000
__Ltext11                             text11       000000
__Ltext12                             text12       000000
__Ltext13                             text13       000000
__Ltext14                             text14       000000
__Ltext15                             text15       000000
__Ltext16                             text16       000000
__Ltext17                             text17       000000
__Ltext18                             text18       000000
__Ltext19                             text19       000000
__Ltext2                              text2        000000
__Ltext20                             text20       000000
__Ltext21                             text21       000000
__Ltext22                             text22       000000
__Ltext23                             text23       000000
__Ltext24                             text24       000000
__Ltext25                             text25       000000
__Ltext26                             text26       000000
__Ltext27                             text27       000000
__Ltext28                             text28       000000
__Ltext29                             text29       000000
__Ltext3                              text3        000000
__Ltext30                             text30       000000
__Ltext31                             text31       000000
__Ltext32                             text32       000000
__Ltext33                             text33       000000
__Ltext34                             text34       000000
__Ltext35                             text35       000000
__Ltext36                             text36       000000
__Ltext37                             text37       000000
__Ltext38                             text38       000000
__Ltext39                             text39       000000
__Ltext4                              text4        000000
__Ltext40                             text40       000000
__Ltext41                             text41       000000
__Ltext42                             text42       000000
__Ltext43                             text43       000000
__Ltext44                             text44       000000
__Ltext45                             text45       000000
__Ltext46                             text46       000000
__Ltext47                             text47       000000
__Ltext48                             text48       000000
__Ltext49                             text49       000000
__Ltext5                              text5        000000
__Ltext50                             text50       000000
__Ltext51                             text51       000000
__Ltext52                             text52       000000
__Ltext53                             text53       000000
__Ltext54                             text54       000000
__Ltext55                             text55       000000
__Ltext56                             text56       000000
__Ltext57                             text57       000000
__Ltext58                             text58       000000
__Ltext59                             text59       000000
__Ltext6                              text6        000000
__Ltext60                             text60       000000
__Ltext61                             text61       000000
__Ltext62                             text62       000000
__Ltext63                             text63       000000
__Ltext64                             text64       000000
__Ltext65                             text65       000000
__Ltext66                             text66       000000
__Ltext67                             text67       000000
__Ltext68                             text68       000000
__Ltext7                              text7        000000
__Ltext8                              text8        000000
__Ltext9                              text9        000000
__S0                                  (abs)        020000
__S1                                  (abs)        000548
__S4                                  (abs)        000000
__S5                                  (abs)        000000
___heap_hi                            (abs)        000000
___heap_lo                            (abs)        000000
___inthi_sp                           stack        000000
___intlo_sp                           stack        000000
___param_bank                         (abs)        000000
___rparam_used                        (abs)        000001
___sp                                 stack        000000
__accesstop                           (abs)        000560
__activetblptr                        (abs)        000003
__end_of_I2C1_CallbackReturnReset     text47       003218
__end_of_I2C1_CallbackReturnStop      text48       00321C
__end_of_I2C1_ClearInterruptFlags     text57       002D8A
__end_of_I2C1_Close                   text64       002F58
__end_of_I2C1_DO_ADDRESS_NACK         text17       002BB8
__end_of_I2C1_DO_BUS_COLLISION        text16       002B4C
__end_of_I2C1_DO_BUS_ERROR            text15       003150
__end_of_I2C1_DO_IDLE                 text32       00318E
__end_of_I2C1_DO_RESET                text18       00315E
__end_of_I2C1_DO_RX                   text28       0029DA
__end_of_I2C1_DO_RX_ACK               text21       0031B0
__end_of_I2C1_DO_RX_EMPTY             text26       00294A
__end_of_I2C1_DO_RX_NACK_RESTART      text19       0031A8
__end_of_I2C1_DO_RX_NACK_STOP         text20       00316C
__end_of_I2C1_DO_SEND_ADR_READ        text31       002F2E
__end_of_I2C1_DO_SEND_ADR_WRITE       text30       003130
__end_of_I2C1_DO_SEND_RESTART         text23       003210
__end_of_I2C1_DO_SEND_RESTART_READ    text25       003178
__end_of_I2C1_DO_SEND_RESTART_WRITE   text24       003214
__end_of_I2C1_DO_SEND_STOP            text22       002F80
__end_of_I2C1_DO_TX                   text29       00275C
__end_of_I2C1_DO_TX_ACK               text33       0031B8
__end_of_I2C1_DO_TX_EMPTY             text27       002AD8
__end_of_I2C1_Initialize              text5        002FEA
__end_of_I2C1_MasterClearCountFlag    text63       00320C
__end_of_I2C1_MasterClearIrq          text67       0031D0
__end_of_I2C1_MasterClearNackFlag     text62       003206
__end_of_I2C1_MasterClearStopFlag     text61       003200
__end_of_I2C1_MasterClose             text66       003184
__end_of_I2C1_MasterDisableIrq        text65       003098
__end_of_I2C1_MasterDisableRestart    text45       0031FA
__end_of_I2C1_MasterEnableRestart     text44       0031F4
__end_of_I2C1_MasterFsm               text14       002C22
__end_of_I2C1_MasterGetCounter        text36       0031D6
__end_of_I2C1_MasterGetRxData         text41       0031EE
__end_of_I2C1_MasterIsCountFlagSet    text60       00311C
__end_of_I2C1_MasterIsNack            text35       0030C4
__end_of_I2C1_MasterIsNackFlagSet     text59       003106
__end_of_I2C1_MasterIsRxBufFull       text40       0030DA
__end_of_I2C1_MasterIsStopFlagSet     text58       0030F0
__end_of_I2C1_MasterIsTxBufEmpty      text34       0030AE
__end_of_I2C1_MasterOpen              text9        002F04
__end_of_I2C1_MasterOperation         text11       002DD6
__end_of_I2C1_MasterResetBus          text46       003198
__end_of_I2C1_MasterSendAck           text39       0031E8
__end_of_I2C1_MasterSendNack          text38       0031E2
__end_of_I2C1_MasterSendTxData        text42       0031C0
__end_of_I2C1_MasterSetCounter        text43       0031C8
__end_of_I2C1_MasterStop              text37       0031DC
__end_of_I2C1_MasterWaitForEvent      text13       002D38
__end_of_I2C1_MasterWrite             text10       0031A0
__end_of_I2C1_Open                    text8        0028AC
__end_of_I2C1_Poller                  text12       003060
__end_of_I2C1_SetAddressNackCallback  text7        003044
__end_of_I2C1_SetBuffer               text56       00300C
__end_of_I2C1_SetCallback             text55       002A5E
__end_of_I2C1_SetDataCompleteCallback text54       00307C
__end_of_I2C1_WriteNBytes             text6        002CDE
__end_of_OSCILLATOR_Initialize        text4        003028
__end_of_PIN_MANAGER_Initialize       text3        00280A
__end_of_PMD_Initialize               text2        002FC8
__end_of_SYSTEM_Initialize            text1        003142
__end_of__initialization              cinit        002F9E
__end_of_i2c1_fsmStateTable           smallconst   00263A
__end_of_main                         text0        002C80
__end_of_rd1RegCompleteHandler        text52       002EAA
__end_of_rd2RegCompleteHandler        text51       002E7A
__end_of_rdBlkRegCompleteHandler      text49       002E1A
__end_of_wr1RegCompleteHandler        text50       002E4A
__end_of_wr2RegCompleteHandler        text53       002EDA
__initialization                      cinit        002F80
__mediumconst                         mediumconst  000000
__pbssCOMRAM                          bssCOMRAM    000501
__pcinit                              cinit        002F80
__pcstackCOMRAM                       cstackCOMRAM 00052B
__pdataCOMRAM                         dataCOMRAM   000547
__pidataCOMRAM                        idataCOMRAM  00321C
__psmallconst                         smallconst   002600
__ptext0                              text0        002C22
__ptext1                              text1        003130
__ptext10                             text10       003198
__ptext11                             text11       002D8A
__ptext12                             text12       003044
__ptext13                             text13       002CDE
__ptext14                             text14       002BB8
__ptext15                             text15       003142
__ptext16                             text16       002AD8
__ptext17                             text17       002B4C
__ptext18                             text18       003150
__ptext19                             text19       0031A0
__ptext2                              text2        002FA4
__ptext20                             text20       00315E
__ptext21                             text21       0031A8
__ptext22                             text22       002F58
__ptext23                             text23       00320C
__ptext24                             text24       003210
__ptext25                             text25       00316C
__ptext26                             text26       0028AC
__ptext27                             text27       002A5E
__ptext28                             text28       00294A
__ptext29                             text29       00263C
__ptext3                              text3        00275C
__ptext30                             text30       00311C
__ptext31                             text31       002F04
__ptext32                             text32       003184
__ptext33                             text33       0031B0
__ptext34                             text34       003098
__ptext35                             text35       0030AE
__ptext36                             text36       0031D0
__ptext37                             text37       0031D6
__ptext38                             text38       0031DC
__ptext39                             text39       0031E2
__ptext4                              text4        00300C
__ptext40                             text40       0030C4
__ptext41                             text41       0031E8
__ptext42                             text42       0031B8
__ptext43                             text43       0031C0
__ptext44                             text44       0031EE
__ptext45                             text45       0031F4
__ptext46                             text46       00318E
__ptext47                             text47       003214
__ptext48                             text48       003218
__ptext49                             text49       002DD6
__ptext5                              text5        002FC8
__ptext50                             text50       002E1A
__ptext51                             text51       002E4A
__ptext52                             text52       002E7A
__ptext53                             text53       002EAA
__ptext54                             text54       003060
__ptext55                             text55       0029DA
__ptext56                             text56       002FEA
__ptext57                             text57       002D38
__ptext58                             text58       0030DA
__ptext59                             text59       0030F0
__ptext6                              text6        002C80
__ptext60                             text60       003106
__ptext61                             text61       0031FA
__ptext62                             text62       003200
__ptext63                             text63       003206
__ptext64                             text64       002F2E
__ptext65                             text65       00307C
__ptext66                             text66       003178
__ptext67                             text67       0031C8
__ptext68                             text68       000000
__ptext7                              text7        003028
__ptext8                              text8        00280A
__ptext9                              text9        002EDA
__ramtop                              ramtop       002600
__smallconst                          smallconst   002600
_i2c1_fsmStateTable                   smallconst   002601
_main                                 text0        002C22
_rd1RegCompleteHandler                text52       002E7A
_rd2RegCompleteHandler                text51       002E4A
_rdBlkRegCompleteHandler              text49       002DD6
_wr1RegCompleteHandler                text50       002E1A
_wr2RegCompleteHandler                text53       002EAA
end_of_initialization                 cinit        002F9E
intlevel0                             text         000000
intlevel1                             text         000000
intlevel2                             text         000000
intlevel3                             text         000000
isa$std                               (abs)        000001
isa$xinst                             (abs)        000000
main@status                           cstackCOMRAM 000546
rd1RegCompleteHandler@ptr             cstackCOMRAM 000536
rd2RegCompleteHandler@ptr             cstackCOMRAM 000536
rdBlkRegCompleteHandler@ptr           cstackCOMRAM 000536
stackhi                               (abs)        000000
stacklo                               (abs)        000000
start                                 init         01FFFC
start_initialization                  cinit        002F80
wr1RegCompleteHandler@ptr             cstackCOMRAM 000536
wr2RegCompleteHandler@ptr             cstackCOMRAM 000536


MODULE INFORMATION

Module		Function		Class		Link	Load	Size
mcc_generated_files/examples/i2c1_master_example.c
		_wr1RegCompleteHandler		CODE           	2E1A	0000	48
		_wr2RegCompleteHandler		CODE           	2EAA	0000	48
		_rdBlkRegCompleteHandler		CODE           	2DD6	0000	68
		_rd1RegCompleteHandler		CODE           	2E7A	0000	48
		_rd2RegCompleteHandler		CODE           	2E4A	0000	48
		_I2C1_WriteNBytes		CODE           	2C80	0000	94

mcc_generated_files/examples/i2c1_master_example.c estimated size: 354

mcc_generated_files/i2c1_master.c
		_I2C1_DO_SEND_RESTART		CODE           	320C	0000	4
		_I2C1_MasterIsNackFlagSet		CODE           	30F0	0000	22
		_I2C1_DO_RX_EMPTY		CODE           	28AC	0000	158
		_I2C1_DO_TX_EMPTY		CODE           	2A5E	0000	122
		_I2C1_DO_SEND_RESTART_READ		CODE           	316C	0000	12
		_I2C1_MasterClearNackFlag		CODE           	3200	0000	6
		_I2C1_CallbackReturnStop		CODE           	3218	0000	4
		_I2C1_DO_RX    		CODE           	294A	0000	144
		_I2C1_DO_TX    		CODE           	263C	0000	288
		_I2C1_SetAddressNackCallback		CODE           	3028	0000	28
		_I2C1_DO_IDLE  		CODE           	3184	0000	10
		_I2C1_MasterOpen		CODE           	2EDA	0000	42
		_I2C1_MasterSendTxData		CODE           	31B8	0000	8
		_I2C1_MasterStop		CODE           	31D6	0000	6
		_I2C1_MasterIsStopFlagSet		CODE           	30DA	0000	22
		_I2C1_CallbackReturnReset		CODE           	3214	0000	4
		_I2C1_DO_RESET 		CODE           	3150	0000	14
		_I2C1_Poller   		CODE           	3044	0000	28
		_I2C1_DO_RX_ACK		CODE           	31A8	0000	8
		_I2C1_DO_TX_ACK		CODE           	31B0	0000	8
		_I2C1_MasterWaitForEvent		CODE           	2CDE	0000	90
		_I2C1_MasterSendNack		CODE           	31DC	0000	6
		_I2C1_DO_RX_NACK_RESTART		CODE           	31A0	0000	8
		_I2C1_MasterDisableIrq		CODE           	307C	0000	28
		_I2C1_ClearInterruptFlags		CODE           	2D38	0000	82
		_I2C1_MasterOperation		CODE           	2D8A	0000	76
		_I2C1_MasterClearStopFlag		CODE           	31FA	0000	6
		_I2C1_SetCallback		CODE           	29DA	0000	132
		_I2C1_MasterEnableRestart		CODE           	31EE	0000	6
		_I2C1_MasterGetCounter		CODE           	31D0	0000	6
		_I2C1_MasterSetCounter		CODE           	31C0	0000	8
		_I2C1_Open     		CODE           	280A	0000	162
		_I2C1_DO_ADDRESS_NACK		CODE           	2B4C	0000	108
		_I2C1_MasterDisableRestart		CODE           	31F4	0000	6
		_I2C1_MasterClearCountFlag		CODE           	3206	0000	6
		_I2C1_SetBuffer		CODE           	2FEA	0000	34
		_I2C1_DO_SEND_RESTART_WRITE		CODE           	3210	0000	4
		_I2C1_MasterIsTxBufEmpty		CODE           	3098	0000	22
		_I2C1_MasterClose		CODE           	3178	0000	12
		_I2C1_MasterWrite		CODE           	3198	0000	8
		_I2C1_Initialize		CODE           	2FC8	0000	34
		_I2C1_Close    		CODE           	2F2E	0000	42
		_I2C1_MasterIsRxBufFull		CODE           	30C4	0000	22
		_I2C1_MasterIsNack		CODE           	30AE	0000	22
		_I2C1_DO_SEND_ADR_WRITE		CODE           	311C	0000	20
		_I2C1_MasterClearIrq		CODE           	31C8	0000	8
		_I2C1_SetDataCompleteCallback		CODE           	3060	0000	28
		_I2C1_DO_SEND_STOP		CODE           	2F58	0000	40
		_I2C1_DO_BUS_COLLISION		CODE           	2AD8	0000	116
		_I2C1_DO_BUS_ERROR		CODE           	3142	0000	14
		_I2C1_MasterSendAck		CODE           	31E2	0000	6
		_I2C1_MasterFsm		CODE           	2BB8	0000	106
		_I2C1_MasterGetRxData		CODE           	31E8	0000	6
		_I2C1_MasterResetBus		CODE           	318E	0000	10
		_I2C1_MasterIsCountFlagSet		CODE           	3106	0000	22
		_I2C1_DO_SEND_ADR_READ		CODE           	2F04	0000	42
		_I2C1_DO_RX_NACK_STOP		CODE           	315E	0000	14

mcc_generated_files/i2c1_master.c estimated size: 2300

mcc_generated_files/pin_manager.c
		_PIN_MANAGER_Initialize		CODE           	275C	0000	174

mcc_generated_files/pin_manager.c estimated size: 174

shared
		__initialization		CODE           	2F80	0000	30
		_i2c1_fsmStateTable		SMALLCONST     	2601	0000	57

shared estimated size: 87

mcc_generated_files/mcc.c
		_PMD_Initialize		CODE           	2FA4	0000	36
		_OSCILLATOR_Initialize		CODE           	300C	0000	28
		_SYSTEM_Initialize		CODE           	3130	0000	18

mcc_generated_files/mcc.c estimated size: 82

main.c
		_main          		CODE           	2C22	0000	94

main.c estimated size: 94

