

Microchip MPLAB XC8 Assembler V2.40 build 20220703182018 
                                                                                               Wed Jan 25 17:06:31 2023

Microchip MPLAB XC8 C Compiler v2.40 (Free license) build 20220703182018 Og1 
     1                           	processor	18F57Q43
     2                           	fnconf	rparam,??,?,0
     3                           	pagewidth 120
     4                           	opt	flic
     5                           	psect	idataCOMRAM,global,class=CODE,delta=1,noexec
     6                           	psect	smallconst,global,reloc=2,class=SMALLCONST,delta=1,noexec
     7                           	psect	cinit,global,reloc=2,class=CODE,delta=1
     8                           	psect	bssCOMRAM,global,class=COMRAM,space=1,delta=1,lowdata,noexec
     9                           	psect	dataCOMRAM,global,class=COMRAM,space=1,delta=1,lowdata,noexec
    10                           	psect	cstackCOMRAM,global,class=COMRAM,space=1,delta=1,lowdata,noexec
    11                           	psect	text0,global,reloc=2,class=CODE,delta=1
    12                           	psect	text1,global,reloc=2,class=CODE,delta=1
    13                           	psect	text2,global,reloc=2,class=CODE,delta=1
    14                           	psect	text3,global,reloc=2,class=CODE,delta=1
    15                           	psect	text4,global,reloc=2,class=CODE,delta=1
    16                           	psect	text5,global,reloc=2,class=CODE,delta=1
    17                           	psect	text6,global,reloc=2,class=CODE,delta=1
    18                           	psect	text7,global,reloc=2,class=CODE,delta=1
    19                           	psect	text8,global,reloc=2,class=CODE,delta=1
    20                           	psect	text9,global,reloc=2,class=CODE,delta=1,inline
    21                           	psect	text10,global,reloc=2,class=CODE,delta=1
    22                           	psect	text11,global,reloc=2,class=CODE,delta=1
    23                           	psect	text12,global,reloc=2,class=CODE,delta=1
    24                           	psect	text13,global,reloc=2,class=CODE,delta=1,inline
    25                           	psect	text14,global,reloc=2,class=CODE,delta=1,inline
    26                           	psect	text15,global,reloc=2,class=CODE,delta=1
    27                           	psect	text16,global,reloc=2,class=CODE,delta=1
    28                           	psect	text17,global,reloc=2,class=CODE,delta=1
    29                           	psect	text18,global,reloc=2,class=CODE,delta=1
    30                           	psect	text19,global,reloc=2,class=CODE,delta=1
    31                           	psect	text20,global,reloc=2,class=CODE,delta=1
    32                           	psect	text21,global,reloc=2,class=CODE,delta=1
    33                           	psect	text22,global,reloc=2,class=CODE,delta=1
    34                           	psect	text23,global,reloc=2,class=CODE,delta=1
    35                           	psect	text24,global,reloc=2,class=CODE,delta=1
    36                           	psect	text25,global,reloc=2,class=CODE,delta=1
    37                           	psect	text26,global,reloc=2,class=CODE,delta=1
    38                           	psect	text27,global,reloc=2,class=CODE,delta=1
    39                           	psect	text28,global,reloc=2,class=CODE,delta=1
    40                           	psect	text29,global,reloc=2,class=CODE,delta=1
    41                           	psect	text30,global,reloc=2,class=CODE,delta=1
    42                           	psect	text31,global,reloc=2,class=CODE,delta=1
    43                           	psect	text32,global,reloc=2,class=CODE,delta=1
    44                           	psect	text33,global,reloc=2,class=CODE,delta=1
    45                           	psect	text34,global,reloc=2,class=CODE,delta=1,inline
    46                           	psect	text35,global,reloc=2,class=CODE,delta=1,inline
    47                           	psect	text36,global,reloc=2,class=CODE,delta=1,inline
    48                           	psect	text37,global,reloc=2,class=CODE,delta=1,inline
    49                           	psect	text38,global,reloc=2,class=CODE,delta=1,inline
    50                           	psect	text39,global,reloc=2,class=CODE,delta=1,inline
    51                           	psect	text40,global,reloc=2,class=CODE,delta=1,inline
    52                           	psect	text41,global,reloc=2,class=CODE,delta=1,inline
    53                           	psect	text42,global,reloc=2,class=CODE,delta=1,inline
    54                           	psect	text43,global,reloc=2,class=CODE,delta=1,inline
    55                           	psect	text44,global,reloc=2,class=CODE,delta=1,inline
    56                           	psect	text45,global,reloc=2,class=CODE,delta=1,inline
    57                           	psect	text46,global,reloc=2,class=CODE,delta=1,inline
    58                           	psect	text47,global,reloc=2,class=CODE,delta=1
    59                           	psect	text48,global,reloc=2,class=CODE,delta=1
    60                           	psect	text49,global,reloc=2,class=CODE,delta=1
    61                           	psect	text50,global,reloc=2,class=CODE,delta=1
    62                           	psect	text51,global,reloc=2,class=CODE,delta=1
    63                           	psect	text52,global,reloc=2,class=CODE,delta=1
    64                           	psect	text53,global,reloc=2,class=CODE,delta=1
    65                           	psect	text54,global,reloc=2,class=CODE,delta=1
    66                           	psect	text55,global,reloc=2,class=CODE,delta=1
    67                           	psect	text56,global,reloc=2,class=CODE,delta=1
    68                           	psect	text57,global,reloc=2,class=CODE,delta=1,inline
    69                           	psect	text58,global,reloc=2,class=CODE,delta=1,inline
    70                           	psect	text59,global,reloc=2,class=CODE,delta=1,inline
    71                           	psect	text60,global,reloc=2,class=CODE,delta=1,inline
    72                           	psect	text61,global,reloc=2,class=CODE,delta=1,inline
    73                           	psect	text62,global,reloc=2,class=CODE,delta=1,inline
    74                           	psect	text63,global,reloc=2,class=CODE,delta=1,inline
    75                           	psect	text64,global,reloc=2,class=CODE,delta=1
    76                           	psect	text65,global,reloc=2,class=CODE,delta=1,inline
    77                           	psect	text66,global,reloc=2,class=CODE,delta=1,inline
    78                           	psect	text67,global,reloc=2,class=CODE,delta=1,inline
    79                           	psect	intsave_regs,global,class=BIGRAM,space=1,delta=1,noexec
    80                           	psect	text68,global,reloc=2,class=CODE,delta=1,inline
    81                           	psect	rparam,global,class=COMRAM,space=1,delta=1,noexec
    82                           	psect	idloc,global,abs,ovrld,class=IDLOC,space=5,delta=1,noexec
    83                           	psect	config,global,abs,ovrld,class=CONFIG,space=4,delta=1,noexec
    84   000000                     
    85                           ; Generated 17/06/2022 GMT
    86                           ; 
    87                           ; Copyright © 2022, Microchip Technology Inc. and its subsidiaries ("Microchip")
    88                           ; All rights reserved.
    89                           ; 
    90                           ; This software is developed by Microchip Technology Inc. and its subsidiaries ("Microch
      +                          ip").
    91                           ; 
    92                           ; Redistribution and use in source and binary forms, with or without modification, are
    93                           ; permitted provided that the following conditions are met:
    94                           ; 
    95                           ;     1. Redistributions of source code must retain the above copyright notice, this lis
      +                          t of
    96                           ;        conditions and the following disclaimer.
    97                           ; 
    98                           ;     2. Redistributions in binary form must reproduce the above copyright notice, this 
      +                          list
    99                           ;        of conditions and the following disclaimer in the documentation and/or other
   100                           ;        materials provided with the distribution. Publication is not required when
   101                           ;        this file is used in an embedded application.
   102                           ; 
   103                           ;     3. Microchip's name may not be used to endorse or promote products derived from th
      +                          is
   104                           ;        software without specific prior written permission.
   105                           ; 
   106                           ; THIS SOFTWARE IS PROVIDED BY MICROCHIP "AS IS" AND ANY EXPRESS OR IMPLIED WARRANTIES,
   107                           ; INCLUDING, BUT NOT LIMITED TO, THE IMPLIED WARRANTIES OF MERCHANTABILITY AND FITNESS F
      +                          OR
   108                           ; PURPOSE ARE DISCLAIMED.  IN NO EVENT SHALL MICROCHIP BE LIABLE FOR ANY DIRECT, INDIREC
      +                          T,
   109                           ; INCIDENTAL, SPECIAL, EXEMPLARY, OR CONSEQUENTIAL DAMAGES (INCLUDING BUT NOT LIMITED TO
   110                           ; PROCUREMENT OF SUBSTITUTE GOODS OR SERVICES; LOSS OF USE, DATA OR PROFITS; OR BUSINESS
   111                           ; INTERRUPTION) HOWSOEVER CAUSED AND ON ANY THEORY OF LIABILITY, WHETHER IN CONTRACT, ST
      +                          RICT
   112                           ; LIABILITY, OR TORT (INCLUDING NEGLIGENCE OR OTHERWISE) ARISING IN ANY WAY OUT OF THE U
      +                          SE OF
   113                           ; THIS SOFTWARE, EVEN IF ADVISED OF THE POSSIBILITY OF SUCH DAMAGE.
   114                           ; 
   115                           ; 
   116                           ; Code-generator required, PIC18F57Q43 Definitions
   117                           ; 
   118                           ; SFR Addresses
   119   000000                     
   120                           	psect	idataCOMRAM
   121   00321C                     __pidataCOMRAM:
   122                           	callstack 0
   123                           
   124                           ;initializer for _Send
   125   00321C  4D                 	db	77
   126                           
   127                           	psect	smallconst
   128   002600                     __psmallconst:
   129                           	callstack 0
   130   002600  00                 	db	0
   131   002601                     _i2c1_fsmStateTable:
   132                           	callstack 0
   133   002601  84                 	db	low _I2C1_DO_IDLE
   134   002602  31                 	db	high _I2C1_DO_IDLE
   135   002603  00                 	db	low (_I2C1_DO_IDLE shr (0+16))
   136   002604  04                 	db	low _I2C1_DO_SEND_ADR_READ
   137   002605  2F                 	db	high _I2C1_DO_SEND_ADR_READ
   138   002606  00                 	db	low (_I2C1_DO_SEND_ADR_READ shr (0+16))
   139   002607  1C                 	db	low _I2C1_DO_SEND_ADR_WRITE
   140   002608  31                 	db	high _I2C1_DO_SEND_ADR_WRITE
   141   002609  00                 	db	low (_I2C1_DO_SEND_ADR_WRITE shr (0+16))
   142   00260A  3C                 	db	low _I2C1_DO_TX
   143   00260B  26                 	db	high _I2C1_DO_TX
   144   00260C  00                 	db	low (_I2C1_DO_TX shr (0+16))
   145   00260D  4A                 	db	low _I2C1_DO_RX
   146   00260E  29                 	db	high _I2C1_DO_RX
   147   00260F  00                 	db	low (_I2C1_DO_RX shr (0+16))
   148   002610  5E                 	db	low _I2C1_DO_TX_EMPTY
   149   002611  2A                 	db	high _I2C1_DO_TX_EMPTY
   150   002612  00                 	db	low (_I2C1_DO_TX_EMPTY shr (0+16))
   151   002613  AC                 	db	low _I2C1_DO_RX_EMPTY
   152   002614  28                 	db	high _I2C1_DO_RX_EMPTY
   153   002615  00                 	db	low (_I2C1_DO_RX_EMPTY shr (0+16))
   154   002616  6C                 	db	low _I2C1_DO_SEND_RESTART_READ
   155   002617  31                 	db	high _I2C1_DO_SEND_RESTART_READ
   156   002618  00                 	db	low (_I2C1_DO_SEND_RESTART_READ shr (0+16))
   157   002619  10                 	db	low _I2C1_DO_SEND_RESTART_WRITE
   158   00261A  32                 	db	high _I2C1_DO_SEND_RESTART_WRITE
   159   00261B  00                 	db	low (_I2C1_DO_SEND_RESTART_WRITE shr (0+16))
   160   00261C  0C                 	db	low _I2C1_DO_SEND_RESTART
   161   00261D  32                 	db	high _I2C1_DO_SEND_RESTART
   162   00261E  00                 	db	low (_I2C1_DO_SEND_RESTART shr (0+16))
   163   00261F  58                 	db	low _I2C1_DO_SEND_STOP
   164   002620  2F                 	db	high _I2C1_DO_SEND_STOP
   165   002621  00                 	db	low (_I2C1_DO_SEND_STOP shr (0+16))
   166   002622  A8                 	db	low _I2C1_DO_RX_ACK
   167   002623  31                 	db	high _I2C1_DO_RX_ACK
   168   002624  00                 	db	low (_I2C1_DO_RX_ACK shr (0+16))
   169   002625  B0                 	db	low _I2C1_DO_TX_ACK
   170   002626  31                 	db	high _I2C1_DO_TX_ACK
   171   002627  00                 	db	low (_I2C1_DO_TX_ACK shr (0+16))
   172   002628  5E                 	db	low _I2C1_DO_RX_NACK_STOP
   173   002629  31                 	db	high _I2C1_DO_RX_NACK_STOP
   174   00262A  00                 	db	low (_I2C1_DO_RX_NACK_STOP shr (0+16))
   175   00262B  A0                 	db	low _I2C1_DO_RX_NACK_RESTART
   176   00262C  31                 	db	high _I2C1_DO_RX_NACK_RESTART
   177   00262D  00                 	db	low (_I2C1_DO_RX_NACK_RESTART shr (0+16))
   178   00262E  50                 	db	low _I2C1_DO_RESET
   179   00262F  31                 	db	high _I2C1_DO_RESET
   180   002630  00                 	db	low (_I2C1_DO_RESET shr (0+16))
   181   002631  4C                 	db	low _I2C1_DO_ADDRESS_NACK
   182   002632  2B                 	db	high _I2C1_DO_ADDRESS_NACK
   183   002633  00                 	db	low (_I2C1_DO_ADDRESS_NACK shr (0+16))
   184   002634  D8                 	db	low _I2C1_DO_BUS_COLLISION
   185   002635  2A                 	db	high _I2C1_DO_BUS_COLLISION
   186   002636  00                 	db	low (_I2C1_DO_BUS_COLLISION shr (0+16))
   187   002637  42                 	db	low _I2C1_DO_BUS_ERROR
   188   002638  31                 	db	high _I2C1_DO_BUS_ERROR
   189   002639  00                 	db	low (_I2C1_DO_BUS_ERROR shr (0+16))
   190   00263A                     __end_of_i2c1_fsmStateTable:
   191                           	callstack 0
   192   000000                     _RB2I2C	set	648
   193   000000                     _RB1I2C	set	649
   194   000000                     _TRISD	set	1225
   195   000000                     _TRISC	set	1224
   196   000000                     _TRISB	set	1223
   197   000000                     _LATC	set	1216
   198   000000                     _LATB	set	1215
   199   000000                     _I2C1TXB	set	652
   200   000000                     _I2C1RXB	set	651
   201   000000                     _I2C1PIE	set	667
   202   000000                     _OSCTUNE	set	176
   203   000000                     _OSCFRQ	set	177
   204   000000                     _OSCEN	set	179
   205   000000                     _I2C1PIEbits	set	667
   206   000000                     _I2C1PIRbits	set	666
   207   000000                     _I2C1ERRbits	set	663
   208   000000                     _I2C1CON1bits	set	661
   209   000000                     _I2C1CON0bits	set	660
   210   000000                     _PMD0	set	96
   211   000000                     _ACTCON	set	172
   212   000000                     _OSCCON1	set	173
   213   000000                     _OSCCON3	set	175
   214   000000                     _RC3PPS	set	532
   215   000000                     _I2C1SDAPPS	set	624
   216   000000                     _RC4I2C	set	646
   217   000000                     _RC3I2C	set	647
   218   000000                     _I2C1CNT	set	653
   219   000000                     _I2C1CON0	set	660
   220   000000                     _PMD3	set	99
   221   000000                     _PMD1	set	97
   222   000000                     _PMD8	set	104
   223   000000                     _PMD7	set	103
   224   000000                     _PMD6	set	102
   225   000000                     _PMD5	set	101
   226   000000                     _PMD4	set	100
   227   000000                     _I2C1STAT1bits	set	665
   228   000000                     _I2C1ERR	set	663
   229   000000                     _I2C1PIR	set	666
   230   000000                     _I2C1CLK	set	668
   231   000000                     _I2C1CON2	set	662
   232   000000                     _I2C1CON1	set	661
   233   000000                     _ANSELA	set	1024
   234   000000                     _ANSELB	set	1032
   235   000000                     _ANSELC	set	1040
   236   000000                     _ANSELD	set	1048
   237   000000                     _PIE7bits	set	1189
   238   000000                     _PIR7bits	set	1205
   239   000000                     _LATA	set	1214
   240   000000                     _LATD	set	1217
   241   000000                     _LATE	set	1218
   242   000000                     _TRISA	set	1222
   243   000000                     _TRISE	set	1226
   244   000000                     _LATF	set	1219
   245   000000                     _TRISF	set	1227
   246   000000                     _INLVLD	set	1052
   247   000000                     _SLRCOND	set	1051
   248   000000                     _ODCOND	set	1050
   249   000000                     _WPUD	set	1049
   250   000000                     _ANSELE	set	1056
   251   000000                     _INLVLC	set	1044
   252   000000                     _SLRCONC	set	1043
   253   000000                     _ODCONC	set	1042
   254   000000                     _WPUC	set	1041
   255   000000                     _INLVLB	set	1036
   256   000000                     _SLRCONB	set	1035
   257   000000                     _ODCONB	set	1034
   258   000000                     _WPUB	set	1033
   259   000000                     _INLVLE	set	1060
   260   000000                     _SLRCONE	set	1059
   261   000000                     _ODCONE	set	1058
   262   000000                     _WPUE	set	1057
   263   000000                     _ANSELF	set	1064
   264   000000                     _INLVLF	set	1068
   265   000000                     _SLRCONF	set	1067
   266   000000                     _ODCONF	set	1066
   267   000000                     _WPUF	set	1065
   268   000000                     _INLVLA	set	1028
   269   000000                     _SLRCONA	set	1027
   270   000000                     _ODCONA	set	1026
   271   000000                     _WPUA	set	1025
   272   000000                     _I2C1SCLPPS	set	625
   273   000000                     _RC4PPS	set	533
   274   00263A  00                 	db	0	; dummy byte at the end
   275   000000                     
   276                           ; #config settings
   277                           
   278                           	psect	cinit
   279   002F80                     __pcinit:
   280                           	callstack 0
   281   002F80                     start_initialization:
   282                           	callstack 0
   283   002F80                     __initialization:
   284                           	callstack 0
   285                           
   286                           ; Initialize objects allocated to COMRAM (1 bytes)
   287                           ; load TBLPTR registers with __pidataCOMRAM
   288   002F80  0E1C               	movlw	low __pidataCOMRAM
   289   002F82  6EF6               	movwf	tblptrl,c
   290   002F84  0E32               	movlw	high __pidataCOMRAM
   291   002F86  6EF7               	movwf	tblptrh,c
   292   002F88  0E00               	movlw	low (__pidataCOMRAM shr (0+16))
   293   002F8A  6EF8               	movwf	tblptru,c
   294   002F8C  0009               	tblrd		*+	;fetch initializer
   295   002F8E  C4F5 F547          	movff	tablat,__pdataCOMRAM
   296                           
   297                           ; Clear objects allocated to COMRAM (42 bytes)
   298   002F92  EE01  F101         	lfsr	0,__pbssCOMRAM
   299   002F96  0E2A               	movlw	42
   300   002F98                     clear_0:
   301   002F98  6AEE               	clrf	postinc0,c
   302   002F9A  06E8               	decf	wreg,f,c
   303   002F9C  E1FD               	bnz	clear_0
   304   002F9E                     end_of_initialization:
   305                           	callstack 0
   306   002F9E                     __end_of__initialization:
   307                           	callstack 0
   308   002F9E  0100               	movlb	0
   309   002FA0  EF11  F016         	goto	_main	;jump to C main() function
   310                           
   311                           	psect	bssCOMRAM
   312   000501                     __pbssCOMRAM:
   313                           	callstack 0
   314   000501                     _I2C1_Status:
   315                           	callstack 0
   316   000501                     	ds	42
   317                           
   318                           	psect	dataCOMRAM
   319   000547                     __pdataCOMRAM:
   320                           	callstack 0
   321   000547                     _Send:
   322                           	callstack 0
   323   000547                     	ds	1
   324                           
   325                           	psect	cstackCOMRAM
   326   00052B                     __pcstackCOMRAM:
   327                           	callstack 0
   328   00052B                     I2C1_Open@address:
   329                           	callstack 0
   330   00052B                     I2C1_Close@returnValue:
   331                           	callstack 0
   332   00052B                     I2C1_MasterSendTxData@data:
   333                           	callstack 0
   334   00052B                     I2C1_MasterSetCounter@counter:
   335                           	callstack 0
   336   00052B                     I2C1_SetBuffer@buffer:
   337                           	callstack 0
   338   00052B                     I2C1_SetCallback@cb:
   339                           	callstack 0
   340                           
   341                           ; 3 bytes @ 0x0
   342   00052B                     	ds	1
   343   00052C                     I2C1_Open@returnValue:
   344                           	callstack 0
   345                           
   346                           ; 1 bytes @ 0x1
   347   00052C                     	ds	1
   348   00052D                     I2C1_SetBuffer@bufferSize:
   349                           	callstack 0
   350                           
   351                           ; 2 bytes @ 0x2
   352   00052D                     	ds	1
   353   00052E                     I2C1_SetCallback@ptr:
   354                           	callstack 0
   355                           
   356                           ; 2 bytes @ 0x3
   357   00052E                     	ds	1
   358   00052F                     
   359                           ; 1 bytes @ 0x4
   360   00052F                     	ds	1
   361   000530                     I2C1_SetCallback@idx:
   362                           	callstack 0
   363                           
   364                           ; 1 bytes @ 0x5
   365   000530                     	ds	1
   366   000531                     I2C1_SetDataCompleteCallback@cb:
   367                           	callstack 0
   368   000531                     I2C1_SetAddressNackCallback@cb:
   369                           	callstack 0
   370                           
   371                           ; 3 bytes @ 0x6
   372   000531                     	ds	3
   373   000534                     I2C1_SetDataCompleteCallback@ptr:
   374                           	callstack 0
   375   000534                     I2C1_SetAddressNackCallback@ptr:
   376                           	callstack 0
   377                           
   378                           ; 2 bytes @ 0x9
   379   000534                     	ds	2
   380   000536                     rd1RegCompleteHandler@ptr:
   381                           	callstack 0
   382   000536                     rd2RegCompleteHandler@ptr:
   383                           	callstack 0
   384   000536                     wr1RegCompleteHandler@ptr:
   385                           	callstack 0
   386   000536                     wr2RegCompleteHandler@ptr:
   387                           	callstack 0
   388   000536                     rdBlkRegCompleteHandler@ptr:
   389                           	callstack 0
   390   000536                     I2C1_CallbackReturnReset@funPtr:
   391                           	callstack 0
   392                           
   393                           ; 2 bytes @ 0xB
   394   000536                     	ds	2
   395   000538                     ??_I2C1_DO_TX:
   396   000538                     ??_I2C1_DO_TX_EMPTY:
   397   000538                     ??_I2C1_DO_RX_EMPTY:
   398   000538                     ??_I2C1_DO_ADDRESS_NACK:
   399   000538                     ??_I2C1_DO_BUS_COLLISION:
   400   000538                     
   401                           ; 1 bytes @ 0xD
   402   000538                     	ds	2
   403   00053A                     ??_I2C1_DO_RX:
   404   00053A                     _I2C1_DO_TX$837:
   405                           	callstack 0
   406                           
   407                           ; 2 bytes @ 0xF
   408   00053A                     	ds	2
   409   00053C                     I2C1_DO_TX@dataTx:
   410                           	callstack 0
   411   00053C                     I2C1_DO_RX@retFsmState:
   412                           	callstack 0
   413                           
   414                           ; 1 bytes @ 0x11
   415   00053C                     	ds	1
   416   00053D                     I2C1_DO_TX@retFsmState:
   417                           	callstack 0
   418                           
   419                           ; 1 bytes @ 0x12
   420   00053D                     	ds	1
   421   00053E                     I2C1_MasterOperation@read:
   422                           	callstack 0
   423                           
   424                           ; 1 bytes @ 0x13
   425   00053E                     	ds	1
   426   00053F                     I2C1_MasterOperation@returnValue:
   427                           	callstack 0
   428                           
   429                           ; 1 bytes @ 0x14
   430   00053F                     	ds	1
   431   000540                     I2C1_WriteNBytes@data:
   432                           	callstack 0
   433                           
   434                           ; 2 bytes @ 0x15
   435   000540                     	ds	2
   436   000542                     I2C1_WriteNBytes@len:
   437                           	callstack 0
   438                           
   439                           ; 2 bytes @ 0x17
   440   000542                     	ds	2
   441   000544                     I2C1_WriteNBytes@address:
   442                           	callstack 0
   443                           
   444                           ; 1 bytes @ 0x19
   445   000544                     	ds	1
   446   000545                     ??_main:
   447                           
   448                           ; 1 bytes @ 0x1A
   449   000545                     	ds	1
   450   000546                     main@status:
   451                           	callstack 0
   452                           
   453                           ; 1 bytes @ 0x1B
   454   000546                     	ds	1
   455                           
   456 ;;
   457 ;;Main: autosize = 0, tempsize = 1, incstack = 0, save=0
   458 ;;
   459 ;; *************** function _main *****************
   460 ;; Defined at:
   461 ;;		line 51 in file "main.c"
   462 ;; Parameters:    Size  Location     Type
   463 ;;		None
   464 ;; Auto vars:     Size  Location     Type
   465 ;;  status          1   27[COMRAM] unsigned char 
   466 ;; Return value:  Size  Location     Type
   467 ;;                  1    wreg      void 
   468 ;; Registers used:
   469 ;;		wreg, fsr2l, fsr2h, status,2, status,0, pcl, pclath, pclatu, tosl, tblptrl, tblptrh, tblptru, prodl, prodh, cstack
   470 ;; Tracked objects:
   471 ;;		On entry : 0/0
   472 ;;		On exit  : 0/0
   473 ;;		Unchanged: 0/0
   474 ;; Data sizes:     COMRAM   BANK5   BANK6   BANK7   BANK8   BANK9  BANK10  BANK11  BANK12  BANK13  BANK14  BANK15  BANK1
      +6  BANK17  BANK18  BANK19  BANK20  BANK21  BANK22  BANK23  BANK24  BANK25  BANK26  BANK27  BANK28  BANK29  BANK30  BANK3
      +1  BANK32  BANK33  BANK34  BANK35  BANK36
   475 ;;      Params:         0       0       0       0       0       0       0       0       0       0       0       0       
      +0       0       0       0       0       0       0       0       0       0       0       0       0       0       0       
      +0       0       0       0       0       0
   476 ;;      Locals:         1       0       0       0       0       0       0       0       0       0       0       0       
      +0       0       0       0       0       0       0       0       0       0       0       0       0       0       0       
      +0       0       0       0       0       0
   477 ;;      Temps:          1       0       0       0       0       0       0       0       0       0       0       0       
      +0       0       0       0       0       0       0       0       0       0       0       0       0       0       0       
      +0       0       0       0       0       0
   478 ;;      Totals:         2       0       0       0       0       0       0       0       0       0       0       0       
      +0       0       0       0       0       0       0       0       0       0       0       0       0       0       0       
      +0       0       0       0       0       0
   479 ;;Total ram usage:        2 bytes
   480 ;; Hardware stack levels required when called: 12
   481 ;; This function calls:
   482 ;;		_I2C1_Initialize
   483 ;;		_I2C1_Open
   484 ;;		_I2C1_WriteNBytes
   485 ;;		_SYSTEM_Initialize
   486 ;; This function is called by:
   487 ;;		Startup code after reset
   488 ;; This function uses a non-reentrant model
   489 ;;
   490                           
   491                           	psect	text0
   492   002C22                     __ptext0:
   493                           	callstack 0
   494   002C22                     _main:
   495                           	callstack 115
   496   002C22                     
   497                           ;main.c: 54:     SYSTEM_Initialize();
   498   002C22  EC98  F018         	call	_SYSTEM_Initialize	;wreg free
   499                           
   500                           ;main.c: 55:     I2C1_Initialize();
   501   002C26  ECE4  F017         	call	_I2C1_Initialize	;wreg free
   502   002C2A                     l2743:
   503                           
   504                           ;main.c: 68:     {;main.c: 69:         uint8_t status = I2C1_Open(19);
   505   002C2A  0E13               	movlw	19
   506   002C2C  EC05  F014         	call	_I2C1_Open
   507   002C30  6E46               	movwf	main@status^(0+1280),c
   508   002C32                     
   509                           ;main.c: 71:         if(status == I2C1_BUSY)
   510   002C32  0446               	decf	main@status^(0+1280),w,c
   511   002C34  A4D8               	btfss	status,2,c
   512   002C36  EF1F  F016         	goto	u1001
   513   002C3A  EF21  F016         	goto	u1000
   514   002C3E                     u1001:
   515   002C3E  EF29  F016         	goto	l2749
   516   002C42                     u1000:
   517   002C42                     
   518                           ;main.c: 72:         {;main.c: 73:             _delay((unsigned long)((100)*(500000/4000
      +                          .0)));
   519   002C42  0E11               	movlw	17
   520   002C44  6E45               	movwf	??_main^(0+1280),c
   521   002C46  0E3A               	movlw	58
   522   002C48                     u1027:
   523   002C48  2EE8               	decfsz	wreg,f,c
   524   002C4A  D7FE               	bra	u1027
   525   002C4C  2E45               	decfsz	??_main^(0+1280),f,c
   526   002C4E  D7FC               	bra	u1027
   527   002C50  D000               	nop2	
   528   002C52                     l2749:
   529                           
   530                           ;main.c: 76:         if(status == I2C1_NOERR)
   531   002C52  5046               	movf	main@status^(0+1280),w,c
   532   002C54  A4D8               	btfss	status,2,c
   533   002C56  EF2F  F016         	goto	u1011
   534   002C5A  EF31  F016         	goto	u1010
   535   002C5E                     u1011:
   536   002C5E  EF15  F016         	goto	l2743
   537   002C62                     u1010:
   538   002C62                     
   539                           ;main.c: 77:         {;main.c: 78:             I2C1_WriteNBytes(19,Send,1);
   540   002C62  0E4D               	movlw	77
   541   002C64  6E40               	movwf	I2C1_WriteNBytes@data^(0+1280),c
   542   002C66  0E00               	movlw	0
   543   002C68  6E41               	movwf	(I2C1_WriteNBytes@data+1)^(0+1280),c
   544   002C6A  0E00               	movlw	0
   545   002C6C  6E43               	movwf	(I2C1_WriteNBytes@len+1)^(0+1280),c
   546   002C6E  0E01               	movlw	1
   547   002C70  6E42               	movwf	I2C1_WriteNBytes@len^(0+1280),c
   548   002C72  0E13               	movlw	19
   549   002C74  EC40  F016         	call	_I2C1_WriteNBytes
   550   002C78  EF15  F016         	goto	l2743
   551   002C7C  EFFE  F0FF         	goto	start
   552   002C80                     __end_of_main:
   553                           	callstack 0
   554                           
   555 ;; *************** function _SYSTEM_Initialize *****************
   556 ;; Defined at:
   557 ;;		line 50 in file "mcc_generated_files/mcc.c"
   558 ;; Parameters:    Size  Location     Type
   559 ;;		None
   560 ;; Auto vars:     Size  Location     Type
   561 ;;		None
   562 ;; Return value:  Size  Location     Type
   563 ;;                  1    wreg      void 
   564 ;; Registers used:
   565 ;;		wreg, status,2, cstack
   566 ;; Tracked objects:
   567 ;;		On entry : 0/0
   568 ;;		On exit  : 0/0
   569 ;;		Unchanged: 0/0
   570 ;; Data sizes:     COMRAM   BANK5   BANK6   BANK7   BANK8   BANK9  BANK10  BANK11  BANK12  BANK13  BANK14  BANK15  BANK1
      +6  BANK17  BANK18  BANK19  BANK20  BANK21  BANK22  BANK23  BANK24  BANK25  BANK26  BANK27  BANK28  BANK29  BANK30  BANK3
      +1  BANK32  BANK33  BANK34  BANK35  BANK36
   571 ;;      Params:         0       0       0       0       0       0       0       0       0       0       0       0       
      +0       0       0       0       0       0       0       0       0       0       0       0       0       0       0       
      +0       0       0       0       0       0
   572 ;;      Locals:         0       0       0       0       0       0       0       0       0       0       0       0       
      +0       0       0       0       0       0       0       0       0       0       0       0       0       0       0       
      +0       0       0       0       0       0
   573 ;;      Temps:          0       0       0       0       0       0       0       0       0       0       0       0       
      +0       0       0       0       0       0       0       0       0       0       0       0       0       0       0       
      +0       0       0       0       0       0
   574 ;;      Totals:         0       0       0       0       0       0       0       0       0       0       0       0       
      +0       0       0       0       0       0       0       0       0       0       0       0       0       0       0       
      +0       0       0       0       0       0
   575 ;;Total ram usage:        0 bytes
   576 ;; Hardware stack levels used: 1
   577 ;; Hardware stack levels required when called: 1
   578 ;; This function calls:
   579 ;;		_I2C1_Initialize
   580 ;;		_OSCILLATOR_Initialize
   581 ;;		_PIN_MANAGER_Initialize
   582 ;;		_PMD_Initialize
   583 ;; This function is called by:
   584 ;;		_main
   585 ;; This function uses a non-reentrant model
   586 ;;
   587                           
   588                           	psect	text1
   589   003130                     __ptext1:
   590                           	callstack 0
   591   003130                     _SYSTEM_Initialize:
   592                           	callstack 125
   593   003130                     
   594                           ;mcc_generated_files/mcc.c: 52:     PMD_Initialize();
   595   003130  ECD2  F017         	call	_PMD_Initialize	;wreg free
   596                           
   597                           ;mcc_generated_files/mcc.c: 53:     I2C1_Initialize();
   598   003134  ECE4  F017         	call	_I2C1_Initialize	;wreg free
   599                           
   600                           ;mcc_generated_files/mcc.c: 54:     PIN_MANAGER_Initialize();
   601   003138  ECAE  F013         	call	_PIN_MANAGER_Initialize	;wreg free
   602                           
   603                           ;mcc_generated_files/mcc.c: 55:     OSCILLATOR_Initialize();
   604   00313C  EC06  F018         	call	_OSCILLATOR_Initialize	;wreg free
   605   003140  0012               	return		;funcret
   606   003142                     __end_of_SYSTEM_Initialize:
   607                           	callstack 0
   608                           
   609 ;; *************** function _PMD_Initialize *****************
   610 ;; Defined at:
   611 ;;		line 74 in file "mcc_generated_files/mcc.c"
   612 ;; Parameters:    Size  Location     Type
   613 ;;		None
   614 ;; Auto vars:     Size  Location     Type
   615 ;;		None
   616 ;; Return value:  Size  Location     Type
   617 ;;                  1    wreg      void 
   618 ;; Registers used:
   619 ;;		wreg, status,2
   620 ;; Tracked objects:
   621 ;;		On entry : 0/0
   622 ;;		On exit  : 0/0
   623 ;;		Unchanged: 0/0
   624 ;; Data sizes:     COMRAM   BANK5   BANK6   BANK7   BANK8   BANK9  BANK10  BANK11  BANK12  BANK13  BANK14  BANK15  BANK1
      +6  BANK17  BANK18  BANK19  BANK20  BANK21  BANK22  BANK23  BANK24  BANK25  BANK26  BANK27  BANK28  BANK29  BANK30  BANK3
      +1  BANK32  BANK33  BANK34  BANK35  BANK36
   625 ;;      Params:         0       0       0       0       0       0       0       0       0       0       0       0       
      +0       0       0       0       0       0       0       0       0       0       0       0       0       0       0       
      +0       0       0       0       0       0
   626 ;;      Locals:         0       0       0       0       0       0       0       0       0       0       0       0       
      +0       0       0       0       0       0       0       0       0       0       0       0       0       0       0       
      +0       0       0       0       0       0
   627 ;;      Temps:          0       0       0       0       0       0       0       0       0       0       0       0       
      +0       0       0       0       0       0       0       0       0       0       0       0       0       0       0       
      +0       0       0       0       0       0
   628 ;;      Totals:         0       0       0       0       0       0       0       0       0       0       0       0       
      +0       0       0       0       0       0       0       0       0       0       0       0       0       0       0       
      +0       0       0       0       0       0
   629 ;;Total ram usage:        0 bytes
   630 ;; Hardware stack levels used: 1
   631 ;; This function calls:
   632 ;;		Nothing
   633 ;; This function is called by:
   634 ;;		_SYSTEM_Initialize
   635 ;; This function uses a non-reentrant model
   636 ;;
   637                           
   638                           	psect	text2
   639   002FA4                     __ptext2:
   640                           	callstack 0
   641   002FA4                     _PMD_Initialize:
   642                           	callstack 125
   643   002FA4                     
   644                           ;mcc_generated_files/mcc.c: 77:     PMD0 = 0x00;
   645   002FA4  0E00               	movlw	0
   646   002FA6  0100               	movlb	0	; () banked
   647   002FA8  6F60               	movwf	96,b	;volatile
   648                           
   649                           ;mcc_generated_files/mcc.c: 79:     PMD1 = 0x00;
   650   002FAA  0E00               	movlw	0
   651   002FAC  6F61               	movwf	97,b	;volatile
   652                           
   653                           ;mcc_generated_files/mcc.c: 81:     PMD3 = 0x00;
   654   002FAE  0E00               	movlw	0
   655   002FB0  6F63               	movwf	99,b	;volatile
   656                           
   657                           ;mcc_generated_files/mcc.c: 83:     PMD4 = 0x00;
   658   002FB2  0E00               	movlw	0
   659   002FB4  6F64               	movwf	100,b	;volatile
   660                           
   661                           ;mcc_generated_files/mcc.c: 85:     PMD5 = 0x00;
   662   002FB6  0E00               	movlw	0
   663   002FB8  6F65               	movwf	101,b	;volatile
   664                           
   665                           ;mcc_generated_files/mcc.c: 87:     PMD6 = 0x00;
   666   002FBA  0E00               	movlw	0
   667   002FBC  6F66               	movwf	102,b	;volatile
   668                           
   669                           ;mcc_generated_files/mcc.c: 89:     PMD7 = 0x00;
   670   002FBE  0E00               	movlw	0
   671   002FC0  6F67               	movwf	103,b	;volatile
   672                           
   673                           ;mcc_generated_files/mcc.c: 91:     PMD8 = 0x00;
   674   002FC2  0E00               	movlw	0
   675   002FC4  6F68               	movwf	104,b	;volatile
   676   002FC6                     
   677                           ; BSR set to: 0
   678   002FC6  0012               	return		;funcret
   679   002FC8                     __end_of_PMD_Initialize:
   680                           	callstack 0
   681                           
   682 ;; *************** function _PIN_MANAGER_Initialize *****************
   683 ;; Defined at:
   684 ;;		line 55 in file "mcc_generated_files/pin_manager.c"
   685 ;; Parameters:    Size  Location     Type
   686 ;;		None
   687 ;; Auto vars:     Size  Location     Type
   688 ;;		None
   689 ;; Return value:  Size  Location     Type
   690 ;;                  1    wreg      void 
   691 ;; Registers used:
   692 ;;		wreg, status,2
   693 ;; Tracked objects:
   694 ;;		On entry : 0/0
   695 ;;		On exit  : 0/0
   696 ;;		Unchanged: 0/0
   697 ;; Data sizes:     COMRAM   BANK5   BANK6   BANK7   BANK8   BANK9  BANK10  BANK11  BANK12  BANK13  BANK14  BANK15  BANK1
      +6  BANK17  BANK18  BANK19  BANK20  BANK21  BANK22  BANK23  BANK24  BANK25  BANK26  BANK27  BANK28  BANK29  BANK30  BANK3
      +1  BANK32  BANK33  BANK34  BANK35  BANK36
   698 ;;      Params:         0       0       0       0       0       0       0       0       0       0       0       0       
      +0       0       0       0       0       0       0       0       0       0       0       0       0       0       0       
      +0       0       0       0       0       0
   699 ;;      Locals:         0       0       0       0       0       0       0       0       0       0       0       0       
      +0       0       0       0       0       0       0       0       0       0       0       0       0       0       0       
      +0       0       0       0       0       0
   700 ;;      Temps:          0       0       0       0       0       0       0       0       0       0       0       0       
      +0       0       0       0       0       0       0       0       0       0       0       0       0       0       0       
      +0       0       0       0       0       0
   701 ;;      Totals:         0       0       0       0       0       0       0       0       0       0       0       0       
      +0       0       0       0       0       0       0       0       0       0       0       0       0       0       0       
      +0       0       0       0       0       0
   702 ;;Total ram usage:        0 bytes
   703 ;; Hardware stack levels used: 1
   704 ;; This function calls:
   705 ;;		Nothing
   706 ;; This function is called by:
   707 ;;		_SYSTEM_Initialize
   708 ;; This function uses a non-reentrant model
   709 ;;
   710                           
   711                           	psect	text3
   712   00275C                     __ptext3:
   713                           	callstack 0
   714   00275C                     _PIN_MANAGER_Initialize:
   715                           	callstack 125
   716   00275C                     
   717                           ;mcc_generated_files/pin_manager.c: 60:     LATE = 0x00;
   718   00275C  0E00               	movlw	0
   719   00275E  6EC2               	movwf	194,c	;volatile
   720                           
   721                           ;mcc_generated_files/pin_manager.c: 61:     LATD = 0x00;
   722   002760  0E00               	movlw	0
   723   002762  6EC1               	movwf	193,c	;volatile
   724                           
   725                           ;mcc_generated_files/pin_manager.c: 62:     LATA = 0x00;
   726   002764  0E00               	movlw	0
   727   002766  6EBE               	movwf	190,c	;volatile
   728                           
   729                           ;mcc_generated_files/pin_manager.c: 63:     LATF = 0x00;
   730   002768  0E00               	movlw	0
   731   00276A  6EC3               	movwf	195,c	;volatile
   732                           
   733                           ;mcc_generated_files/pin_manager.c: 64:     LATB = 0x00;
   734   00276C  0E00               	movlw	0
   735   00276E  6EBF               	movwf	191,c	;volatile
   736                           
   737                           ;mcc_generated_files/pin_manager.c: 65:     LATC = 0x00;
   738   002770  0E00               	movlw	0
   739   002772  6EC0               	movwf	192,c	;volatile
   740                           
   741                           ;mcc_generated_files/pin_manager.c: 70:     TRISE = 0x07;
   742   002774  0E07               	movlw	7
   743   002776  6ECA               	movwf	202,c	;volatile
   744   002778                     
   745                           ;mcc_generated_files/pin_manager.c: 71:     TRISF = 0xFF;
   746   002778  68CB               	setf	203,c	;volatile
   747   00277A                     
   748                           ;mcc_generated_files/pin_manager.c: 72:     TRISA = 0xFF;
   749   00277A  68C6               	setf	198,c	;volatile
   750   00277C                     
   751                           ;mcc_generated_files/pin_manager.c: 73:     TRISB = 0xFF;
   752   00277C  68C7               	setf	199,c	;volatile
   753                           
   754                           ;mcc_generated_files/pin_manager.c: 74:     TRISC = 0xE7;
   755   00277E  0EE7               	movlw	231
   756   002780  6EC8               	movwf	200,c	;volatile
   757   002782                     
   758                           ;mcc_generated_files/pin_manager.c: 75:     TRISD = 0xFF;
   759   002782  68C9               	setf	201,c	;volatile
   760   002784                     
   761                           ;mcc_generated_files/pin_manager.c: 80:     ANSELD = 0xFF;
   762   002784  0104               	movlb	4	; () banked
   763   002786  6918               	setf	24,b	;volatile
   764                           
   765                           ;mcc_generated_files/pin_manager.c: 81:     ANSELC = 0xE7;
   766   002788  0EE7               	movlw	231
   767   00278A  6F10               	movwf	16,b	;volatile
   768   00278C                     
   769                           ; BSR set to: 4
   770                           ;mcc_generated_files/pin_manager.c: 82:     ANSELB = 0xFF;
   771   00278C  6908               	setf	8,b	;volatile
   772                           
   773                           ;mcc_generated_files/pin_manager.c: 83:     ANSELE = 0x07;
   774   00278E  0E07               	movlw	7
   775   002790  6F20               	movwf	32,b	;volatile
   776   002792                     
   777                           ; BSR set to: 4
   778                           ;mcc_generated_files/pin_manager.c: 84:     ANSELF = 0xFF;
   779   002792  6928               	setf	40,b	;volatile
   780   002794                     
   781                           ; BSR set to: 4
   782                           ;mcc_generated_files/pin_manager.c: 85:     ANSELA = 0xFF;
   783   002794  6900               	setf	0,b	;volatile
   784                           
   785                           ;mcc_generated_files/pin_manager.c: 90:     WPUD = 0x00;
   786   002796  0E00               	movlw	0
   787   002798  6F19               	movwf	25,b	;volatile
   788                           
   789                           ;mcc_generated_files/pin_manager.c: 91:     WPUF = 0x00;
   790   00279A  0E00               	movlw	0
   791   00279C  6F29               	movwf	41,b	;volatile
   792                           
   793                           ;mcc_generated_files/pin_manager.c: 92:     WPUE = 0x00;
   794   00279E  0E00               	movlw	0
   795   0027A0  6F21               	movwf	33,b	;volatile
   796                           
   797                           ;mcc_generated_files/pin_manager.c: 93:     WPUB = 0x00;
   798   0027A2  0E00               	movlw	0
   799   0027A4  6F09               	movwf	9,b	;volatile
   800                           
   801                           ;mcc_generated_files/pin_manager.c: 94:     WPUA = 0x00;
   802   0027A6  0E00               	movlw	0
   803   0027A8  6F01               	movwf	1,b	;volatile
   804                           
   805                           ;mcc_generated_files/pin_manager.c: 95:     WPUC = 0x00;
   806   0027AA  0E00               	movlw	0
   807   0027AC  6F11               	movwf	17,b	;volatile
   808                           
   809                           ;mcc_generated_files/pin_manager.c: 100:     RB1I2C = 0x00;
   810   0027AE  0E00               	movlw	0
   811   0027B0  0102               	movlb	2	; () banked
   812   0027B2  6F89               	movwf	137,b	;volatile
   813                           
   814                           ;mcc_generated_files/pin_manager.c: 101:     RB2I2C = 0x00;
   815   0027B4  0E00               	movlw	0
   816   0027B6  6F88               	movwf	136,b	;volatile
   817                           
   818                           ;mcc_generated_files/pin_manager.c: 102:     RC3I2C = 0x00;
   819   0027B8  0E00               	movlw	0
   820   0027BA  6F87               	movwf	135,b	;volatile
   821                           
   822                           ;mcc_generated_files/pin_manager.c: 103:     RC4I2C = 0x00;
   823   0027BC  0E00               	movlw	0
   824   0027BE  6F86               	movwf	134,b	;volatile
   825                           
   826                           ;mcc_generated_files/pin_manager.c: 108:     ODCONE = 0x00;
   827   0027C0  0E00               	movlw	0
   828   0027C2  0104               	movlb	4	; () banked
   829   0027C4  6F22               	movwf	34,b	;volatile
   830                           
   831                           ;mcc_generated_files/pin_manager.c: 109:     ODCONF = 0x00;
   832   0027C6  0E00               	movlw	0
   833   0027C8  6F2A               	movwf	42,b	;volatile
   834                           
   835                           ;mcc_generated_files/pin_manager.c: 110:     ODCONA = 0x00;
   836   0027CA  0E00               	movlw	0
   837   0027CC  6F02               	movwf	2,b	;volatile
   838                           
   839                           ;mcc_generated_files/pin_manager.c: 111:     ODCONB = 0x00;
   840   0027CE  0E00               	movlw	0
   841   0027D0  6F0A               	movwf	10,b	;volatile
   842                           
   843                           ;mcc_generated_files/pin_manager.c: 112:     ODCONC = 0x18;
   844   0027D2  0E18               	movlw	24
   845   0027D4  6F12               	movwf	18,b	;volatile
   846                           
   847                           ;mcc_generated_files/pin_manager.c: 113:     ODCOND = 0x00;
   848   0027D6  0E00               	movlw	0
   849   0027D8  6F1A               	movwf	26,b	;volatile
   850   0027DA                     
   851                           ; BSR set to: 4
   852                           ;mcc_generated_files/pin_manager.c: 118:     SLRCONA = 0xFF;
   853   0027DA  6903               	setf	3,b	;volatile
   854   0027DC                     
   855                           ; BSR set to: 4
   856                           ;mcc_generated_files/pin_manager.c: 119:     SLRCONB = 0xFF;
   857   0027DC  690B               	setf	11,b	;volatile
   858   0027DE                     
   859                           ; BSR set to: 4
   860                           ;mcc_generated_files/pin_manager.c: 120:     SLRCONC = 0xFF;
   861   0027DE  6913               	setf	19,b	;volatile
   862   0027E0                     
   863                           ; BSR set to: 4
   864                           ;mcc_generated_files/pin_manager.c: 121:     SLRCOND = 0xFF;
   865   0027E0  691B               	setf	27,b	;volatile
   866                           
   867                           ;mcc_generated_files/pin_manager.c: 122:     SLRCONE = 0x07;
   868   0027E2  0E07               	movlw	7
   869   0027E4  6F23               	movwf	35,b	;volatile
   870   0027E6                     
   871                           ; BSR set to: 4
   872                           ;mcc_generated_files/pin_manager.c: 123:     SLRCONF = 0xFF;
   873   0027E6  692B               	setf	43,b	;volatile
   874   0027E8                     
   875                           ; BSR set to: 4
   876                           ;mcc_generated_files/pin_manager.c: 128:     INLVLA = 0xFF;
   877   0027E8  6904               	setf	4,b	;volatile
   878   0027EA                     
   879                           ; BSR set to: 4
   880                           ;mcc_generated_files/pin_manager.c: 129:     INLVLB = 0xFF;
   881   0027EA  690C               	setf	12,b	;volatile
   882   0027EC                     
   883                           ; BSR set to: 4
   884                           ;mcc_generated_files/pin_manager.c: 130:     INLVLC = 0xFF;
   885   0027EC  6914               	setf	20,b	;volatile
   886   0027EE                     
   887                           ; BSR set to: 4
   888                           ;mcc_generated_files/pin_manager.c: 131:     INLVLD = 0xFF;
   889   0027EE  691C               	setf	28,b	;volatile
   890                           
   891                           ;mcc_generated_files/pin_manager.c: 132:     INLVLE = 0x0F;
   892   0027F0  0E0F               	movlw	15
   893   0027F2  6F24               	movwf	36,b	;volatile
   894   0027F4                     
   895                           ; BSR set to: 4
   896                           ;mcc_generated_files/pin_manager.c: 133:     INLVLF = 0xFF;
   897   0027F4  692C               	setf	44,b	;volatile
   898                           
   899                           ;mcc_generated_files/pin_manager.c: 142:     I2C1SDAPPS = 0x14;
   900   0027F6  0E14               	movlw	20
   901   0027F8  0102               	movlb	2	; () banked
   902   0027FA  6F70               	movwf	112,b	;volatile
   903                           
   904                           ;mcc_generated_files/pin_manager.c: 143:     RC3PPS = 0x37;
   905   0027FC  0E37               	movlw	55
   906   0027FE  6F14               	movwf	20,b	;volatile
   907                           
   908                           ;mcc_generated_files/pin_manager.c: 144:     RC4PPS = 0x38;
   909   002800  0E38               	movlw	56
   910   002802  6F15               	movwf	21,b	;volatile
   911                           
   912                           ;mcc_generated_files/pin_manager.c: 145:     I2C1SCLPPS = 0x13;
   913   002804  0E13               	movlw	19
   914   002806  6F71               	movwf	113,b	;volatile
   915   002808                     
   916                           ; BSR set to: 2
   917   002808  0012               	return		;funcret
   918   00280A                     __end_of_PIN_MANAGER_Initialize:
   919                           	callstack 0
   920                           
   921 ;; *************** function _OSCILLATOR_Initialize *****************
   922 ;; Defined at:
   923 ;;		line 58 in file "mcc_generated_files/mcc.c"
   924 ;; Parameters:    Size  Location     Type
   925 ;;		None
   926 ;; Auto vars:     Size  Location     Type
   927 ;;		None
   928 ;; Return value:  Size  Location     Type
   929 ;;                  1    wreg      void 
   930 ;; Registers used:
   931 ;;		wreg, status,2
   932 ;; Tracked objects:
   933 ;;		On entry : 0/0
   934 ;;		On exit  : 0/0
   935 ;;		Unchanged: 0/0
   936 ;; Data sizes:     COMRAM   BANK5   BANK6   BANK7   BANK8   BANK9  BANK10  BANK11  BANK12  BANK13  BANK14  BANK15  BANK1
      +6  BANK17  BANK18  BANK19  BANK20  BANK21  BANK22  BANK23  BANK24  BANK25  BANK26  BANK27  BANK28  BANK29  BANK30  BANK3
      +1  BANK32  BANK33  BANK34  BANK35  BANK36
   937 ;;      Params:         0       0       0       0       0       0       0       0       0       0       0       0       
      +0       0       0       0       0       0       0       0       0       0       0       0       0       0       0       
      +0       0       0       0       0       0
   938 ;;      Locals:         0       0       0       0       0       0       0       0       0       0       0       0       
      +0       0       0       0       0       0       0       0       0       0       0       0       0       0       0       
      +0       0       0       0       0       0
   939 ;;      Temps:          0       0       0       0       0       0       0       0       0       0       0       0       
      +0       0       0       0       0       0       0       0       0       0       0       0       0       0       0       
      +0       0       0       0       0       0
   940 ;;      Totals:         0       0       0       0       0       0       0       0       0       0       0       0       
      +0       0       0       0       0       0       0       0       0       0       0       0       0       0       0       
      +0       0       0       0       0       0
   941 ;;Total ram usage:        0 bytes
   942 ;; Hardware stack levels used: 1
   943 ;; This function calls:
   944 ;;		Nothing
   945 ;; This function is called by:
   946 ;;		_SYSTEM_Initialize
   947 ;; This function uses a non-reentrant model
   948 ;;
   949                           
   950                           	psect	text4
   951   00300C                     __ptext4:
   952                           	callstack 0
   953   00300C                     _OSCILLATOR_Initialize:
   954                           	callstack 125
   955   00300C                     
   956                           ;mcc_generated_files/mcc.c: 61:     OSCCON1 = 0x63;
   957   00300C  0E63               	movlw	99
   958   00300E  0100               	movlb	0	; () banked
   959   003010  6FAD               	movwf	173,b	;volatile
   960                           
   961                           ;mcc_generated_files/mcc.c: 63:     OSCCON3 = 0x00;
   962   003012  0E00               	movlw	0
   963   003014  6FAF               	movwf	175,b	;volatile
   964                           
   965                           ;mcc_generated_files/mcc.c: 65:     OSCEN = 0x00;
   966   003016  0E00               	movlw	0
   967   003018  6FB3               	movwf	179,b	;volatile
   968                           
   969                           ;mcc_generated_files/mcc.c: 67:     OSCFRQ = 0x02;
   970   00301A  0E02               	movlw	2
   971   00301C  6FB1               	movwf	177,b	;volatile
   972                           
   973                           ;mcc_generated_files/mcc.c: 69:     OSCTUNE = 0x00;
   974   00301E  0E00               	movlw	0
   975   003020  6FB0               	movwf	176,b	;volatile
   976                           
   977                           ;mcc_generated_files/mcc.c: 71:     ACTCON = 0x00;
   978   003022  0E00               	movlw	0
   979   003024  6FAC               	movwf	172,b	;volatile
   980   003026                     
   981                           ; BSR set to: 0
   982   003026  0012               	return		;funcret
   983   003028                     __end_of_OSCILLATOR_Initialize:
   984                           	callstack 0
   985                           
   986 ;; *************** function _I2C1_Initialize *****************
   987 ;; Defined at:
   988 ;;		line 183 in file "mcc_generated_files/i2c1_master.c"
   989 ;; Parameters:    Size  Location     Type
   990 ;;		None
   991 ;; Auto vars:     Size  Location     Type
   992 ;;		None
   993 ;; Return value:  Size  Location     Type
   994 ;;                  1    wreg      void 
   995 ;; Registers used:
   996 ;;		wreg, status,2
   997 ;; Tracked objects:
   998 ;;		On entry : 0/0
   999 ;;		On exit  : 0/0
  1000 ;;		Unchanged: 0/0
  1001 ;; Data sizes:     COMRAM   BANK5   BANK6   BANK7   BANK8   BANK9  BANK10  BANK11  BANK12  BANK13  BANK14  BANK15  BANK1
      +6  BANK17  BANK18  BANK19  BANK20  BANK21  BANK22  BANK23  BANK24  BANK25  BANK26  BANK27  BANK28  BANK29  BANK30  BANK3
      +1  BANK32  BANK33  BANK34  BANK35  BANK36
  1002 ;;      Params:         0       0       0       0       0       0       0       0       0       0       0       0       
      +0       0       0       0       0       0       0       0       0       0       0       0       0       0       0       
      +0       0       0       0       0       0
  1003 ;;      Locals:         0       0       0       0       0       0       0       0       0       0       0       0       
      +0       0       0       0       0       0       0       0       0       0       0       0       0       0       0       
      +0       0       0       0       0       0
  1004 ;;      Temps:          0       0       0       0       0       0       0       0       0       0       0       0       
      +0       0       0       0       0       0       0       0       0       0       0       0       0       0       0       
      +0       0       0       0       0       0
  1005 ;;      Totals:         0       0       0       0       0       0       0       0       0       0       0       0       
      +0       0       0       0       0       0       0       0       0       0       0       0       0       0       0       
      +0       0       0       0       0       0
  1006 ;;Total ram usage:        0 bytes
  1007 ;; Hardware stack levels used: 1
  1008 ;; This function calls:
  1009 ;;		Nothing
  1010 ;; This function is called by:
  1011 ;;		_SYSTEM_Initialize
  1012 ;;		_main
  1013 ;; This function uses a non-reentrant model
  1014 ;;
  1015                           
  1016                           	psect	text5
  1017   002FC8                     __ptext5:
  1018                           	callstack 0
  1019   002FC8                     _I2C1_Initialize:
  1020                           	callstack 125
  1021   002FC8                     
  1022                           ;mcc_generated_files/i2c1_master.c: 186:     I2C1CON0 = 0x04;
  1023   002FC8  0E04               	movlw	4
  1024   002FCA  0102               	movlb	2	; () banked
  1025   002FCC  6F94               	movwf	148,b	;volatile
  1026                           
  1027                           ;mcc_generated_files/i2c1_master.c: 188:     I2C1CON1 = 0x80;
  1028   002FCE  0E80               	movlw	128
  1029   002FD0  6F95               	movwf	149,b	;volatile
  1030                           
  1031                           ;mcc_generated_files/i2c1_master.c: 190:     I2C1CON2 = 0x18;
  1032   002FD2  0E18               	movlw	24
  1033   002FD4  6F96               	movwf	150,b	;volatile
  1034                           
  1035                           ;mcc_generated_files/i2c1_master.c: 192:     I2C1CLK = 0x03;
  1036   002FD6  0E03               	movlw	3
  1037   002FD8  6F9C               	movwf	156,b	;volatile
  1038                           
  1039                           ;mcc_generated_files/i2c1_master.c: 194:     I2C1PIR = 0x00;
  1040   002FDA  0E00               	movlw	0
  1041   002FDC  6F9A               	movwf	154,b	;volatile
  1042                           
  1043                           ;mcc_generated_files/i2c1_master.c: 196:     I2C1PIE = 0x00;
  1044   002FDE  0E00               	movlw	0
  1045   002FE0  6F9B               	movwf	155,b	;volatile
  1046                           
  1047                           ;mcc_generated_files/i2c1_master.c: 198:     I2C1ERR = 0x00;
  1048   002FE2  0E00               	movlw	0
  1049   002FE4  6F97               	movwf	151,b	;volatile
  1050   002FE6                     
  1051                           ; BSR set to: 2
  1052                           ;mcc_generated_files/i2c1_master.c: 200:     I2C1CNT = 0xFF;
  1053   002FE6  698D               	setf	141,b	;volatile
  1054   002FE8                     
  1055                           ; BSR set to: 2
  1056   002FE8  0012               	return		;funcret
  1057   002FEA                     __end_of_I2C1_Initialize:
  1058                           	callstack 0
  1059                           
  1060 ;; *************** function _I2C1_WriteNBytes *****************
  1061 ;; Defined at:
  1062 ;;		line 111 in file "mcc_generated_files/examples/i2c1_master_example.c"
  1063 ;; Parameters:    Size  Location     Type
  1064 ;;  address         1    wreg     unsigned char 
  1065 ;;  data            2   21[COMRAM] PTR unsigned char 
  1066 ;;		 -> RAM(9471), 
  1067 ;;  len             2   23[COMRAM] unsigned int 
  1068 ;; Auto vars:     Size  Location     Type
  1069 ;;  address         1   25[COMRAM] unsigned char 
  1070 ;; Return value:  Size  Location     Type
  1071 ;;                  1    wreg      void 
  1072 ;; Registers used:
  1073 ;;		wreg, fsr2l, fsr2h, status,2, status,0, pcl, pclath, pclatu, tosl, tblptrl, tblptrh, tblptru, prodl, prodh, cstack
  1074 ;; Tracked objects:
  1075 ;;		On entry : 0/0
  1076 ;;		On exit  : 0/0
  1077 ;;		Unchanged: 0/0
  1078 ;; Data sizes:     COMRAM   BANK5   BANK6   BANK7   BANK8   BANK9  BANK10  BANK11  BANK12  BANK13  BANK14  BANK15  BANK1
      +6  BANK17  BANK18  BANK19  BANK20  BANK21  BANK22  BANK23  BANK24  BANK25  BANK26  BANK27  BANK28  BANK29  BANK30  BANK3
      +1  BANK32  BANK33  BANK34  BANK35  BANK36
  1079 ;;      Params:         4       0       0       0       0       0       0       0       0       0       0       0       
      +0       0       0       0       0       0       0       0       0       0       0       0       0       0       0       
      +0       0       0       0       0       0
  1080 ;;      Locals:         1       0       0       0       0       0       0       0       0       0       0       0       
      +0       0       0       0       0       0       0       0       0       0       0       0       0       0       0       
      +0       0       0       0       0       0
  1081 ;;      Temps:          0       0       0       0       0       0       0       0       0       0       0       0       
      +0       0       0       0       0       0       0       0       0       0       0       0       0       0       0       
      +0       0       0       0       0       0
  1082 ;;      Totals:         5       0       0       0       0       0       0       0       0       0       0       0       
      +0       0       0       0       0       0       0       0       0       0       0       0       0       0       0       
      +0       0       0       0       0       0
  1083 ;;Total ram usage:        5 bytes
  1084 ;; Hardware stack levels used: 1
  1085 ;; Hardware stack levels required when called: 11
  1086 ;; This function calls:
  1087 ;;		_I2C1_Close
  1088 ;;		_I2C1_MasterWrite
  1089 ;;		_I2C1_Open
  1090 ;;		_I2C1_SetAddressNackCallback
  1091 ;;		_I2C1_SetBuffer
  1092 ;; This function is called by:
  1093 ;;		_main
  1094 ;; This function uses a non-reentrant model
  1095 ;;
  1096                           
  1097                           	psect	text6
  1098   002C80                     __ptext6:
  1099                           	callstack 0
  1100   002C80                     _I2C1_WriteNBytes:
  1101                           	callstack 115
  1102                           
  1103                           ; BSR set to: 2
  1104                           ;incstack = 0
  1105                           ;I2C1_WriteNBytes@address stored from wreg
  1106   002C80  6E44               	movwf	I2C1_WriteNBytes@address^(0+1280),c
  1107   002C82                     l2641:
  1108   002C82  5044               	movf	I2C1_WriteNBytes@address^(0+1280),w,c
  1109   002C84  EC05  F014         	call	_I2C1_Open
  1110   002C88  0900               	iorlw	0
  1111   002C8A  B4D8               	btfsc	status,2,c
  1112   002C8C  EF4A  F016         	goto	u861
  1113   002C90  EF4C  F016         	goto	u860
  1114   002C94                     u861:
  1115   002C94  EF41  F016         	goto	l2641
  1116   002C98                     u860:
  1117   002C98                     
  1118                           ;mcc_generated_files/examples/i2c1_master_example.c: 114:     I2C1_SetBuffer(data,len);
  1119   002C98  C540  F52B         	movff	I2C1_WriteNBytes@data,I2C1_SetBuffer@buffer
  1120   002C9C  C541  F52C         	movff	I2C1_WriteNBytes@data+1,I2C1_SetBuffer@buffer+1
  1121   002CA0  C542  F52D         	movff	I2C1_WriteNBytes@len,I2C1_SetBuffer@bufferSize
  1122   002CA4  C543  F52E         	movff	I2C1_WriteNBytes@len+1,I2C1_SetBuffer@bufferSize+1
  1123   002CA8  ECF5  F017         	call	_I2C1_SetBuffer	;wreg free
  1124   002CAC                     
  1125                           ;mcc_generated_files/examples/i2c1_master_example.c: 115:     I2C1_SetAddressNackCallbac
      +                          k(((void*)0),((void*)0));
  1126   002CAC  0E00               	movlw	0
  1127   002CAE  6E31               	movwf	I2C1_SetAddressNackCallback@cb^(0+1280),c
  1128   002CB0  0E00               	movlw	0
  1129   002CB2  6E32               	movwf	(I2C1_SetAddressNackCallback@cb+1)^(0+1280),c
  1130   002CB4  0E00               	movlw	0
  1131   002CB6  6E33               	movwf	(I2C1_SetAddressNackCallback@cb+2)^(0+1280),c
  1132   002CB8  0E00               	movlw	0
  1133   002CBA  6E34               	movwf	I2C1_SetAddressNackCallback@ptr^(0+1280),c
  1134   002CBC  0E00               	movlw	0
  1135   002CBE  6E35               	movwf	(I2C1_SetAddressNackCallback@ptr+1)^(0+1280),c
  1136   002CC0  EC14  F018         	call	_I2C1_SetAddressNackCallback	;wreg free
  1137   002CC4                     
  1138                           ;mcc_generated_files/examples/i2c1_master_example.c: 116:     I2C1_MasterWrite();
  1139   002CC4  ECCC  F018         	call	_I2C1_MasterWrite	;wreg free
  1140   002CC8                     l2649:
  1141   002CC8  EC97  F017         	call	_I2C1_Close	;wreg free
  1142   002CCC  06E8               	decf	wreg,f,c
  1143   002CCE  B4D8               	btfsc	status,2,c
  1144   002CD0  EF6C  F016         	goto	u871
  1145   002CD4  EF6E  F016         	goto	u870
  1146   002CD8                     u871:
  1147   002CD8  EF64  F016         	goto	l2649
  1148   002CDC                     u870:
  1149   002CDC  0012               	return		;funcret
  1150   002CDE                     __end_of_I2C1_WriteNBytes:
  1151                           	callstack 0
  1152                           
  1153 ;; *************** function _I2C1_SetAddressNackCallback *****************
  1154 ;; Defined at:
  1155 ;;		line 313 in file "mcc_generated_files/i2c1_master.c"
  1156 ;; Parameters:    Size  Location     Type
  1157 ;;  cb              3    6[COMRAM] PTR FTN(PTR void ,)enum 
  1158 ;;		 -> Absolute function(1), 
  1159 ;;  ptr             2    9[COMRAM] PTR void 
  1160 ;;		 -> NULL(0), 
  1161 ;; Auto vars:     Size  Location     Type
  1162 ;;		None
  1163 ;; Return value:  Size  Location     Type
  1164 ;;                  1    wreg      void 
  1165 ;; Registers used:
  1166 ;;		wreg, fsr2l, fsr2h, status,2, status,0, prodl, prodh, cstack
  1167 ;; Tracked objects:
  1168 ;;		On entry : 0/0
  1169 ;;		On exit  : 0/0
  1170 ;;		Unchanged: 0/0
  1171 ;; Data sizes:     COMRAM   BANK5   BANK6   BANK7   BANK8   BANK9  BANK10  BANK11  BANK12  BANK13  BANK14  BANK15  BANK1
      +6  BANK17  BANK18  BANK19  BANK20  BANK21  BANK22  BANK23  BANK24  BANK25  BANK26  BANK27  BANK28  BANK29  BANK30  BANK3
      +1  BANK32  BANK33  BANK34  BANK35  BANK36
  1172 ;;      Params:         5       0       0       0       0       0       0       0       0       0       0       0       
      +0       0       0       0       0       0       0       0       0       0       0       0       0       0       0       
      +0       0       0       0       0       0
  1173 ;;      Locals:         0       0       0       0       0       0       0       0       0       0       0       0       
      +0       0       0       0       0       0       0       0       0       0       0       0       0       0       0       
      +0       0       0       0       0       0
  1174 ;;      Temps:          0       0       0       0       0       0       0       0       0       0       0       0       
      +0       0       0       0       0       0       0       0       0       0       0       0       0       0       0       
      +0       0       0       0       0       0
  1175 ;;      Totals:         5       0       0       0       0       0       0       0       0       0       0       0       
      +0       0       0       0       0       0       0       0       0       0       0       0       0       0       0       
      +0       0       0       0       0       0
  1176 ;;Total ram usage:        5 bytes
  1177 ;; Hardware stack levels used: 1
  1178 ;; Hardware stack levels required when called: 1
  1179 ;; This function calls:
  1180 ;;		_I2C1_SetCallback
  1181 ;; This function is called by:
  1182 ;;		_I2C1_WriteNBytes
  1183 ;;		_I2C1_Read1ByteRegister
  1184 ;;		_I2C1_Read2ByteRegister
  1185 ;;		_I2C1_Write1ByteRegister
  1186 ;;		_I2C1_Write2ByteRegister
  1187 ;;		_I2C1_ReadDataBlock
  1188 ;; This function uses a non-reentrant model
  1189 ;;
  1190                           
  1191                           	psect	text7
  1192   003028                     __ptext7:
  1193                           	callstack 0
  1194   003028                     _I2C1_SetAddressNackCallback:
  1195                           	callstack 124
  1196   003028                     
  1197                           ;mcc_generated_files/i2c1_master.c: 313: void I2C1_SetAddressNackCallback(i2c1_callback_
      +                          t cb, void *ptr);mcc_generated_files/i2c1_master.c: 314: {;mcc_generated_files/i2c1_mast
      +                          er.c: 315:     I2C1_SetCallback(I2C1_ADDR_NACK, cb, ptr);
  1198   003028  C531  F52B         	movff	I2C1_SetAddressNackCallback@cb,I2C1_SetCallback@cb
  1199   00302C  C532  F52C         	movff	I2C1_SetAddressNackCallback@cb+1,I2C1_SetCallback@cb+1
  1200   003030  C533  F52D         	movff	I2C1_SetAddressNackCallback@cb+2,I2C1_SetCallback@cb+2
  1201   003034  C534  F52E         	movff	I2C1_SetAddressNackCallback@ptr,I2C1_SetCallback@ptr
  1202   003038  C535  F52F         	movff	I2C1_SetAddressNackCallback@ptr+1,I2C1_SetCallback@ptr+1
  1203   00303C  0E02               	movlw	2
  1204   00303E  ECED  F014         	call	_I2C1_SetCallback
  1205   003042  0012               	return		;funcret
  1206   003044                     __end_of_I2C1_SetAddressNackCallback:
  1207                           	callstack 0
  1208                           
  1209 ;; *************** function _I2C1_Open *****************
  1210 ;; Defined at:
  1211 ;;		line 204 in file "mcc_generated_files/i2c1_master.c"
  1212 ;; Parameters:    Size  Location     Type
  1213 ;;  address         1    wreg     unsigned char 
  1214 ;; Auto vars:     Size  Location     Type
  1215 ;;  address         1    0[COMRAM] unsigned char 
  1216 ;;  returnValue     1    1[COMRAM] enum E355
  1217 ;; Return value:  Size  Location     Type
  1218 ;;                  1    wreg      enum E355
  1219 ;; Registers used:
  1220 ;;		wreg, status,2, status,0, cstack
  1221 ;; Tracked objects:
  1222 ;;		On entry : 0/0
  1223 ;;		On exit  : 0/0
  1224 ;;		Unchanged: 0/0
  1225 ;; Data sizes:     COMRAM   BANK5   BANK6   BANK7   BANK8   BANK9  BANK10  BANK11  BANK12  BANK13  BANK14  BANK15  BANK1
      +6  BANK17  BANK18  BANK19  BANK20  BANK21  BANK22  BANK23  BANK24  BANK25  BANK26  BANK27  BANK28  BANK29  BANK30  BANK3
      +1  BANK32  BANK33  BANK34  BANK35  BANK36
  1226 ;;      Params:         0       0       0       0       0       0       0       0       0       0       0       0       
      +0       0       0       0       0       0       0       0       0       0       0       0       0       0       0       
      +0       0       0       0       0       0
  1227 ;;      Locals:         2       0       0       0       0       0       0       0       0       0       0       0       
      +0       0       0       0       0       0       0       0       0       0       0       0       0       0       0       
      +0       0       0       0       0       0
  1228 ;;      Temps:          0       0       0       0       0       0       0       0       0       0       0       0       
      +0       0       0       0       0       0       0       0       0       0       0       0       0       0       0       
      +0       0       0       0       0       0
  1229 ;;      Totals:         2       0       0       0       0       0       0       0       0       0       0       0       
      +0       0       0       0       0       0       0       0       0       0       0       0       0       0       0       
      +0       0       0       0       0       0
  1230 ;;Total ram usage:        2 bytes
  1231 ;; Hardware stack levels used: 1
  1232 ;; Hardware stack levels required when called: 1
  1233 ;; This function calls:
  1234 ;;		_I2C1_MasterClearIrq
  1235 ;;		_I2C1_MasterOpen
  1236 ;; This function is called by:
  1237 ;;		_I2C1_WriteNBytes
  1238 ;;		_main
  1239 ;;		_I2C1_Read1ByteRegister
  1240 ;;		_I2C1_Read2ByteRegister
  1241 ;;		_I2C1_Write1ByteRegister
  1242 ;;		_I2C1_Write2ByteRegister
  1243 ;;		_I2C1_ReadNBytes
  1244 ;;		_I2C1_ReadDataBlock
  1245 ;; This function uses a non-reentrant model
  1246 ;;
  1247                           
  1248                           	psect	text8
  1249   00280A                     __ptext8:
  1250                           	callstack 0
  1251   00280A                     _I2C1_Open:
  1252                           	callstack 124
  1253                           
  1254                           ;incstack = 0
  1255                           ;I2C1_Open@address stored from wreg
  1256   00280A  6E2B               	movwf	I2C1_Open@address^(0+1280),c
  1257   00280C                     
  1258                           ;mcc_generated_files/i2c1_master.c: 204: i2c1_error_t I2C1_Open(i2c1_address_t address);
      +                          mcc_generated_files/i2c1_master.c: 205: {;mcc_generated_files/i2c1_master.c: 206:     i2
      +                          c1_error_t returnValue = I2C1_BUSY;
  1259   00280C  0E01               	movlw	1
  1260   00280E  6E2C               	movwf	I2C1_Open@returnValue^(0+1280),c
  1261   002810                     
  1262                           ;mcc_generated_files/i2c1_master.c: 208:     if(!I2C1_Status.inUse)
  1263   002810  B62A               	btfsc	(_I2C1_Status+41)^(0+1280),3,c
  1264   002812  EF0D  F014         	goto	u851
  1265   002816  EF0F  F014         	goto	u850
  1266   00281A                     u851:
  1267   00281A  EF54  F014         	goto	l2629
  1268   00281E                     u850:
  1269   00281E                     
  1270                           ;mcc_generated_files/i2c1_master.c: 209:     {;mcc_generated_files/i2c1_master.c: 210:  
      +                                 I2C1_Status.address = address;
  1271   00281E  C52B  F523         	movff	I2C1_Open@address,_I2C1_Status+34
  1272   002822                     
  1273                           ;mcc_generated_files/i2c1_master.c: 211:         I2C1_Status.busy = 0;
  1274   002822  942A               	bcf	(_I2C1_Status+41)^(0+1280),2,c
  1275   002824                     
  1276                           ;mcc_generated_files/i2c1_master.c: 212:         I2C1_Status.inUse = 1;
  1277   002824  862A               	bsf	(_I2C1_Status+41)^(0+1280),3,c
  1278   002826                     
  1279                           ;mcc_generated_files/i2c1_master.c: 213:         I2C1_Status.addressNackCheck = 0;
  1280   002826  0EFC               	movlw	-4
  1281   002828  162A               	andwf	(_I2C1_Status+41)^(0+1280),f,c
  1282   00282A                     
  1283                           ;mcc_generated_files/i2c1_master.c: 214:         I2C1_Status.state = I2C1_RESET;
  1284   00282A  0E0F               	movlw	15
  1285   00282C  6E28               	movwf	(_I2C1_Status+39)^(0+1280),c
  1286   00282E                     
  1287                           ;mcc_generated_files/i2c1_master.c: 215:         I2C1_Status.time_out_value = 500;
  1288   00282E  0E01               	movlw	1
  1289   002830  6E22               	movwf	(_I2C1_Status+33)^(0+1280),c
  1290   002832  0EF4               	movlw	244
  1291   002834  6E21               	movwf	(_I2C1_Status+32)^(0+1280),c
  1292   002836                     
  1293                           ;mcc_generated_files/i2c1_master.c: 216:         I2C1_Status.bufferFree = 1;
  1294   002836  882A               	bsf	(_I2C1_Status+41)^(0+1280),4,c
  1295   002838                     
  1296                           ;mcc_generated_files/i2c1_master.c: 219:         I2C1_Status.callbackTable[I2C1_DATA_COM
      +                          PLETE]=I2C1_CallbackReturnStop;
  1297   002838  0E18               	movlw	low _I2C1_CallbackReturnStop
  1298   00283A  6E01               	movwf	_I2C1_Status^(0+1280),c
  1299   00283C  0E32               	movlw	high _I2C1_CallbackReturnStop
  1300   00283E  6E02               	movwf	(_I2C1_Status+1)^(0+1280),c
  1301   002840  0E00               	movlw	low (_I2C1_CallbackReturnStop shr (0+16))
  1302   002842  6E03               	movwf	(_I2C1_Status+2)^(0+1280),c
  1303   002844                     
  1304                           ;mcc_generated_files/i2c1_master.c: 220:         I2C1_Status.callbackPayload[I2C1_DATA_C
      +                          OMPLETE] = ((void*)0);
  1305   002844  0E00               	movlw	0
  1306   002846  6E13               	movwf	(_I2C1_Status+18)^(0+1280),c
  1307   002848  0E00               	movlw	0
  1308   00284A  6E14               	movwf	(_I2C1_Status+19)^(0+1280),c
  1309   00284C                     
  1310                           ;mcc_generated_files/i2c1_master.c: 221:         I2C1_Status.callbackTable[I2C1_WRITE_CO
      +                          LLISION]=I2C1_CallbackReturnStop;
  1311   00284C  0E18               	movlw	low _I2C1_CallbackReturnStop
  1312   00284E  6E04               	movwf	(_I2C1_Status+3)^(0+1280),c
  1313   002850  0E32               	movlw	high _I2C1_CallbackReturnStop
  1314   002852  6E05               	movwf	(_I2C1_Status+4)^(0+1280),c
  1315   002854  0E00               	movlw	low (_I2C1_CallbackReturnStop shr (0+16))
  1316   002856  6E06               	movwf	(_I2C1_Status+5)^(0+1280),c
  1317   002858                     
  1318                           ;mcc_generated_files/i2c1_master.c: 222:         I2C1_Status.callbackPayload[I2C1_WRITE_
      +                          COLLISION] = ((void*)0);
  1319   002858  0E00               	movlw	0
  1320   00285A  6E15               	movwf	(_I2C1_Status+20)^(0+1280),c
  1321   00285C  0E00               	movlw	0
  1322   00285E  6E16               	movwf	(_I2C1_Status+21)^(0+1280),c
  1323   002860                     
  1324                           ;mcc_generated_files/i2c1_master.c: 223:         I2C1_Status.callbackTable[I2C1_ADDR_NAC
      +                          K]=I2C1_CallbackReturnStop;
  1325   002860  0E18               	movlw	low _I2C1_CallbackReturnStop
  1326   002862  6E07               	movwf	(_I2C1_Status+6)^(0+1280),c
  1327   002864  0E32               	movlw	high _I2C1_CallbackReturnStop
  1328   002866  6E08               	movwf	(_I2C1_Status+7)^(0+1280),c
  1329   002868  0E00               	movlw	low (_I2C1_CallbackReturnStop shr (0+16))
  1330   00286A  6E09               	movwf	(_I2C1_Status+8)^(0+1280),c
  1331   00286C                     
  1332                           ;mcc_generated_files/i2c1_master.c: 224:         I2C1_Status.callbackPayload[I2C1_ADDR_N
      +                          ACK] = ((void*)0);
  1333   00286C  0E00               	movlw	0
  1334   00286E  6E17               	movwf	(_I2C1_Status+22)^(0+1280),c
  1335   002870  0E00               	movlw	0
  1336   002872  6E18               	movwf	(_I2C1_Status+23)^(0+1280),c
  1337   002874                     
  1338                           ;mcc_generated_files/i2c1_master.c: 225:         I2C1_Status.callbackTable[I2C1_DATA_NAC
      +                          K]=I2C1_CallbackReturnStop;
  1339   002874  0E18               	movlw	low _I2C1_CallbackReturnStop
  1340   002876  6E0A               	movwf	(_I2C1_Status+9)^(0+1280),c
  1341   002878  0E32               	movlw	high _I2C1_CallbackReturnStop
  1342   00287A  6E0B               	movwf	(_I2C1_Status+10)^(0+1280),c
  1343   00287C  0E00               	movlw	low (_I2C1_CallbackReturnStop shr (0+16))
  1344   00287E  6E0C               	movwf	(_I2C1_Status+11)^(0+1280),c
  1345   002880                     
  1346                           ;mcc_generated_files/i2c1_master.c: 226:         I2C1_Status.callbackPayload[I2C1_DATA_N
      +                          ACK] = ((void*)0);
  1347   002880  0E00               	movlw	0
  1348   002882  6E19               	movwf	(_I2C1_Status+24)^(0+1280),c
  1349   002884  0E00               	movlw	0
  1350   002886  6E1A               	movwf	(_I2C1_Status+25)^(0+1280),c
  1351   002888                     
  1352                           ;mcc_generated_files/i2c1_master.c: 227:         I2C1_Status.callbackTable[I2C1_TIMEOUT]
      +                          =I2C1_CallbackReturnReset;
  1353   002888  0E14               	movlw	low _I2C1_CallbackReturnReset
  1354   00288A  6E0D               	movwf	(_I2C1_Status+12)^(0+1280),c
  1355   00288C  0E32               	movlw	high _I2C1_CallbackReturnReset
  1356   00288E  6E0E               	movwf	(_I2C1_Status+13)^(0+1280),c
  1357   002890  0E00               	movlw	low (_I2C1_CallbackReturnReset shr (0+16))
  1358   002892  6E0F               	movwf	(_I2C1_Status+14)^(0+1280),c
  1359   002894                     
  1360                           ;mcc_generated_files/i2c1_master.c: 228:         I2C1_Status.callbackPayload[I2C1_TIMEOU
      +                          T] = ((void*)0);
  1361   002894  0E00               	movlw	0
  1362   002896  6E1B               	movwf	(_I2C1_Status+26)^(0+1280),c
  1363   002898  0E00               	movlw	0
  1364   00289A  6E1C               	movwf	(_I2C1_Status+27)^(0+1280),c
  1365   00289C                     
  1366                           ;mcc_generated_files/i2c1_master.c: 230:         I2C1_MasterClearIrq();
  1367   00289C  ECE4  F018         	call	_I2C1_MasterClearIrq	;wreg free
  1368   0028A0                     
  1369                           ;mcc_generated_files/i2c1_master.c: 231:         I2C1_MasterOpen();
  1370   0028A0  EC6D  F017         	call	_I2C1_MasterOpen	;wreg free
  1371   0028A4                     
  1372                           ;mcc_generated_files/i2c1_master.c: 232:         returnValue = I2C1_NOERR;
  1373   0028A4  0E00               	movlw	0
  1374   0028A6  6E2C               	movwf	I2C1_Open@returnValue^(0+1280),c
  1375   0028A8                     l2629:
  1376                           
  1377                           ;mcc_generated_files/i2c1_master.c: 234:     return returnValue;
  1378   0028A8  502C               	movf	I2C1_Open@returnValue^(0+1280),w,c
  1379   0028AA  0012               	return		;funcret
  1380   0028AC                     __end_of_I2C1_Open:
  1381                           	callstack 0
  1382                           
  1383 ;; *************** function _I2C1_MasterOpen *****************
  1384 ;; Defined at:
  1385 ;;		line 632 in file "mcc_generated_files/i2c1_master.c"
  1386 ;; Parameters:    Size  Location     Type
  1387 ;;		None
  1388 ;; Auto vars:     Size  Location     Type
  1389 ;;		None
  1390 ;; Return value:  Size  Location     Type
  1391 ;;                  1    wreg      _Bool 
  1392 ;; Registers used:
  1393 ;;		wreg, status,2
  1394 ;; Tracked objects:
  1395 ;;		On entry : 0/0
  1396 ;;		On exit  : 0/0
  1397 ;;		Unchanged: 0/0
  1398 ;; Data sizes:     COMRAM   BANK5   BANK6   BANK7   BANK8   BANK9  BANK10  BANK11  BANK12  BANK13  BANK14  BANK15  BANK1
      +6  BANK17  BANK18  BANK19  BANK20  BANK21  BANK22  BANK23  BANK24  BANK25  BANK26  BANK27  BANK28  BANK29  BANK30  BANK3
      +1  BANK32  BANK33  BANK34  BANK35  BANK36
  1399 ;;      Params:         0       0       0       0       0       0       0       0       0       0       0       0       
      +0       0       0       0       0       0       0       0       0       0       0       0       0       0       0       
      +0       0       0       0       0       0
  1400 ;;      Locals:         0       0       0       0       0       0       0       0       0       0       0       0       
      +0       0       0       0       0       0       0       0       0       0       0       0       0       0       0       
      +0       0       0       0       0       0
  1401 ;;      Temps:          0       0       0       0       0       0       0       0       0       0       0       0       
      +0       0       0       0       0       0       0       0       0       0       0       0       0       0       0       
      +0       0       0       0       0       0
  1402 ;;      Totals:         0       0       0       0       0       0       0       0       0       0       0       0       
      +0       0       0       0       0       0       0       0       0       0       0       0       0       0       0       
      +0       0       0       0       0       0
  1403 ;;Total ram usage:        0 bytes
  1404 ;; Hardware stack levels used: 1
  1405 ;; This function calls:
  1406 ;;		Nothing
  1407 ;; This function is called by:
  1408 ;;		_I2C1_Open
  1409 ;; This function uses a non-reentrant model
  1410 ;;
  1411                           
  1412                           	psect	text9
  1413   002EDA                     __ptext9:
  1414                           	callstack 0
  1415   002EDA                     _I2C1_MasterOpen:
  1416                           	callstack 124
  1417   002EDA                     
  1418                           ;mcc_generated_files/i2c1_master.c: 634:     if(!I2C1CON0bits.EN)
  1419   002EDA  0102               	movlb	2	; () banked
  1420   002EDC  BF94               	btfsc	148,7,b	;volatile
  1421   002EDE  EF73  F017         	goto	u361
  1422   002EE2  EF75  F017         	goto	u360
  1423   002EE6                     u361:
  1424   002EE6  EF81  F017         	goto	l483
  1425   002EEA                     u360:
  1426   002EEA                     
  1427                           ; BSR set to: 2
  1428                           ;mcc_generated_files/i2c1_master.c: 635:     {;mcc_generated_files/i2c1_master.c: 637:  
      +                                 I2C1PIR = 0x00;
  1429   002EEA  0E00               	movlw	0
  1430   002EEC  6F9A               	movwf	154,b	;volatile
  1431                           
  1432                           ;mcc_generated_files/i2c1_master.c: 639:         I2C1PIE = 0x00;
  1433   002EEE  0E00               	movlw	0
  1434   002EF0  6F9B               	movwf	155,b	;volatile
  1435                           
  1436                           ;mcc_generated_files/i2c1_master.c: 641:         I2C1ERR = 0x00;
  1437   002EF2  0E00               	movlw	0
  1438   002EF4  6F97               	movwf	151,b	;volatile
  1439   002EF6                     
  1440                           ; BSR set to: 2
  1441                           ;mcc_generated_files/i2c1_master.c: 643:         I2C1CNT = 0xFF;
  1442   002EF6  698D               	setf	141,b	;volatile
  1443                           
  1444                           ;mcc_generated_files/i2c1_master.c: 645:         RC3I2C = 0x51;
  1445   002EF8  0E51               	movlw	81
  1446   002EFA  6F87               	movwf	135,b	;volatile
  1447                           
  1448                           ;mcc_generated_files/i2c1_master.c: 647:         RC4I2C = 0x51;
  1449   002EFC  0E51               	movlw	81
  1450   002EFE  6F86               	movwf	134,b	;volatile
  1451   002F00                     
  1452                           ; BSR set to: 2
  1453                           ;mcc_generated_files/i2c1_master.c: 649:         I2C1CON0bits.EN = 1;
  1454   002F00  8F94               	bsf	148,7,b	;volatile
  1455   002F02                     l483:
  1456                           
  1457                           ; BSR set to: 2
  1458   002F02  0012               	return		;funcret
  1459   002F04                     __end_of_I2C1_MasterOpen:
  1460                           	callstack 0
  1461                           
  1462 ;; *************** function _I2C1_MasterWrite *****************
  1463 ;; Defined at:
  1464 ;;		line 281 in file "mcc_generated_files/i2c1_master.c"
  1465 ;; Parameters:    Size  Location     Type
  1466 ;;		None
  1467 ;; Auto vars:     Size  Location     Type
  1468 ;;		None
  1469 ;; Return value:  Size  Location     Type
  1470 ;;                  1    wreg      enum E355
  1471 ;; Registers used:
  1472 ;;		wreg, fsr2l, fsr2h, status,2, status,0, pcl, pclath, pclatu, tosl, tblptrl, tblptrh, tblptru, prodl, prodh, cstack
  1473 ;; Tracked objects:
  1474 ;;		On entry : 0/0
  1475 ;;		On exit  : 0/0
  1476 ;;		Unchanged: 0/0
  1477 ;; Data sizes:     COMRAM   BANK5   BANK6   BANK7   BANK8   BANK9  BANK10  BANK11  BANK12  BANK13  BANK14  BANK15  BANK1
      +6  BANK17  BANK18  BANK19  BANK20  BANK21  BANK22  BANK23  BANK24  BANK25  BANK26  BANK27  BANK28  BANK29  BANK30  BANK3
      +1  BANK32  BANK33  BANK34  BANK35  BANK36
  1478 ;;      Params:         0       0       0       0       0       0       0       0       0       0       0       0       
      +0       0       0       0       0       0       0       0       0       0       0       0       0       0       0       
      +0       0       0       0       0       0
  1479 ;;      Locals:         0       0       0       0       0       0       0       0       0       0       0       0       
      +0       0       0       0       0       0       0       0       0       0       0       0       0       0       0       
      +0       0       0       0       0       0
  1480 ;;      Temps:          0       0       0       0       0       0       0       0       0       0       0       0       
      +0       0       0       0       0       0       0       0       0       0       0       0       0       0       0       
      +0       0       0       0       0       0
  1481 ;;      Totals:         0       0       0       0       0       0       0       0       0       0       0       0       
      +0       0       0       0       0       0       0       0       0       0       0       0       0       0       0       
      +0       0       0       0       0       0
  1482 ;;Total ram usage:        0 bytes
  1483 ;; Hardware stack levels used: 1
  1484 ;; Hardware stack levels required when called: 10
  1485 ;; This function calls:
  1486 ;;		_I2C1_MasterOperation
  1487 ;; This function is called by:
  1488 ;;		_I2C1_WriteNBytes
  1489 ;;		_I2C1_Read1ByteRegister
  1490 ;;		_I2C1_Read2ByteRegister
  1491 ;;		_I2C1_Write1ByteRegister
  1492 ;;		_I2C1_Write2ByteRegister
  1493 ;;		_I2C1_ReadDataBlock
  1494 ;; This function uses a non-reentrant model
  1495 ;;
  1496                           
  1497                           	psect	text10
  1498   003198                     __ptext10:
  1499                           	callstack 0
  1500   003198                     _I2C1_MasterWrite:
  1501                           	callstack 115
  1502   003198                     
  1503                           ;mcc_generated_files/i2c1_master.c: 283:     return I2C1_MasterOperation(0);;	Return val
      +                          ue of _I2C1_MasterWrite is never used
  1504   003198  0E00               	movlw	0
  1505   00319A  ECC5  F016         	call	_I2C1_MasterOperation
  1506   00319E  0012               	return		;funcret
  1507   0031A0                     __end_of_I2C1_MasterWrite:
  1508                           	callstack 0
  1509                           
  1510 ;; *************** function _I2C1_MasterOperation *****************
  1511 ;; Defined at:
  1512 ;;		line 252 in file "mcc_generated_files/i2c1_master.c"
  1513 ;; Parameters:    Size  Location     Type
  1514 ;;  read            1    wreg     _Bool 
  1515 ;; Auto vars:     Size  Location     Type
  1516 ;;  read            1   19[COMRAM] _Bool 
  1517 ;;  returnValue     1   20[COMRAM] enum E355
  1518 ;; Return value:  Size  Location     Type
  1519 ;;                  1    wreg      enum E355
  1520 ;; Registers used:
  1521 ;;		wreg, fsr2l, fsr2h, status,2, status,0, pcl, pclath, pclatu, tosl, tblptrl, tblptrh, tblptru, prodl, prodh, cstack
  1522 ;; Tracked objects:
  1523 ;;		On entry : 0/0
  1524 ;;		On exit  : 0/0
  1525 ;;		Unchanged: 0/0
  1526 ;; Data sizes:     COMRAM   BANK5   BANK6   BANK7   BANK8   BANK9  BANK10  BANK11  BANK12  BANK13  BANK14  BANK15  BANK1
      +6  BANK17  BANK18  BANK19  BANK20  BANK21  BANK22  BANK23  BANK24  BANK25  BANK26  BANK27  BANK28  BANK29  BANK30  BANK3
      +1  BANK32  BANK33  BANK34  BANK35  BANK36
  1527 ;;      Params:         0       0       0       0       0       0       0       0       0       0       0       0       
      +0       0       0       0       0       0       0       0       0       0       0       0       0       0       0       
      +0       0       0       0       0       0
  1528 ;;      Locals:         2       0       0       0       0       0       0       0       0       0       0       0       
      +0       0       0       0       0       0       0       0       0       0       0       0       0       0       0       
      +0       0       0       0       0       0
  1529 ;;      Temps:          0       0       0       0       0       0       0       0       0       0       0       0       
      +0       0       0       0       0       0       0       0       0       0       0       0       0       0       0       
      +0       0       0       0       0       0
  1530 ;;      Totals:         2       0       0       0       0       0       0       0       0       0       0       0       
      +0       0       0       0       0       0       0       0       0       0       0       0       0       0       0       
      +0       0       0       0       0       0
  1531 ;;Total ram usage:        2 bytes
  1532 ;; Hardware stack levels used: 1
  1533 ;; Hardware stack levels required when called: 9
  1534 ;; This function calls:
  1535 ;;		_I2C1_DO_SEND_ADR_READ
  1536 ;;		_I2C1_DO_SEND_ADR_WRITE
  1537 ;;		_I2C1_MasterSetCounter
  1538 ;;		_I2C1_Poller
  1539 ;; This function is called by:
  1540 ;;		_I2C1_MasterWrite
  1541 ;;		_I2C1_MasterRead
  1542 ;; This function uses a non-reentrant model
  1543 ;;
  1544                           
  1545                           	psect	text11
  1546   002D8A                     __ptext11:
  1547                           	callstack 0
  1548   002D8A                     _I2C1_MasterOperation:
  1549                           	callstack 115
  1550                           
  1551                           ;incstack = 0
  1552                           ;I2C1_MasterOperation@read stored from wreg
  1553   002D8A  6E3E               	movwf	I2C1_MasterOperation@read^(0+1280),c
  1554   002D8C                     
  1555                           ;mcc_generated_files/i2c1_master.c: 252: i2c1_error_t I2C1_MasterOperation(_Bool read);m
      +                          cc_generated_files/i2c1_master.c: 253: {;mcc_generated_files/i2c1_master.c: 254:     i2c
      +                          1_error_t returnValue = I2C1_BUSY;
  1556   002D8C  0E01               	movlw	1
  1557   002D8E  6E3F               	movwf	I2C1_MasterOperation@returnValue^(0+1280),c
  1558   002D90                     
  1559                           ;mcc_generated_files/i2c1_master.c: 255:     if(!I2C1_Status.busy)
  1560   002D90  B42A               	btfsc	(_I2C1_Status+41)^(0+1280),2,c
  1561   002D92  EFCD  F016         	goto	u831
  1562   002D96  EFCF  F016         	goto	u830
  1563   002D9A                     u831:
  1564   002D9A  EFE9  F016         	goto	l2581
  1565   002D9E                     u830:
  1566   002D9E                     
  1567                           ;mcc_generated_files/i2c1_master.c: 256:     {;mcc_generated_files/i2c1_master.c: 257:  
      +                                 I2C1_Status.busy = 1;
  1568   002D9E  842A               	bsf	(_I2C1_Status+41)^(0+1280),2,c
  1569   002DA0                     
  1570                           ;mcc_generated_files/i2c1_master.c: 258:         returnValue = I2C1_NOERR;
  1571   002DA0  0E00               	movlw	0
  1572   002DA2  6E3F               	movwf	I2C1_MasterOperation@returnValue^(0+1280),c
  1573   002DA4                     
  1574                           ;mcc_generated_files/i2c1_master.c: 259:         I2C1_MasterSetCounter((uint8_t) I2C1_St
      +                          atus.data_length);
  1575   002DA4  5026               	movf	(_I2C1_Status+37)^(0+1280),w,c
  1576   002DA6  ECE0  F018         	call	_I2C1_MasterSetCounter
  1577   002DAA                     
  1578                           ;mcc_generated_files/i2c1_master.c: 261:         if(read)
  1579   002DAA  503E               	movf	I2C1_MasterOperation@read^(0+1280),w,c
  1580   002DAC  B4D8               	btfsc	status,2,c
  1581   002DAE  EFDB  F016         	goto	u841
  1582   002DB2  EFDD  F016         	goto	u840
  1583   002DB6                     u841:
  1584   002DB6  EFE3  F016         	goto	l2575
  1585   002DBA                     u840:
  1586   002DBA                     
  1587                           ;mcc_generated_files/i2c1_master.c: 262:         {;mcc_generated_files/i2c1_master.c: 26
      +                          3:             I2C1_Status.state = I2C1_RX;
  1588   002DBA  0E04               	movlw	4
  1589   002DBC  6E28               	movwf	(_I2C1_Status+39)^(0+1280),c
  1590   002DBE                     
  1591                           ;mcc_generated_files/i2c1_master.c: 264:             I2C1_DO_SEND_ADR_READ();
  1592   002DBE  EC82  F017         	call	_I2C1_DO_SEND_ADR_READ	;wreg free
  1593                           
  1594                           ;mcc_generated_files/i2c1_master.c: 265:         }
  1595   002DC2  EFE7  F016         	goto	l2579
  1596   002DC6                     l2575:
  1597                           
  1598                           ;mcc_generated_files/i2c1_master.c: 267:         {;mcc_generated_files/i2c1_master.c: 26
      +                          8:             I2C1_Status.state = I2C1_TX;
  1599   002DC6  0E03               	movlw	3
  1600   002DC8  6E28               	movwf	(_I2C1_Status+39)^(0+1280),c
  1601   002DCA                     
  1602                           ;mcc_generated_files/i2c1_master.c: 269:             I2C1_DO_SEND_ADR_WRITE();
  1603   002DCA  EC8E  F018         	call	_I2C1_DO_SEND_ADR_WRITE	;wreg free
  1604   002DCE                     l2579:
  1605                           
  1606                           ;mcc_generated_files/i2c1_master.c: 271:         I2C1_Poller();
  1607   002DCE  EC22  F018         	call	_I2C1_Poller	;wreg free
  1608   002DD2                     l2581:
  1609                           
  1610                           ;mcc_generated_files/i2c1_master.c: 273:     return returnValue;
  1611   002DD2  503F               	movf	I2C1_MasterOperation@returnValue^(0+1280),w,c
  1612   002DD4  0012               	return		;funcret
  1613   002DD6                     __end_of_I2C1_MasterOperation:
  1614                           	callstack 0
  1615                           
  1616 ;; *************** function _I2C1_Poller *****************
  1617 ;; Defined at:
  1618 ;;		line 342 in file "mcc_generated_files/i2c1_master.c"
  1619 ;; Parameters:    Size  Location     Type
  1620 ;;		None
  1621 ;; Auto vars:     Size  Location     Type
  1622 ;;		None
  1623 ;; Return value:  Size  Location     Type
  1624 ;;                  1    wreg      void 
  1625 ;; Registers used:
  1626 ;;		wreg, fsr2l, fsr2h, status,2, status,0, pcl, pclath, pclatu, tosl, tblptrl, tblptrh, tblptru, prodl, prodh, cstack
  1627 ;; Tracked objects:
  1628 ;;		On entry : 0/0
  1629 ;;		On exit  : 0/0
  1630 ;;		Unchanged: 0/0
  1631 ;; Data sizes:     COMRAM   BANK5   BANK6   BANK7   BANK8   BANK9  BANK10  BANK11  BANK12  BANK13  BANK14  BANK15  BANK1
      +6  BANK17  BANK18  BANK19  BANK20  BANK21  BANK22  BANK23  BANK24  BANK25  BANK26  BANK27  BANK28  BANK29  BANK30  BANK3
      +1  BANK32  BANK33  BANK34  BANK35  BANK36
  1632 ;;      Params:         0       0       0       0       0       0       0       0       0       0       0       0       
      +0       0       0       0       0       0       0       0       0       0       0       0       0       0       0       
      +0       0       0       0       0       0
  1633 ;;      Locals:         0       0       0       0       0       0       0       0       0       0       0       0       
      +0       0       0       0       0       0       0       0       0       0       0       0       0       0       0       
      +0       0       0       0       0       0
  1634 ;;      Temps:          0       0       0       0       0       0       0       0       0       0       0       0       
      +0       0       0       0       0       0       0       0       0       0       0       0       0       0       0       
      +0       0       0       0       0       0
  1635 ;;      Totals:         0       0       0       0       0       0       0       0       0       0       0       0       
      +0       0       0       0       0       0       0       0       0       0       0       0       0       0       0       
      +0       0       0       0       0       0
  1636 ;;Total ram usage:        0 bytes
  1637 ;; Hardware stack levels used: 1
  1638 ;; Hardware stack levels required when called: 8
  1639 ;; This function calls:
  1640 ;;		_I2C1_MasterFsm
  1641 ;;		_I2C1_MasterWaitForEvent
  1642 ;; This function is called by:
  1643 ;;		_I2C1_MasterOperation
  1644 ;; This function uses a non-reentrant model
  1645 ;;
  1646                           
  1647                           	psect	text12
  1648   003044                     __ptext12:
  1649                           	callstack 0
  1650   003044                     _I2C1_Poller:
  1651                           	callstack 115
  1652   003044                     
  1653                           ;mcc_generated_files/i2c1_master.c: 344:     while(I2C1_Status.busy)
  1654   003044  EF28  F018         	goto	l2557
  1655   003048                     l2553:
  1656                           
  1657                           ;mcc_generated_files/i2c1_master.c: 345:     {;mcc_generated_files/i2c1_master.c: 346:  
      +                                 I2C1_MasterWaitForEvent();
  1658   003048  EC6F  F016         	call	_I2C1_MasterWaitForEvent	;wreg free
  1659   00304C                     
  1660                           ;mcc_generated_files/i2c1_master.c: 347:         I2C1_MasterFsm();
  1661   00304C  ECDC  F015         	call	_I2C1_MasterFsm	;wreg free
  1662   003050                     l2557:
  1663                           
  1664                           ;mcc_generated_files/i2c1_master.c: 344:     while(I2C1_Status.busy)
  1665   003050  B42A               	btfsc	(_I2C1_Status+41)^(0+1280),2,c
  1666   003052  EF2D  F018         	goto	u821
  1667   003056  EF2F  F018         	goto	u820
  1668   00305A                     u821:
  1669   00305A  EF24  F018         	goto	l2553
  1670   00305E                     u820:
  1671   00305E  0012               	return		;funcret
  1672   003060                     __end_of_I2C1_Poller:
  1673                           	callstack 0
  1674                           
  1675 ;; *************** function _I2C1_MasterWaitForEvent *****************
  1676 ;; Defined at:
  1677 ;;		line 813 in file "mcc_generated_files/i2c1_master.c"
  1678 ;; Parameters:    Size  Location     Type
  1679 ;;		None
  1680 ;; Auto vars:     Size  Location     Type
  1681 ;;		None
  1682 ;; Return value:  Size  Location     Type
  1683 ;;                  1    wreg      void 
  1684 ;; Registers used:
  1685 ;;		None
  1686 ;; Tracked objects:
  1687 ;;		On entry : 0/0
  1688 ;;		On exit  : 0/0
  1689 ;;		Unchanged: 0/0
  1690 ;; Data sizes:     COMRAM   BANK5   BANK6   BANK7   BANK8   BANK9  BANK10  BANK11  BANK12  BANK13  BANK14  BANK15  BANK1
      +6  BANK17  BANK18  BANK19  BANK20  BANK21  BANK22  BANK23  BANK24  BANK25  BANK26  BANK27  BANK28  BANK29  BANK30  BANK3
      +1  BANK32  BANK33  BANK34  BANK35  BANK36
  1691 ;;      Params:         0       0       0       0       0       0       0       0       0       0       0       0       
      +0       0       0       0       0       0       0       0       0       0       0       0       0       0       0       
      +0       0       0       0       0       0
  1692 ;;      Locals:         0       0       0       0       0       0       0       0       0       0       0       0       
      +0       0       0       0       0       0       0       0       0       0       0       0       0       0       0       
      +0       0       0       0       0       0
  1693 ;;      Temps:          0       0       0       0       0       0       0       0       0       0       0       0       
      +0       0       0       0       0       0       0       0       0       0       0       0       0       0       0       
      +0       0       0       0       0       0
  1694 ;;      Totals:         0       0       0       0       0       0       0       0       0       0       0       0       
      +0       0       0       0       0       0       0       0       0       0       0       0       0       0       0       
      +0       0       0       0       0       0
  1695 ;;Total ram usage:        0 bytes
  1696 ;; Hardware stack levels used: 1
  1697 ;; This function calls:
  1698 ;;		Nothing
  1699 ;; This function is called by:
  1700 ;;		_I2C1_Poller
  1701 ;; This function uses a non-reentrant model
  1702 ;;
  1703                           
  1704                           	psect	text13
  1705   002CDE                     __ptext13:
  1706                           	callstack 0
  1707   002CDE                     _I2C1_MasterWaitForEvent:
  1708                           	callstack 122
  1709   002CDE                     l563:
  1710                           
  1711                           ;mcc_generated_files/i2c1_master.c: 816:     {;mcc_generated_files/i2c1_master.c: 817:  
      +                                 if(PIR7bits.I2C1TXIF)
  1712   002CDE  A2B5               	btfss	181,1,c	;volatile
  1713   002CE0  EF74  F016         	goto	u271
  1714   002CE4  EF76  F016         	goto	u270
  1715   002CE8                     u271:
  1716   002CE8  EF78  F016         	goto	l564
  1717   002CEC                     u270:
  1718   002CEC  EF9B  F016         	goto	l571
  1719   002CF0                     l564:
  1720                           
  1721                           ;mcc_generated_files/i2c1_master.c: 821:         if(PIR7bits.I2C1RXIF)
  1722   002CF0  A0B5               	btfss	181,0,c	;volatile
  1723   002CF2  EF7D  F016         	goto	u281
  1724   002CF6  EF7F  F016         	goto	u280
  1725   002CFA                     u281:
  1726   002CFA  EF81  F016         	goto	l566
  1727   002CFE                     u280:
  1728   002CFE  EF9B  F016         	goto	l571
  1729   002D02                     l566:
  1730                           
  1731                           ;mcc_generated_files/i2c1_master.c: 825:         if(I2C1PIRbits.PCIF)
  1732   002D02  0102               	movlb	2	; () banked
  1733   002D04  A59A               	btfss	154,2,b	;volatile
  1734   002D06  EF87  F016         	goto	u291
  1735   002D0A  EF89  F016         	goto	u290
  1736   002D0E                     u291:
  1737   002D0E  EF8B  F016         	goto	l567
  1738   002D12                     u290:
  1739   002D12  EF9B  F016         	goto	l571
  1740   002D16                     l567:
  1741                           
  1742                           ; BSR set to: 2
  1743                           ;mcc_generated_files/i2c1_master.c: 829:         if(I2C1PIRbits.CNTIF)
  1744   002D16  AF9A               	btfss	154,7,b	;volatile
  1745   002D18  EF90  F016         	goto	u301
  1746   002D1C  EF92  F016         	goto	u300
  1747   002D20                     u301:
  1748   002D20  EF94  F016         	goto	l568
  1749   002D24                     u300:
  1750   002D24  EF9B  F016         	goto	l571
  1751   002D28                     l568:
  1752                           
  1753                           ; BSR set to: 2
  1754                           ;mcc_generated_files/i2c1_master.c: 833:         if(I2C1ERRbits.NACKIF)
  1755   002D28  A997               	btfss	151,4,b	;volatile
  1756   002D2A  EF99  F016         	goto	u311
  1757   002D2E  EF9B  F016         	goto	u310
  1758   002D32                     u311:
  1759   002D32  EF6F  F016         	goto	l563
  1760   002D36                     u310:
  1761   002D36                     l571:
  1762   002D36  0012               	return		;funcret
  1763   002D38                     __end_of_I2C1_MasterWaitForEvent:
  1764                           	callstack 0
  1765                           
  1766 ;; *************** function _I2C1_MasterFsm *****************
  1767 ;; Defined at:
  1768 ;;		line 351 in file "mcc_generated_files/i2c1_master.c"
  1769 ;; Parameters:    Size  Location     Type
  1770 ;;		None
  1771 ;; Auto vars:     Size  Location     Type
  1772 ;;		None
  1773 ;; Return value:  Size  Location     Type
  1774 ;;                  1    wreg      void 
  1775 ;; Registers used:
  1776 ;;		wreg, fsr2l, fsr2h, status,2, status,0, pcl, pclath, pclatu, tosl, tblptrl, tblptrh, tblptru, prodl, prodh, cstack
  1777 ;; Tracked objects:
  1778 ;;		On entry : 0/0
  1779 ;;		On exit  : 0/0
  1780 ;;		Unchanged: 0/0
  1781 ;; Data sizes:     COMRAM   BANK5   BANK6   BANK7   BANK8   BANK9  BANK10  BANK11  BANK12  BANK13  BANK14  BANK15  BANK1
      +6  BANK17  BANK18  BANK19  BANK20  BANK21  BANK22  BANK23  BANK24  BANK25  BANK26  BANK27  BANK28  BANK29  BANK30  BANK3
      +1  BANK32  BANK33  BANK34  BANK35  BANK36
  1782 ;;      Params:         0       0       0       0       0       0       0       0       0       0       0       0       
      +0       0       0       0       0       0       0       0       0       0       0       0       0       0       0       
      +0       0       0       0       0       0
  1783 ;;      Locals:         0       0       0       0       0       0       0       0       0       0       0       0       
      +0       0       0       0       0       0       0       0       0       0       0       0       0       0       0       
      +0       0       0       0       0       0
  1784 ;;      Temps:          0       0       0       0       0       0       0       0       0       0       0       0       
      +0       0       0       0       0       0       0       0       0       0       0       0       0       0       0       
      +0       0       0       0       0       0
  1785 ;;      Totals:         0       0       0       0       0       0       0       0       0       0       0       0       
      +0       0       0       0       0       0       0       0       0       0       0       0       0       0       0       
      +0       0       0       0       0       0
  1786 ;;Total ram usage:        0 bytes
  1787 ;; Hardware stack levels used: 1
  1788 ;; Hardware stack levels required when called: 7
  1789 ;; This function calls:
  1790 ;;		_I2C1_ClearInterruptFlags
  1791 ;;		_I2C1_DO_ADDRESS_NACK
  1792 ;;		_I2C1_DO_BUS_COLLISION
  1793 ;;		_I2C1_DO_BUS_ERROR
  1794 ;;		_I2C1_DO_IDLE
  1795 ;;		_I2C1_DO_RESET
  1796 ;;		_I2C1_DO_RX
  1797 ;;		_I2C1_DO_RX_ACK
  1798 ;;		_I2C1_DO_RX_EMPTY
  1799 ;;		_I2C1_DO_RX_NACK_RESTART
  1800 ;;		_I2C1_DO_RX_NACK_STOP
  1801 ;;		_I2C1_DO_SEND_ADR_READ
  1802 ;;		_I2C1_DO_SEND_ADR_WRITE
  1803 ;;		_I2C1_DO_SEND_RESTART
  1804 ;;		_I2C1_DO_SEND_RESTART_READ
  1805 ;;		_I2C1_DO_SEND_RESTART_WRITE
  1806 ;;		_I2C1_DO_SEND_STOP
  1807 ;;		_I2C1_DO_TX
  1808 ;;		_I2C1_DO_TX_ACK
  1809 ;;		_I2C1_DO_TX_EMPTY
  1810 ;;		_I2C1_MasterIsNack
  1811 ;; This function is called by:
  1812 ;;		_I2C1_Poller
  1813 ;; This function uses a non-reentrant model
  1814 ;;
  1815                           
  1816                           	psect	text14
  1817   002BB8                     __ptext14:
  1818                           	callstack 0
  1819   002BB8                     _I2C1_MasterFsm:
  1820                           	callstack 115
  1821   002BB8                     
  1822                           ;mcc_generated_files/i2c1_master.c: 353:     I2C1_ClearInterruptFlags();
  1823   002BB8  EC9C  F016         	call	_I2C1_ClearInterruptFlags	;wreg free
  1824   002BBC                     
  1825                           ;mcc_generated_files/i2c1_master.c: 355:     if(I2C1_Status.addressNackCheck && I2C1_Mas
      +                          terIsNack())
  1826   002BBC  502A               	movf	(_I2C1_Status+41)^(0+1280),w,c
  1827   002BBE  0B03               	andlw	3
  1828   002BC0  0900               	iorlw	0
  1829   002BC2  B4D8               	btfsc	status,2,c
  1830   002BC4  EFE6  F015         	goto	u791
  1831   002BC8  EFE8  F015         	goto	u790
  1832   002BCC                     u791:
  1833   002BCC  EFF4  F015         	goto	l2549
  1834   002BD0                     u790:
  1835   002BD0  EC57  F018         	call	_I2C1_MasterIsNack	;wreg free
  1836   002BD4  0900               	iorlw	0
  1837   002BD6  B4D8               	btfsc	status,2,c
  1838   002BD8  EFF0  F015         	goto	u801
  1839   002BDC  EFF2  F015         	goto	u800
  1840   002BE0                     u801:
  1841   002BE0  EFF4  F015         	goto	l2549
  1842   002BE4                     u800:
  1843   002BE4                     
  1844                           ;mcc_generated_files/i2c1_master.c: 356:     {;mcc_generated_files/i2c1_master.c: 357:  
      +                                 I2C1_Status.state = I2C1_ADDRESS_NACK;
  1845   002BE4  0E10               	movlw	16
  1846   002BE6  6E28               	movwf	(_I2C1_Status+39)^(0+1280),c
  1847   002BE8                     l2549:
  1848                           
  1849                           ;mcc_generated_files/i2c1_master.c: 359:     I2C1_Status.state = i2c1_fsmStateTable[I2C1
      +                          _Status.state]();
  1850   002BE8  5028               	movf	(_I2C1_Status+39)^(0+1280),w,c
  1851   002BEA  0D03               	mullw	3
  1852   002BEC  0E01               	movlw	low _i2c1_fsmStateTable
  1853   002BEE  24F3               	addwf	243,w,c
  1854   002BF0  6EF6               	movwf	tblptrl,c
  1855   002BF2  0E26               	movlw	high _i2c1_fsmStateTable
  1856   002BF4  20F4               	addwfc	244,w,c
  1857   002BF6  6EF7               	movwf	tblptrh,c
  1858   002BF8                     	if	1	;There are 3 active tblptr bytes
  1859   002BF8  6AF8               	clrf	tblptru,c
  1860   002BFA  0E00               	movlw	low (__mediumconst shr (0+16))
  1861   002BFC  22F8               	addwfc	tblptru,f,c
  1862   002BFE                     	endif
  1863   002BFE  D802               	call	u818
  1864   002C00  EF0F  F016         	goto	u819
  1865   002C04                     u818:
  1866   002C04  0005               	push	
  1867   002C06  6EFA               	movwf	pclath,c
  1868   002C08  0009               	tblrd		*+
  1869   002C0A  50F5               	movf	tablat,w,c
  1870   002C0C  6EFD               	movwf	tosl,c
  1871   002C0E  0009               	tblrd		*+
  1872   002C10  50F5               	movf	tablat,w,c
  1873   002C12  6EFE               	movwf	tosh,c
  1874   002C14  0009               	tblrd		*+
  1875   002C16  50F5               	movf	tablat,w,c
  1876   002C18  6EFF               	movwf	tosu,c
  1877   002C1A  50FA               	movf	pclath,w,c
  1878   002C1C  0012               	return		;indir
  1879   002C1E                     u819:
  1880   002C1E  6E28               	movwf	(_I2C1_Status+39)^(0+1280),c
  1881   002C20  0012               	return		;funcret
  1882   002C22                     __end_of_I2C1_MasterFsm:
  1883                           	callstack 0
  1884                           
  1885 ;; *************** function _I2C1_DO_BUS_ERROR *****************
  1886 ;; Defined at:
  1887 ;;		line 595 in file "mcc_generated_files/i2c1_master.c"
  1888 ;; Parameters:    Size  Location     Type
  1889 ;;		None
  1890 ;; Auto vars:     Size  Location     Type
  1891 ;;		None
  1892 ;; Return value:  Size  Location     Type
  1893 ;;                  1    wreg      enum E17079
  1894 ;; Registers used:
  1895 ;;		wreg, status,2, cstack
  1896 ;; Tracked objects:
  1897 ;;		On entry : 0/0
  1898 ;;		On exit  : 0/0
  1899 ;;		Unchanged: 0/0
  1900 ;; Data sizes:     COMRAM   BANK5   BANK6   BANK7   BANK8   BANK9  BANK10  BANK11  BANK12  BANK13  BANK14  BANK15  BANK1
      +6  BANK17  BANK18  BANK19  BANK20  BANK21  BANK22  BANK23  BANK24  BANK25  BANK26  BANK27  BANK28  BANK29  BANK30  BANK3
      +1  BANK32  BANK33  BANK34  BANK35  BANK36
  1901 ;;      Params:         0       0       0       0       0       0       0       0       0       0       0       0       
      +0       0       0       0       0       0       0       0       0       0       0       0       0       0       0       
      +0       0       0       0       0       0
  1902 ;;      Locals:         0       0       0       0       0       0       0       0       0       0       0       0       
      +0       0       0       0       0       0       0       0       0       0       0       0       0       0       0       
      +0       0       0       0       0       0
  1903 ;;      Temps:          0       0       0       0       0       0       0       0       0       0       0       0       
      +0       0       0       0       0       0       0       0       0       0       0       0       0       0       0       
      +0       0       0       0       0       0
  1904 ;;      Totals:         0       0       0       0       0       0       0       0       0       0       0       0       
      +0       0       0       0       0       0       0       0       0       0       0       0       0       0       0       
      +0       0       0       0       0       0
  1905 ;;Total ram usage:        0 bytes
  1906 ;; Hardware stack levels used: 1
  1907 ;; Hardware stack levels required when called: 1
  1908 ;; This function calls:
  1909 ;;		_I2C1_MasterResetBus
  1910 ;; This function is called by:
  1911 ;;		_I2C1_MasterFsm
  1912 ;; This function uses a non-reentrant model
  1913 ;;
  1914                           
  1915                           	psect	text15
  1916   003142                     __ptext15:
  1917                           	callstack 0
  1918   003142                     _I2C1_DO_BUS_ERROR:
  1919                           	callstack 120
  1920   003142                     
  1921                           ;mcc_generated_files/i2c1_master.c: 597:     I2C1_MasterResetBus();
  1922   003142  ECC7  F018         	call	_I2C1_MasterResetBus	;wreg free
  1923   003146                     
  1924                           ;mcc_generated_files/i2c1_master.c: 598:     I2C1_Status.busy = 0;
  1925   003146  942A               	bcf	(_I2C1_Status+41)^(0+1280),2,c
  1926   003148                     
  1927                           ;mcc_generated_files/i2c1_master.c: 599:     I2C1_Status.error = I2C1_FAIL;
  1928   003148  0E02               	movlw	2
  1929   00314A  6E29               	movwf	(_I2C1_Status+40)^(0+1280),c
  1930   00314C                     
  1931                           ;mcc_generated_files/i2c1_master.c: 600:     return I2C1_RESET;
  1932   00314C  0E0F               	movlw	15
  1933   00314E  0012               	return		;funcret
  1934   003150                     __end_of_I2C1_DO_BUS_ERROR:
  1935                           	callstack 0
  1936                           
  1937 ;; *************** function _I2C1_DO_BUS_COLLISION *****************
  1938 ;; Defined at:
  1939 ;;		line 579 in file "mcc_generated_files/i2c1_master.c"
  1940 ;; Parameters:    Size  Location     Type
  1941 ;;		None
  1942 ;; Auto vars:     Size  Location     Type
  1943 ;;		None
  1944 ;; Return value:  Size  Location     Type
  1945 ;;                  1    wreg      enum E17079
  1946 ;; Registers used:
  1947 ;;		wreg, fsr2l, fsr2h, status,2, status,0, pcl, pclath, pclatu, tosl, prodl, prodh, cstack
  1948 ;; Tracked objects:
  1949 ;;		On entry : 0/0
  1950 ;;		On exit  : 0/0
  1951 ;;		Unchanged: 0/0
  1952 ;; Data sizes:     COMRAM   BANK5   BANK6   BANK7   BANK8   BANK9  BANK10  BANK11  BANK12  BANK13  BANK14  BANK15  BANK1
      +6  BANK17  BANK18  BANK19  BANK20  BANK21  BANK22  BANK23  BANK24  BANK25  BANK26  BANK27  BANK28  BANK29  BANK30  BANK3
      +1  BANK32  BANK33  BANK34  BANK35  BANK36
  1953 ;;      Params:         0       0       0       0       0       0       0       0       0       0       0       0       
      +0       0       0       0       0       0       0       0       0       0       0       0       0       0       0       
      +0       0       0       0       0       0
  1954 ;;      Locals:         0       0       0       0       0       0       0       0       0       0       0       0       
      +0       0       0       0       0       0       0       0       0       0       0       0       0       0       0       
      +0       0       0       0       0       0
  1955 ;;      Temps:          2       0       0       0       0       0       0       0       0       0       0       0       
      +0       0       0       0       0       0       0       0       0       0       0       0       0       0       0       
      +0       0       0       0       0       0
  1956 ;;      Totals:         2       0       0       0       0       0       0       0       0       0       0       0       
      +0       0       0       0       0       0       0       0       0       0       0       0       0       0       0       
      +0       0       0       0       0       0
  1957 ;;Total ram usage:        2 bytes
  1958 ;; Hardware stack levels used: 1
  1959 ;; Hardware stack levels required when called: 6
  1960 ;; This function calls:
  1961 ;;		Absolute function
  1962 ;;		_I2C1_CallbackReturnReset
  1963 ;;		_I2C1_CallbackReturnStop
  1964 ;;		_I2C1_DO_RESET
  1965 ;;		_I2C1_DO_SEND_RESTART_READ
  1966 ;;		_I2C1_DO_SEND_RESTART_WRITE
  1967 ;;		_I2C1_MasterClearIrq
  1968 ;;		_rd1RegCompleteHandler
  1969 ;;		_rd2RegCompleteHandler
  1970 ;;		_rdBlkRegCompleteHandler
  1971 ;;		_wr1RegCompleteHandler
  1972 ;;		_wr2RegCompleteHandler
  1973 ;; This function is called by:
  1974 ;;		_I2C1_MasterFsm
  1975 ;; This function uses a non-reentrant model
  1976 ;;
  1977                           
  1978                           	psect	text16
  1979   002AD8                     __ptext16:
  1980                           	callstack 0
  1981   002AD8                     _I2C1_DO_BUS_COLLISION:
  1982                           	callstack 115
  1983   002AD8                     
  1984                           ;mcc_generated_files/i2c1_master.c: 582:     I2C1_MasterClearIrq();
  1985   002AD8  ECE4  F018         	call	_I2C1_MasterClearIrq	;wreg free
  1986   002ADC                     
  1987                           ;mcc_generated_files/i2c1_master.c: 584:     I2C1_Status.error = I2C1_FAIL;
  1988   002ADC  0E02               	movlw	2
  1989   002ADE  6E29               	movwf	(_I2C1_Status+40)^(0+1280),c
  1990                           
  1991                           ;mcc_generated_files/i2c1_master.c: 585:     switch (I2C1_Status.callbackTable[I2C1_WRIT
      +                          E_COLLISION](I2C1_Status.callbackPayload[I2C1_WRITE_COLLISION])) {
  1992   002AE0  EF7E  F015         	goto	l2535
  1993   002AE4                     l2521:
  1994                           
  1995                           ;mcc_generated_files/i2c1_master.c: 587:         return I2C1_DO_SEND_RESTART_READ();
  1996   002AE4  ECB6  F018         	call	_I2C1_DO_SEND_RESTART_READ	;wreg free
  1997   002AE8  EFA5  F015         	goto	l458
  1998   002AEC                     l2525:
  1999                           
  2000                           ;mcc_generated_files/i2c1_master.c: 589:         return I2C1_DO_SEND_RESTART_WRITE();
  2001   002AEC  EC08  F019         	call	_I2C1_DO_SEND_RESTART_WRITE	;wreg free
  2002   002AF0  EFA5  F015         	goto	l458
  2003   002AF4                     l2529:
  2004                           
  2005                           ;mcc_generated_files/i2c1_master.c: 591:         return I2C1_DO_RESET();
  2006   002AF4  ECA8  F018         	call	_I2C1_DO_RESET	;wreg free
  2007   002AF8  EFA5  F015         	goto	l458
  2008   002AFC                     l2535:
  2009   002AFC  C515  F536         	movff	_I2C1_Status+20,I2C1_CallbackReturnReset@funPtr
  2010   002B00  C516  F537         	movff	_I2C1_Status+21,I2C1_CallbackReturnReset@funPtr+1
  2011   002B04  EE21  F104         	lfsr	2,_I2C1_Status+3
  2012   002B08  D802               	call	u788
  2013   002B0A  EF91  F015         	goto	u789
  2014   002B0E                     u788:
  2015   002B0E  0005               	push	
  2016   002B10  6EFA               	movwf	pclath,c
  2017   002B12  50DE               	movf	postinc2,w,c
  2018   002B14  6EFD               	movwf	tosl,c
  2019   002B16  50DE               	movf	postinc2,w,c
  2020   002B18  6EFE               	movwf	tosh,c
  2021   002B1A  50DE               	movf	postinc2,w,c
  2022   002B1C  6EFF               	movwf	tosu,c
  2023   002B1E  50FA               	movf	pclath,w,c
  2024   002B20  0012               	return		;indir
  2025   002B22                     u789:
  2026   002B22  6E38               	movwf	??_I2C1_DO_BUS_COLLISION^(0+1280),c
  2027   002B24  6A39               	clrf	(??_I2C1_DO_BUS_COLLISION+1)^(0+1280),c
  2028                           
  2029                           ; Switch on 2 bytes has been partitioned into a top level switch of size 1, and 1 sub-sw
      +                          itches
  2030                           ; Switch size 1, requested type "simple"
  2031                           ; Number of cases is 1, Range of values is 0 to 0
  2032                           ; switch strategies available:
  2033                           ; Name         Instructions Cycles
  2034                           ; simple_byte            4     3 (average)
  2035                           ;	Chosen strategy is simple_byte
  2036   002B26  5039               	movf	(??_I2C1_DO_BUS_COLLISION+1)^(0+1280),w,c
  2037   002B28  0A00               	xorlw	0	; case 0
  2038   002B2A  B4D8               	btfsc	status,2,c
  2039   002B2C  EF9A  F015         	goto	l2853
  2040   002B30  EF7A  F015         	goto	l2529
  2041   002B34                     l2853:
  2042                           
  2043                           ; Switch size 1, requested type "simple"
  2044                           ; Number of cases is 2, Range of values is 2 to 3
  2045                           ; switch strategies available:
  2046                           ; Name         Instructions Cycles
  2047                           ; simple_byte            7     4 (average)
  2048                           ;	Chosen strategy is simple_byte
  2049   002B34  5038               	movf	??_I2C1_DO_BUS_COLLISION^(0+1280),w,c
  2050   002B36  0A02               	xorlw	2	; case 2
  2051   002B38  B4D8               	btfsc	status,2,c
  2052   002B3A  EF72  F015         	goto	l2521
  2053   002B3E  0A01               	xorlw	1	; case 3
  2054   002B40  B4D8               	btfsc	status,2,c
  2055   002B42  EF76  F015         	goto	l2525
  2056   002B46  EF7A  F015         	goto	l2529
  2057   002B4A                     l458:
  2058   002B4A  0012               	return		;funcret
  2059   002B4C                     __end_of_I2C1_DO_BUS_COLLISION:
  2060                           	callstack 0
  2061                           
  2062 ;; *************** function _I2C1_DO_ADDRESS_NACK *****************
  2063 ;; Defined at:
  2064 ;;		line 564 in file "mcc_generated_files/i2c1_master.c"
  2065 ;; Parameters:    Size  Location     Type
  2066 ;;		None
  2067 ;; Auto vars:     Size  Location     Type
  2068 ;;		None
  2069 ;; Return value:  Size  Location     Type
  2070 ;;                  1    wreg      enum E17079
  2071 ;; Registers used:
  2072 ;;		wreg, fsr2l, fsr2h, status,2, status,0, pcl, pclath, pclatu, tosl, prodl, prodh, cstack
  2073 ;; Tracked objects:
  2074 ;;		On entry : 0/0
  2075 ;;		On exit  : 0/0
  2076 ;;		Unchanged: 0/0
  2077 ;; Data sizes:     COMRAM   BANK5   BANK6   BANK7   BANK8   BANK9  BANK10  BANK11  BANK12  BANK13  BANK14  BANK15  BANK1
      +6  BANK17  BANK18  BANK19  BANK20  BANK21  BANK22  BANK23  BANK24  BANK25  BANK26  BANK27  BANK28  BANK29  BANK30  BANK3
      +1  BANK32  BANK33  BANK34  BANK35  BANK36
  2078 ;;      Params:         0       0       0       0       0       0       0       0       0       0       0       0       
      +0       0       0       0       0       0       0       0       0       0       0       0       0       0       0       
      +0       0       0       0       0       0
  2079 ;;      Locals:         0       0       0       0       0       0       0       0       0       0       0       0       
      +0       0       0       0       0       0       0       0       0       0       0       0       0       0       0       
      +0       0       0       0       0       0
  2080 ;;      Temps:          2       0       0       0       0       0       0       0       0       0       0       0       
      +0       0       0       0       0       0       0       0       0       0       0       0       0       0       0       
      +0       0       0       0       0       0
  2081 ;;      Totals:         2       0       0       0       0       0       0       0       0       0       0       0       
      +0       0       0       0       0       0       0       0       0       0       0       0       0       0       0       
      +0       0       0       0       0       0
  2082 ;;Total ram usage:        2 bytes
  2083 ;; Hardware stack levels used: 1
  2084 ;; Hardware stack levels required when called: 3
  2085 ;; This function calls:
  2086 ;;		Absolute function
  2087 ;;		_I2C1_CallbackReturnReset
  2088 ;;		_I2C1_CallbackReturnStop
  2089 ;;		_I2C1_DO_SEND_RESTART
  2090 ;;		_rd1RegCompleteHandler
  2091 ;;		_rd2RegCompleteHandler
  2092 ;;		_rdBlkRegCompleteHandler
  2093 ;;		_wr1RegCompleteHandler
  2094 ;;		_wr2RegCompleteHandler
  2095 ;; This function is called by:
  2096 ;;		_I2C1_MasterFsm
  2097 ;; This function uses a non-reentrant model
  2098 ;;
  2099                           
  2100                           	psect	text17
  2101   002B4C                     __ptext17:
  2102                           	callstack 0
  2103   002B4C                     _I2C1_DO_ADDRESS_NACK:
  2104                           	callstack 118
  2105   002B4C                     
  2106                           ;mcc_generated_files/i2c1_master.c: 566:     I2C1_Status.addressNackCheck = 0;
  2107   002B4C  0EFC               	movlw	-4
  2108   002B4E  162A               	andwf	(_I2C1_Status+41)^(0+1280),f,c
  2109                           
  2110                           ;mcc_generated_files/i2c1_master.c: 567:     I2C1_Status.error = I2C1_FAIL;
  2111   002B50  0E02               	movlw	2
  2112   002B52  6E29               	movwf	(_I2C1_Status+40)^(0+1280),c
  2113   002B54                     
  2114                           ;mcc_generated_files/i2c1_master.c: 568:     I2C1_Status.busy = 0;
  2115   002B54  942A               	bcf	(_I2C1_Status+41)^(0+1280),2,c
  2116                           
  2117                           ;mcc_generated_files/i2c1_master.c: 569:     switch(I2C1_Status.callbackTable[I2C1_ADDR_
      +                          NACK](I2C1_Status.callbackPayload[I2C1_ADDR_NACK]))
  2118   002B56  EFB4  F015         	goto	l2511
  2119   002B5A                     l2501:
  2120                           
  2121                           ;mcc_generated_files/i2c1_master.c: 573:             return I2C1_DO_SEND_RESTART();
  2122   002B5A  EC06  F019         	call	_I2C1_DO_SEND_RESTART	;wreg free
  2123   002B5E  EFDB  F015         	goto	l451
  2124   002B62                     l2505:
  2125                           
  2126                           ;mcc_generated_files/i2c1_master.c: 575:             return I2C1_RESET;
  2127   002B62  0E0F               	movlw	15
  2128   002B64  EFDB  F015         	goto	l451
  2129   002B68                     l2511:
  2130   002B68  C517  F536         	movff	_I2C1_Status+22,I2C1_CallbackReturnReset@funPtr
  2131   002B6C  C518  F537         	movff	_I2C1_Status+23,I2C1_CallbackReturnReset@funPtr+1
  2132   002B70  EE21  F107         	lfsr	2,_I2C1_Status+6
  2133   002B74  D802               	call	u778
  2134   002B76  EFC7  F015         	goto	u779
  2135   002B7A                     u778:
  2136   002B7A  0005               	push	
  2137   002B7C  6EFA               	movwf	pclath,c
  2138   002B7E  50DE               	movf	postinc2,w,c
  2139   002B80  6EFD               	movwf	tosl,c
  2140   002B82  50DE               	movf	postinc2,w,c
  2141   002B84  6EFE               	movwf	tosh,c
  2142   002B86  50DE               	movf	postinc2,w,c
  2143   002B88  6EFF               	movwf	tosu,c
  2144   002B8A  50FA               	movf	pclath,w,c
  2145   002B8C  0012               	return		;indir
  2146   002B8E                     u779:
  2147   002B8E  6E38               	movwf	??_I2C1_DO_ADDRESS_NACK^(0+1280),c
  2148   002B90  6A39               	clrf	(??_I2C1_DO_ADDRESS_NACK+1)^(0+1280),c
  2149                           
  2150                           ; Switch on 2 bytes has been partitioned into a top level switch of size 1, and 1 sub-sw
      +                          itches
  2151                           ; Switch size 1, requested type "simple"
  2152                           ; Number of cases is 1, Range of values is 0 to 0
  2153                           ; switch strategies available:
  2154                           ; Name         Instructions Cycles
  2155                           ; simple_byte            4     3 (average)
  2156                           ;	Chosen strategy is simple_byte
  2157   002B92  5039               	movf	(??_I2C1_DO_ADDRESS_NACK+1)^(0+1280),w,c
  2158   002B94  0A00               	xorlw	0	; case 0
  2159   002B96  B4D8               	btfsc	status,2,c
  2160   002B98  EFD0  F015         	goto	l2855
  2161   002B9C  EFB1  F015         	goto	l2505
  2162   002BA0                     l2855:
  2163                           
  2164                           ; Switch size 1, requested type "simple"
  2165                           ; Number of cases is 2, Range of values is 2 to 3
  2166                           ; switch strategies available:
  2167                           ; Name         Instructions Cycles
  2168                           ; simple_byte            7     4 (average)
  2169                           ;	Chosen strategy is simple_byte
  2170   002BA0  5038               	movf	??_I2C1_DO_ADDRESS_NACK^(0+1280),w,c
  2171   002BA2  0A02               	xorlw	2	; case 2
  2172   002BA4  B4D8               	btfsc	status,2,c
  2173   002BA6  EFAD  F015         	goto	l2501
  2174   002BAA  0A01               	xorlw	1	; case 3
  2175   002BAC  B4D8               	btfsc	status,2,c
  2176   002BAE  EFAD  F015         	goto	l2501
  2177   002BB2  EFB1  F015         	goto	l2505
  2178   002BB6                     l451:
  2179   002BB6  0012               	return		;funcret
  2180   002BB8                     __end_of_I2C1_DO_ADDRESS_NACK:
  2181                           	callstack 0
  2182                           
  2183 ;; *************** function _I2C1_DO_RESET *****************
  2184 ;; Defined at:
  2185 ;;		line 557 in file "mcc_generated_files/i2c1_master.c"
  2186 ;; Parameters:    Size  Location     Type
  2187 ;;		None
  2188 ;; Auto vars:     Size  Location     Type
  2189 ;;		None
  2190 ;; Return value:  Size  Location     Type
  2191 ;;                  1    wreg      enum E17079
  2192 ;; Registers used:
  2193 ;;		wreg, status,2, cstack
  2194 ;; Tracked objects:
  2195 ;;		On entry : 0/0
  2196 ;;		On exit  : 0/0
  2197 ;;		Unchanged: 0/0
  2198 ;; Data sizes:     COMRAM   BANK5   BANK6   BANK7   BANK8   BANK9  BANK10  BANK11  BANK12  BANK13  BANK14  BANK15  BANK1
      +6  BANK17  BANK18  BANK19  BANK20  BANK21  BANK22  BANK23  BANK24  BANK25  BANK26  BANK27  BANK28  BANK29  BANK30  BANK3
      +1  BANK32  BANK33  BANK34  BANK35  BANK36
  2199 ;;      Params:         0       0       0       0       0       0       0       0       0       0       0       0       
      +0       0       0       0       0       0       0       0       0       0       0       0       0       0       0       
      +0       0       0       0       0       0
  2200 ;;      Locals:         0       0       0       0       0       0       0       0       0       0       0       0       
      +0       0       0       0       0       0       0       0       0       0       0       0       0       0       0       
      +0       0       0       0       0       0
  2201 ;;      Temps:          0       0       0       0       0       0       0       0       0       0       0       0       
      +0       0       0       0       0       0       0       0       0       0       0       0       0       0       0       
      +0       0       0       0       0       0
  2202 ;;      Totals:         0       0       0       0       0       0       0       0       0       0       0       0       
      +0       0       0       0       0       0       0       0       0       0       0       0       0       0       0       
      +0       0       0       0       0       0
  2203 ;;Total ram usage:        0 bytes
  2204 ;; Hardware stack levels used: 1
  2205 ;; Hardware stack levels required when called: 1
  2206 ;; This function calls:
  2207 ;;		_I2C1_MasterResetBus
  2208 ;; This function is called by:
  2209 ;;		_I2C1_DO_BUS_COLLISION
  2210 ;;		_I2C1_MasterFsm
  2211 ;; This function uses a non-reentrant model
  2212 ;;
  2213                           
  2214                           	psect	text18
  2215   003150                     __ptext18:
  2216                           	callstack 0
  2217   003150                     _I2C1_DO_RESET:
  2218                           	callstack 120
  2219   003150                     
  2220                           ;mcc_generated_files/i2c1_master.c: 559:     I2C1_MasterResetBus();
  2221   003150  ECC7  F018         	call	_I2C1_MasterResetBus	;wreg free
  2222   003154                     
  2223                           ;mcc_generated_files/i2c1_master.c: 560:     I2C1_Status.busy = 0;
  2224   003154  942A               	bcf	(_I2C1_Status+41)^(0+1280),2,c
  2225   003156                     
  2226                           ;mcc_generated_files/i2c1_master.c: 561:     I2C1_Status.error = I2C1_NOERR;
  2227   003156  0E00               	movlw	0
  2228   003158  6E29               	movwf	(_I2C1_Status+40)^(0+1280),c
  2229   00315A                     
  2230                           ;mcc_generated_files/i2c1_master.c: 562:     return I2C1_RESET;
  2231   00315A  0E0F               	movlw	15
  2232   00315C  0012               	return		;funcret
  2233   00315E                     __end_of_I2C1_DO_RESET:
  2234                           	callstack 0
  2235                           
  2236 ;; *************** function _I2C1_DO_RX_NACK_RESTART *****************
  2237 ;; Defined at:
  2238 ;;		line 551 in file "mcc_generated_files/i2c1_master.c"
  2239 ;; Parameters:    Size  Location     Type
  2240 ;;		None
  2241 ;; Auto vars:     Size  Location     Type
  2242 ;;		None
  2243 ;; Return value:  Size  Location     Type
  2244 ;;                  1    wreg      enum E17079
  2245 ;; Registers used:
  2246 ;;		wreg, cstack
  2247 ;; Tracked objects:
  2248 ;;		On entry : 0/0
  2249 ;;		On exit  : 0/0
  2250 ;;		Unchanged: 0/0
  2251 ;; Data sizes:     COMRAM   BANK5   BANK6   BANK7   BANK8   BANK9  BANK10  BANK11  BANK12  BANK13  BANK14  BANK15  BANK1
      +6  BANK17  BANK18  BANK19  BANK20  BANK21  BANK22  BANK23  BANK24  BANK25  BANK26  BANK27  BANK28  BANK29  BANK30  BANK3
      +1  BANK32  BANK33  BANK34  BANK35  BANK36
  2252 ;;      Params:         0       0       0       0       0       0       0       0       0       0       0       0       
      +0       0       0       0       0       0       0       0       0       0       0       0       0       0       0       
      +0       0       0       0       0       0
  2253 ;;      Locals:         0       0       0       0       0       0       0       0       0       0       0       0       
      +0       0       0       0       0       0       0       0       0       0       0       0       0       0       0       
      +0       0       0       0       0       0
  2254 ;;      Temps:          0       0       0       0       0       0       0       0       0       0       0       0       
      +0       0       0       0       0       0       0       0       0       0       0       0       0       0       0       
      +0       0       0       0       0       0
  2255 ;;      Totals:         0       0       0       0       0       0       0       0       0       0       0       0       
      +0       0       0       0       0       0       0       0       0       0       0       0       0       0       0       
      +0       0       0       0       0       0
  2256 ;;Total ram usage:        0 bytes
  2257 ;; Hardware stack levels used: 1
  2258 ;; Hardware stack levels required when called: 1
  2259 ;; This function calls:
  2260 ;;		_I2C1_MasterSendNack
  2261 ;; This function is called by:
  2262 ;;		_I2C1_MasterFsm
  2263 ;; This function uses a non-reentrant model
  2264 ;;
  2265                           
  2266                           	psect	text19
  2267   0031A0                     __ptext19:
  2268                           	callstack 0
  2269   0031A0                     _I2C1_DO_RX_NACK_RESTART:
  2270                           	callstack 120
  2271   0031A0                     
  2272                           ;mcc_generated_files/i2c1_master.c: 553:     I2C1_MasterSendNack();
  2273   0031A0  ECEE  F018         	call	_I2C1_MasterSendNack	;wreg free
  2274   0031A4                     
  2275                           ;mcc_generated_files/i2c1_master.c: 554:     return I2C1_SEND_RESTART;
  2276   0031A4  0E09               	movlw	9
  2277   0031A6  0012               	return		;funcret
  2278   0031A8                     __end_of_I2C1_DO_RX_NACK_RESTART:
  2279                           	callstack 0
  2280                           
  2281 ;; *************** function _I2C1_DO_RX_NACK_STOP *****************
  2282 ;; Defined at:
  2283 ;;		line 544 in file "mcc_generated_files/i2c1_master.c"
  2284 ;; Parameters:    Size  Location     Type
  2285 ;;		None
  2286 ;; Auto vars:     Size  Location     Type
  2287 ;;		None
  2288 ;; Return value:  Size  Location     Type
  2289 ;;                  1    wreg      enum E17079
  2290 ;; Registers used:
  2291 ;;		wreg, status,2, cstack
  2292 ;; Tracked objects:
  2293 ;;		On entry : 0/0
  2294 ;;		On exit  : 0/0
  2295 ;;		Unchanged: 0/0
  2296 ;; Data sizes:     COMRAM   BANK5   BANK6   BANK7   BANK8   BANK9  BANK10  BANK11  BANK12  BANK13  BANK14  BANK15  BANK1
      +6  BANK17  BANK18  BANK19  BANK20  BANK21  BANK22  BANK23  BANK24  BANK25  BANK26  BANK27  BANK28  BANK29  BANK30  BANK3
      +1  BANK32  BANK33  BANK34  BANK35  BANK36
  2297 ;;      Params:         0       0       0       0       0       0       0       0       0       0       0       0       
      +0       0       0       0       0       0       0       0       0       0       0       0       0       0       0       
      +0       0       0       0       0       0
  2298 ;;      Locals:         0       0       0       0       0       0       0       0       0       0       0       0       
      +0       0       0       0       0       0       0       0       0       0       0       0       0       0       0       
      +0       0       0       0       0       0
  2299 ;;      Temps:          0       0       0       0       0       0       0       0       0       0       0       0       
      +0       0       0       0       0       0       0       0       0       0       0       0       0       0       0       
      +0       0       0       0       0       0
  2300 ;;      Totals:         0       0       0       0       0       0       0       0       0       0       0       0       
      +0       0       0       0       0       0       0       0       0       0       0       0       0       0       0       
      +0       0       0       0       0       0
  2301 ;;Total ram usage:        0 bytes
  2302 ;; Hardware stack levels used: 1
  2303 ;; Hardware stack levels required when called: 1
  2304 ;; This function calls:
  2305 ;;		_I2C1_DO_IDLE
  2306 ;;		_I2C1_MasterSendNack
  2307 ;;		_I2C1_MasterStop
  2308 ;; This function is called by:
  2309 ;;		_I2C1_MasterFsm
  2310 ;; This function uses a non-reentrant model
  2311 ;;
  2312                           
  2313                           	psect	text20
  2314   00315E                     __ptext20:
  2315                           	callstack 0
  2316   00315E                     _I2C1_DO_RX_NACK_STOP:
  2317                           	callstack 120
  2318   00315E                     
  2319                           ;mcc_generated_files/i2c1_master.c: 546:     I2C1_MasterSendNack();
  2320   00315E  ECEE  F018         	call	_I2C1_MasterSendNack	;wreg free
  2321                           
  2322                           ;mcc_generated_files/i2c1_master.c: 547:     I2C1_MasterStop();
  2323   003162  ECEB  F018         	call	_I2C1_MasterStop	;wreg free
  2324   003166                     
  2325                           ;mcc_generated_files/i2c1_master.c: 548:     return I2C1_DO_IDLE();
  2326   003166  ECC2  F018         	call	_I2C1_DO_IDLE	;wreg free
  2327   00316A  0012               	return		;funcret
  2328   00316C                     __end_of_I2C1_DO_RX_NACK_STOP:
  2329                           	callstack 0
  2330                           
  2331 ;; *************** function _I2C1_DO_RX_ACK *****************
  2332 ;; Defined at:
  2333 ;;		line 532 in file "mcc_generated_files/i2c1_master.c"
  2334 ;; Parameters:    Size  Location     Type
  2335 ;;		None
  2336 ;; Auto vars:     Size  Location     Type
  2337 ;;		None
  2338 ;; Return value:  Size  Location     Type
  2339 ;;                  1    wreg      enum E17079
  2340 ;; Registers used:
  2341 ;;		wreg, cstack
  2342 ;; Tracked objects:
  2343 ;;		On entry : 0/0
  2344 ;;		On exit  : 0/0
  2345 ;;		Unchanged: 0/0
  2346 ;; Data sizes:     COMRAM   BANK5   BANK6   BANK7   BANK8   BANK9  BANK10  BANK11  BANK12  BANK13  BANK14  BANK15  BANK1
      +6  BANK17  BANK18  BANK19  BANK20  BANK21  BANK22  BANK23  BANK24  BANK25  BANK26  BANK27  BANK28  BANK29  BANK30  BANK3
      +1  BANK32  BANK33  BANK34  BANK35  BANK36
  2347 ;;      Params:         0       0       0       0       0       0       0       0       0       0       0       0       
      +0       0       0       0       0       0       0       0       0       0       0       0       0       0       0       
      +0       0       0       0       0       0
  2348 ;;      Locals:         0       0       0       0       0       0       0       0       0       0       0       0       
      +0       0       0       0       0       0       0       0       0       0       0       0       0       0       0       
      +0       0       0       0       0       0
  2349 ;;      Temps:          0       0       0       0       0       0       0       0       0       0       0       0       
      +0       0       0       0       0       0       0       0       0       0       0       0       0       0       0       
      +0       0       0       0       0       0
  2350 ;;      Totals:         0       0       0       0       0       0       0       0       0       0       0       0       
      +0       0       0       0       0       0       0       0       0       0       0       0       0       0       0       
      +0       0       0       0       0       0
  2351 ;;Total ram usage:        0 bytes
  2352 ;; Hardware stack levels used: 1
  2353 ;; Hardware stack levels required when called: 1
  2354 ;; This function calls:
  2355 ;;		_I2C1_MasterSendAck
  2356 ;; This function is called by:
  2357 ;;		_I2C1_MasterFsm
  2358 ;; This function uses a non-reentrant model
  2359 ;;
  2360                           
  2361                           	psect	text21
  2362   0031A8                     __ptext21:
  2363                           	callstack 0
  2364   0031A8                     _I2C1_DO_RX_ACK:
  2365                           	callstack 120
  2366   0031A8                     
  2367                           ;mcc_generated_files/i2c1_master.c: 534:     I2C1_MasterSendAck();
  2368   0031A8  ECF1  F018         	call	_I2C1_MasterSendAck	;wreg free
  2369   0031AC                     
  2370                           ;mcc_generated_files/i2c1_master.c: 535:     return I2C1_RX;
  2371   0031AC  0E04               	movlw	4
  2372   0031AE  0012               	return		;funcret
  2373   0031B0                     __end_of_I2C1_DO_RX_ACK:
  2374                           	callstack 0
  2375                           
  2376 ;; *************** function _I2C1_DO_SEND_STOP *****************
  2377 ;; Defined at:
  2378 ;;		line 521 in file "mcc_generated_files/i2c1_master.c"
  2379 ;; Parameters:    Size  Location     Type
  2380 ;;		None
  2381 ;; Auto vars:     Size  Location     Type
  2382 ;;		None
  2383 ;; Return value:  Size  Location     Type
  2384 ;;                  1    wreg      enum E17079
  2385 ;; Registers used:
  2386 ;;		wreg, status,2, cstack
  2387 ;; Tracked objects:
  2388 ;;		On entry : 0/0
  2389 ;;		On exit  : 0/0
  2390 ;;		Unchanged: 0/0
  2391 ;; Data sizes:     COMRAM   BANK5   BANK6   BANK7   BANK8   BANK9  BANK10  BANK11  BANK12  BANK13  BANK14  BANK15  BANK1
      +6  BANK17  BANK18  BANK19  BANK20  BANK21  BANK22  BANK23  BANK24  BANK25  BANK26  BANK27  BANK28  BANK29  BANK30  BANK3
      +1  BANK32  BANK33  BANK34  BANK35  BANK36
  2392 ;;      Params:         0       0       0       0       0       0       0       0       0       0       0       0       
      +0       0       0       0       0       0       0       0       0       0       0       0       0       0       0       
      +0       0       0       0       0       0
  2393 ;;      Locals:         0       0       0       0       0       0       0       0       0       0       0       0       
      +0       0       0       0       0       0       0       0       0       0       0       0       0       0       0       
      +0       0       0       0       0       0
  2394 ;;      Temps:          0       0       0       0       0       0       0       0       0       0       0       0       
      +0       0       0       0       0       0       0       0       0       0       0       0       0       0       0       
      +0       0       0       0       0       0
  2395 ;;      Totals:         0       0       0       0       0       0       0       0       0       0       0       0       
      +0       0       0       0       0       0       0       0       0       0       0       0       0       0       0       
      +0       0       0       0       0       0
  2396 ;;Total ram usage:        0 bytes
  2397 ;; Hardware stack levels used: 1
  2398 ;; Hardware stack levels required when called: 1
  2399 ;; This function calls:
  2400 ;;		_I2C1_MasterGetCounter
  2401 ;;		_I2C1_MasterSendTxData
  2402 ;;		_I2C1_MasterSetCounter
  2403 ;;		_I2C1_MasterStop
  2404 ;; This function is called by:
  2405 ;;		_I2C1_MasterFsm
  2406 ;; This function uses a non-reentrant model
  2407 ;;
  2408                           
  2409                           	psect	text22
  2410   002F58                     __ptext22:
  2411                           	callstack 0
  2412   002F58                     _I2C1_DO_SEND_STOP:
  2413                           	callstack 120
  2414   002F58                     
  2415                           ;mcc_generated_files/i2c1_master.c: 523:     I2C1_MasterStop();
  2416   002F58  ECEB  F018         	call	_I2C1_MasterStop	;wreg free
  2417   002F5C                     
  2418                           ;mcc_generated_files/i2c1_master.c: 524:     if(I2C1_MasterGetCounter())
  2419   002F5C  ECE8  F018         	call	_I2C1_MasterGetCounter	;wreg free
  2420   002F60  0900               	iorlw	0
  2421   002F62  B4D8               	btfsc	status,2,c
  2422   002F64  EFB6  F017         	goto	u761
  2423   002F68  EFB8  F017         	goto	u760
  2424   002F6C                     u761:
  2425   002F6C  EFBE  F017         	goto	l2493
  2426   002F70                     u760:
  2427   002F70                     
  2428                           ;mcc_generated_files/i2c1_master.c: 525:     {;mcc_generated_files/i2c1_master.c: 526:  
      +                                 I2C1_MasterSetCounter(0);
  2429   002F70  0E00               	movlw	0
  2430   002F72  ECE0  F018         	call	_I2C1_MasterSetCounter
  2431                           
  2432                           ;mcc_generated_files/i2c1_master.c: 527:         I2C1_MasterSendTxData(0);
  2433   002F76  0E00               	movlw	0
  2434   002F78  ECDC  F018         	call	_I2C1_MasterSendTxData
  2435   002F7C                     l2493:
  2436                           
  2437                           ;mcc_generated_files/i2c1_master.c: 529:     return I2C1_IDLE;
  2438   002F7C  0E00               	movlw	0
  2439   002F7E  0012               	return		;funcret
  2440   002F80                     __end_of_I2C1_DO_SEND_STOP:
  2441                           	callstack 0
  2442                           
  2443 ;; *************** function _I2C1_DO_SEND_RESTART *****************
  2444 ;; Defined at:
  2445 ;;		line 516 in file "mcc_generated_files/i2c1_master.c"
  2446 ;; Parameters:    Size  Location     Type
  2447 ;;		None
  2448 ;; Auto vars:     Size  Location     Type
  2449 ;;		None
  2450 ;; Return value:  Size  Location     Type
  2451 ;;                  1    wreg      enum E17079
  2452 ;; Registers used:
  2453 ;;		wreg
  2454 ;; Tracked objects:
  2455 ;;		On entry : 0/0
  2456 ;;		On exit  : 0/0
  2457 ;;		Unchanged: 0/0
  2458 ;; Data sizes:     COMRAM   BANK5   BANK6   BANK7   BANK8   BANK9  BANK10  BANK11  BANK12  BANK13  BANK14  BANK15  BANK1
      +6  BANK17  BANK18  BANK19  BANK20  BANK21  BANK22  BANK23  BANK24  BANK25  BANK26  BANK27  BANK28  BANK29  BANK30  BANK3
      +1  BANK32  BANK33  BANK34  BANK35  BANK36
  2459 ;;      Params:         0       0       0       0       0       0       0       0       0       0       0       0       
      +0       0       0       0       0       0       0       0       0       0       0       0       0       0       0       
      +0       0       0       0       0       0
  2460 ;;      Locals:         0       0       0       0       0       0       0       0       0       0       0       0       
      +0       0       0       0       0       0       0       0       0       0       0       0       0       0       0       
      +0       0       0       0       0       0
  2461 ;;      Temps:          0       0       0       0       0       0       0       0       0       0       0       0       
      +0       0       0       0       0       0       0       0       0       0       0       0       0       0       0       
      +0       0       0       0       0       0
  2462 ;;      Totals:         0       0       0       0       0       0       0       0       0       0       0       0       
      +0       0       0       0       0       0       0       0       0       0       0       0       0       0       0       
      +0       0       0       0       0       0
  2463 ;;Total ram usage:        0 bytes
  2464 ;; Hardware stack levels used: 1
  2465 ;; This function calls:
  2466 ;;		Nothing
  2467 ;; This function is called by:
  2468 ;;		_I2C1_DO_ADDRESS_NACK
  2469 ;;		_I2C1_MasterFsm
  2470 ;; This function uses a non-reentrant model
  2471 ;;
  2472                           
  2473                           	psect	text23
  2474   00320C                     __ptext23:
  2475                           	callstack 0
  2476   00320C                     _I2C1_DO_SEND_RESTART:
  2477                           	callstack 121
  2478   00320C                     
  2479                           ;mcc_generated_files/i2c1_master.c: 518:     return I2C1_SEND_ADR_READ;
  2480   00320C  0E01               	movlw	1
  2481   00320E  0012               	return		;funcret
  2482   003210                     __end_of_I2C1_DO_SEND_RESTART:
  2483                           	callstack 0
  2484                           
  2485 ;; *************** function _I2C1_DO_SEND_RESTART_WRITE *****************
  2486 ;; Defined at:
  2487 ;;		line 510 in file "mcc_generated_files/i2c1_master.c"
  2488 ;; Parameters:    Size  Location     Type
  2489 ;;		None
  2490 ;; Auto vars:     Size  Location     Type
  2491 ;;		None
  2492 ;; Return value:  Size  Location     Type
  2493 ;;                  1    wreg      enum E17079
  2494 ;; Registers used:
  2495 ;;		wreg
  2496 ;; Tracked objects:
  2497 ;;		On entry : 0/0
  2498 ;;		On exit  : 0/0
  2499 ;;		Unchanged: 0/0
  2500 ;; Data sizes:     COMRAM   BANK5   BANK6   BANK7   BANK8   BANK9  BANK10  BANK11  BANK12  BANK13  BANK14  BANK15  BANK1
      +6  BANK17  BANK18  BANK19  BANK20  BANK21  BANK22  BANK23  BANK24  BANK25  BANK26  BANK27  BANK28  BANK29  BANK30  BANK3
      +1  BANK32  BANK33  BANK34  BANK35  BANK36
  2501 ;;      Params:         0       0       0       0       0       0       0       0       0       0       0       0       
      +0       0       0       0       0       0       0       0       0       0       0       0       0       0       0       
      +0       0       0       0       0       0
  2502 ;;      Locals:         0       0       0       0       0       0       0       0       0       0       0       0       
      +0       0       0       0       0       0       0       0       0       0       0       0       0       0       0       
      +0       0       0       0       0       0
  2503 ;;      Temps:          0       0       0       0       0       0       0       0       0       0       0       0       
      +0       0       0       0       0       0       0       0       0       0       0       0       0       0       0       
      +0       0       0       0       0       0
  2504 ;;      Totals:         0       0       0       0       0       0       0       0       0       0       0       0       
      +0       0       0       0       0       0       0       0       0       0       0       0       0       0       0       
      +0       0       0       0       0       0
  2505 ;;Total ram usage:        0 bytes
  2506 ;; Hardware stack levels used: 1
  2507 ;; This function calls:
  2508 ;;		Nothing
  2509 ;; This function is called by:
  2510 ;;		_I2C1_DO_TX
  2511 ;;		_I2C1_DO_BUS_COLLISION
  2512 ;;		_I2C1_MasterFsm
  2513 ;; This function uses a non-reentrant model
  2514 ;;
  2515                           
  2516                           	psect	text24
  2517   003210                     __ptext24:
  2518                           	callstack 0
  2519   003210                     _I2C1_DO_SEND_RESTART_WRITE:
  2520                           	callstack 120
  2521   003210                     
  2522                           ;mcc_generated_files/i2c1_master.c: 512:     return I2C1_SEND_ADR_WRITE;
  2523   003210  0E02               	movlw	2
  2524   003212  0012               	return		;funcret
  2525   003214                     __end_of_I2C1_DO_SEND_RESTART_WRITE:
  2526                           	callstack 0
  2527                           
  2528 ;; *************** function _I2C1_DO_SEND_RESTART_READ *****************
  2529 ;; Defined at:
  2530 ;;		line 504 in file "mcc_generated_files/i2c1_master.c"
  2531 ;; Parameters:    Size  Location     Type
  2532 ;;		None
  2533 ;; Auto vars:     Size  Location     Type
  2534 ;;		None
  2535 ;; Return value:  Size  Location     Type
  2536 ;;                  1    wreg      enum E17079
  2537 ;; Registers used:
  2538 ;;		wreg, fsr2l, fsr2h, status,2, status,0, pcl, pclath, pclatu, tosl, prodl, prodh, cstack
  2539 ;; Tracked objects:
  2540 ;;		On entry : 0/0
  2541 ;;		On exit  : 0/0
  2542 ;;		Unchanged: 0/0
  2543 ;; Data sizes:     COMRAM   BANK5   BANK6   BANK7   BANK8   BANK9  BANK10  BANK11  BANK12  BANK13  BANK14  BANK15  BANK1
      +6  BANK17  BANK18  BANK19  BANK20  BANK21  BANK22  BANK23  BANK24  BANK25  BANK26  BANK27  BANK28  BANK29  BANK30  BANK3
      +1  BANK32  BANK33  BANK34  BANK35  BANK36
  2544 ;;      Params:         0       0       0       0       0       0       0       0       0       0       0       0       
      +0       0       0       0       0       0       0       0       0       0       0       0       0       0       0       
      +0       0       0       0       0       0
  2545 ;;      Locals:         0       0       0       0       0       0       0       0       0       0       0       0       
      +0       0       0       0       0       0       0       0       0       0       0       0       0       0       0       
      +0       0       0       0       0       0
  2546 ;;      Temps:          0       0       0       0       0       0       0       0       0       0       0       0       
      +0       0       0       0       0       0       0       0       0       0       0       0       0       0       0       
      +0       0       0       0       0       0
  2547 ;;      Totals:         0       0       0       0       0       0       0       0       0       0       0       0       
      +0       0       0       0       0       0       0       0       0       0       0       0       0       0       0       
      +0       0       0       0       0       0
  2548 ;;Total ram usage:        0 bytes
  2549 ;; Hardware stack levels used: 1
  2550 ;; Hardware stack levels required when called: 5
  2551 ;; This function calls:
  2552 ;;		_I2C1_DO_SEND_ADR_READ
  2553 ;;		_I2C1_MasterSetCounter
  2554 ;; This function is called by:
  2555 ;;		_I2C1_DO_TX
  2556 ;;		_I2C1_DO_BUS_COLLISION
  2557 ;;		_I2C1_MasterFsm
  2558 ;; This function uses a non-reentrant model
  2559 ;;
  2560                           
  2561                           	psect	text25
  2562   00316C                     __ptext25:
  2563                           	callstack 0
  2564   00316C                     _I2C1_DO_SEND_RESTART_READ:
  2565                           	callstack 115
  2566   00316C                     
  2567                           ;mcc_generated_files/i2c1_master.c: 506:     I2C1_MasterSetCounter((uint8_t) I2C1_Status
      +                          .data_length);
  2568   00316C  5026               	movf	(_I2C1_Status+37)^(0+1280),w,c
  2569   00316E  ECE0  F018         	call	_I2C1_MasterSetCounter
  2570   003172                     
  2571                           ;mcc_generated_files/i2c1_master.c: 507:     return I2C1_DO_SEND_ADR_READ();
  2572   003172  EC82  F017         	call	_I2C1_DO_SEND_ADR_READ	;wreg free
  2573   003176  0012               	return		;funcret
  2574   003178                     __end_of_I2C1_DO_SEND_RESTART_READ:
  2575                           	callstack 0
  2576                           
  2577 ;; *************** function _I2C1_DO_RX_EMPTY *****************
  2578 ;; Defined at:
  2579 ;;		line 479 in file "mcc_generated_files/i2c1_master.c"
  2580 ;; Parameters:    Size  Location     Type
  2581 ;;		None
  2582 ;; Auto vars:     Size  Location     Type
  2583 ;;		None
  2584 ;; Return value:  Size  Location     Type
  2585 ;;                  1    wreg      enum E17079
  2586 ;; Registers used:
  2587 ;;		wreg, fsr2l, fsr2h, status,2, status,0, pcl, pclath, pclatu, tosl, prodl, prodh, cstack
  2588 ;; Tracked objects:
  2589 ;;		On entry : 0/0
  2590 ;;		On exit  : 0/0
  2591 ;;		Unchanged: 0/0
  2592 ;; Data sizes:     COMRAM   BANK5   BANK6   BANK7   BANK8   BANK9  BANK10  BANK11  BANK12  BANK13  BANK14  BANK15  BANK1
      +6  BANK17  BANK18  BANK19  BANK20  BANK21  BANK22  BANK23  BANK24  BANK25  BANK26  BANK27  BANK28  BANK29  BANK30  BANK3
      +1  BANK32  BANK33  BANK34  BANK35  BANK36
  2593 ;;      Params:         0       0       0       0       0       0       0       0       0       0       0       0       
      +0       0       0       0       0       0       0       0       0       0       0       0       0       0       0       
      +0       0       0       0       0       0
  2594 ;;      Locals:         0       0       0       0       0       0       0       0       0       0       0       0       
      +0       0       0       0       0       0       0       0       0       0       0       0       0       0       0       
      +0       0       0       0       0       0
  2595 ;;      Temps:          2       0       0       0       0       0       0       0       0       0       0       0       
      +0       0       0       0       0       0       0       0       0       0       0       0       0       0       0       
      +0       0       0       0       0       0
  2596 ;;      Totals:         2       0       0       0       0       0       0       0       0       0       0       0       
      +0       0       0       0       0       0       0       0       0       0       0       0       0       0       0       
      +0       0       0       0       0       0
  2597 ;;Total ram usage:        2 bytes
  2598 ;; Hardware stack levels used: 1
  2599 ;; Hardware stack levels required when called: 3
  2600 ;; This function calls:
  2601 ;;		Absolute function
  2602 ;;		_I2C1_CallbackReturnReset
  2603 ;;		_I2C1_CallbackReturnStop
  2604 ;;		_I2C1_MasterDisableRestart
  2605 ;;		_I2C1_MasterEnableRestart
  2606 ;;		_I2C1_MasterSetCounter
  2607 ;;		_rd1RegCompleteHandler
  2608 ;;		_rd2RegCompleteHandler
  2609 ;;		_rdBlkRegCompleteHandler
  2610 ;;		_wr1RegCompleteHandler
  2611 ;;		_wr2RegCompleteHandler
  2612 ;; This function is called by:
  2613 ;;		_I2C1_DO_SEND_ADR_READ
  2614 ;;		_I2C1_DO_RX
  2615 ;;		_I2C1_MasterFsm
  2616 ;; This function uses a non-reentrant model
  2617 ;;
  2618                           
  2619                           	psect	text26
  2620   0028AC                     __ptext26:
  2621                           	callstack 0
  2622   0028AC                     _I2C1_DO_RX_EMPTY:
  2623                           	callstack 115
  2624   0028AC                     
  2625                           ;mcc_generated_files/i2c1_master.c: 481:     I2C1_Status.bufferFree = 1;
  2626   0028AC  882A               	bsf	(_I2C1_Status+41)^(0+1280),4,c
  2627                           
  2628                           ;mcc_generated_files/i2c1_master.c: 482:     switch(I2C1_Status.callbackTable[I2C1_DATA_
      +                          COMPLETE](I2C1_Status.callbackPayload[I2C1_DATA_COMPLETE]))
  2629   0028AE  EF77  F014         	goto	l2329
  2630   0028B2                     l2301:
  2631                           
  2632                           ;mcc_generated_files/i2c1_master.c: 485:             I2C1_MasterEnableRestart();
  2633   0028B2  ECF7  F018         	call	_I2C1_MasterEnableRestart	;wreg free
  2634   0028B6                     
  2635                           ;mcc_generated_files/i2c1_master.c: 486:             return I2C1_SEND_RESTART_WRITE;
  2636   0028B6  0E08               	movlw	8
  2637   0028B8  EFA4  F014         	goto	l411
  2638   0028BC                     l2307:
  2639                           
  2640                           ;mcc_generated_files/i2c1_master.c: 488:             I2C1_MasterEnableRestart();
  2641   0028BC  ECF7  F018         	call	_I2C1_MasterEnableRestart	;wreg free
  2642   0028C0                     
  2643                           ;mcc_generated_files/i2c1_master.c: 489:             return I2C1_SEND_RESTART_READ;
  2644   0028C0  0E07               	movlw	7
  2645   0028C2  EFA4  F014         	goto	l411
  2646   0028C6                     l2313:
  2647                           
  2648                           ;mcc_generated_files/i2c1_master.c: 492:             I2C1_MasterSetCounter((uint8_t) (I2
      +                          C1_Status.data_length + 1));
  2649   0028C6  2826               	incf	(_I2C1_Status+37)^(0+1280),w,c
  2650   0028C8  ECE0  F018         	call	_I2C1_MasterSetCounter
  2651   0028CC                     
  2652                           ;mcc_generated_files/i2c1_master.c: 493:             return I2C1_RX;
  2653   0028CC  0E04               	movlw	4
  2654   0028CE  EFA4  F014         	goto	l411
  2655   0028D2                     l2319:
  2656                           
  2657                           ;mcc_generated_files/i2c1_master.c: 496:             if(I2C1_Status.state != I2C1_SEND_R
      +                          ESTART_READ)
  2658   0028D2  0E07               	movlw	7
  2659   0028D4  1828               	xorwf	(_I2C1_Status+39)^(0+1280),w,c
  2660   0028D6  B4D8               	btfsc	status,2,c
  2661   0028D8  EF70  F014         	goto	u621
  2662   0028DC  EF72  F014         	goto	u620
  2663   0028E0                     u621:
  2664   0028E0  EF74  F014         	goto	l2323
  2665   0028E4                     u620:
  2666   0028E4                     
  2667                           ;mcc_generated_files/i2c1_master.c: 497:             {;mcc_generated_files/i2c1_master.c
      +                          : 498:                 I2C1_MasterDisableRestart();
  2668   0028E4  ECFA  F018         	call	_I2C1_MasterDisableRestart	;wreg free
  2669   0028E8                     l2323:
  2670                           
  2671                           ;mcc_generated_files/i2c1_master.c: 500:             return I2C1_RESET;
  2672   0028E8  0E0F               	movlw	15
  2673   0028EA  EFA4  F014         	goto	l411
  2674   0028EE                     l2329:
  2675   0028EE  C513  F536         	movff	_I2C1_Status+18,I2C1_CallbackReturnReset@funPtr
  2676   0028F2  C514  F537         	movff	_I2C1_Status+19,I2C1_CallbackReturnReset@funPtr+1
  2677   0028F6  D802               	call	u638
  2678   0028F8  EF88  F014         	goto	u639
  2679   0028FC                     u638:
  2680   0028FC  0005               	push	
  2681   0028FE  6EFA               	movwf	pclath,c
  2682   002900  5001               	movf	_I2C1_Status^(0+1280),w,c
  2683   002902  6EFD               	movwf	tosl,c
  2684   002904  5002               	movf	(_I2C1_Status+1)^(0+1280),w,c
  2685   002906  6EFE               	movwf	tosh,c
  2686   002908  5003               	movf	(_I2C1_Status+2)^(0+1280),w,c
  2687   00290A  6EFF               	movwf	tosu,c
  2688   00290C  50FA               	movf	pclath,w,c
  2689   00290E  0012               	return		;indir
  2690   002910                     u639:
  2691   002910  6E38               	movwf	??_I2C1_DO_RX_EMPTY^(0+1280),c
  2692   002912  6A39               	clrf	(??_I2C1_DO_RX_EMPTY+1)^(0+1280),c
  2693                           
  2694                           ; Switch on 2 bytes has been partitioned into a top level switch of size 1, and 1 sub-sw
      +                          itches
  2695                           ; Switch size 1, requested type "simple"
  2696                           ; Number of cases is 1, Range of values is 0 to 0
  2697                           ; switch strategies available:
  2698                           ; Name         Instructions Cycles
  2699                           ; simple_byte            4     3 (average)
  2700                           ;	Chosen strategy is simple_byte
  2701   002914  5039               	movf	(??_I2C1_DO_RX_EMPTY+1)^(0+1280),w,c
  2702   002916  0A00               	xorlw	0	; case 0
  2703   002918  B4D8               	btfsc	status,2,c
  2704   00291A  EF91  F014         	goto	l2857
  2705   00291E  EF69  F014         	goto	l2319
  2706   002922                     l2857:
  2707                           
  2708                           ; Switch size 1, requested type "simple"
  2709                           ; Number of cases is 4, Range of values is 1 to 4
  2710                           ; switch strategies available:
  2711                           ; Name         Instructions Cycles
  2712                           ; simple_byte           13     7 (average)
  2713                           ;	Chosen strategy is simple_byte
  2714   002922  5038               	movf	??_I2C1_DO_RX_EMPTY^(0+1280),w,c
  2715   002924  0A01               	xorlw	1	; case 1
  2716   002926  B4D8               	btfsc	status,2,c
  2717   002928  EF69  F014         	goto	l2319
  2718   00292C  0A03               	xorlw	3	; case 2
  2719   00292E  B4D8               	btfsc	status,2,c
  2720   002930  EF5E  F014         	goto	l2307
  2721   002934  0A01               	xorlw	1	; case 3
  2722   002936  B4D8               	btfsc	status,2,c
  2723   002938  EF59  F014         	goto	l2301
  2724   00293C  0A07               	xorlw	7	; case 4
  2725   00293E  B4D8               	btfsc	status,2,c
  2726   002940  EF63  F014         	goto	l2313
  2727   002944  EF69  F014         	goto	l2319
  2728   002948                     l411:
  2729   002948  0012               	return		;funcret
  2730   00294A                     __end_of_I2C1_DO_RX_EMPTY:
  2731                           	callstack 0
  2732                           
  2733 ;; *************** function _I2C1_DO_TX_EMPTY *****************
  2734 ;; Defined at:
  2735 ;;		line 460 in file "mcc_generated_files/i2c1_master.c"
  2736 ;; Parameters:    Size  Location     Type
  2737 ;;		None
  2738 ;; Auto vars:     Size  Location     Type
  2739 ;;		None
  2740 ;; Return value:  Size  Location     Type
  2741 ;;                  1    wreg      enum E17079
  2742 ;; Registers used:
  2743 ;;		wreg, fsr2l, fsr2h, status,2, status,0, pcl, pclath, pclatu, tosl, prodl, prodh, cstack
  2744 ;; Tracked objects:
  2745 ;;		On entry : 0/0
  2746 ;;		On exit  : 0/0
  2747 ;;		Unchanged: 0/0
  2748 ;; Data sizes:     COMRAM   BANK5   BANK6   BANK7   BANK8   BANK9  BANK10  BANK11  BANK12  BANK13  BANK14  BANK15  BANK1
      +6  BANK17  BANK18  BANK19  BANK20  BANK21  BANK22  BANK23  BANK24  BANK25  BANK26  BANK27  BANK28  BANK29  BANK30  BANK3
      +1  BANK32  BANK33  BANK34  BANK35  BANK36
  2749 ;;      Params:         0       0       0       0       0       0       0       0       0       0       0       0       
      +0       0       0       0       0       0       0       0       0       0       0       0       0       0       0       
      +0       0       0       0       0       0
  2750 ;;      Locals:         0       0       0       0       0       0       0       0       0       0       0       0       
      +0       0       0       0       0       0       0       0       0       0       0       0       0       0       0       
      +0       0       0       0       0       0
  2751 ;;      Temps:          2       0       0       0       0       0       0       0       0       0       0       0       
      +0       0       0       0       0       0       0       0       0       0       0       0       0       0       0       
      +0       0       0       0       0       0
  2752 ;;      Totals:         2       0       0       0       0       0       0       0       0       0       0       0       
      +0       0       0       0       0       0       0       0       0       0       0       0       0       0       0       
      +0       0       0       0       0       0
  2753 ;;Total ram usage:        2 bytes
  2754 ;; Hardware stack levels used: 1
  2755 ;; Hardware stack levels required when called: 3
  2756 ;; This function calls:
  2757 ;;		Absolute function
  2758 ;;		_I2C1_CallbackReturnReset
  2759 ;;		_I2C1_CallbackReturnStop
  2760 ;;		_I2C1_MasterDisableRestart
  2761 ;;		_I2C1_MasterEnableRestart
  2762 ;;		_I2C1_MasterSetCounter
  2763 ;;		_rd1RegCompleteHandler
  2764 ;;		_rd2RegCompleteHandler
  2765 ;;		_rdBlkRegCompleteHandler
  2766 ;;		_wr1RegCompleteHandler
  2767 ;;		_wr2RegCompleteHandler
  2768 ;; This function is called by:
  2769 ;;		_I2C1_DO_TX
  2770 ;;		_I2C1_MasterFsm
  2771 ;; This function uses a non-reentrant model
  2772 ;;
  2773                           
  2774                           	psect	text27
  2775   002A5E                     __ptext27:
  2776                           	callstack 0
  2777   002A5E                     _I2C1_DO_TX_EMPTY:
  2778                           	callstack 118
  2779   002A5E                     
  2780                           ;mcc_generated_files/i2c1_master.c: 462:     I2C1_Status.bufferFree = 1;
  2781   002A5E  882A               	bsf	(_I2C1_Status+41)^(0+1280),4,c
  2782                           
  2783                           ;mcc_generated_files/i2c1_master.c: 463:     switch(I2C1_Status.callbackTable[I2C1_DATA_
      +                          COMPLETE](I2C1_Status.callbackPayload[I2C1_DATA_COMPLETE]))
  2784   002A60  EF42  F015         	goto	l2389
  2785   002A64                     l2369:
  2786                           
  2787                           ;mcc_generated_files/i2c1_master.c: 466:             I2C1_MasterEnableRestart();
  2788   002A64  ECF7  F018         	call	_I2C1_MasterEnableRestart	;wreg free
  2789   002A68                     
  2790                           ;mcc_generated_files/i2c1_master.c: 467:             return I2C1_SEND_RESTART_READ;
  2791   002A68  0E07               	movlw	7
  2792   002A6A  EF6B  F015         	goto	l402
  2793   002A6E                     l2375:
  2794                           
  2795                           ;mcc_generated_files/i2c1_master.c: 470:             I2C1_MasterSetCounter((uint8_t) I2C
      +                          1_Status.data_length + 1);
  2796   002A6E  2826               	incf	(_I2C1_Status+37)^(0+1280),w,c
  2797   002A70  ECE0  F018         	call	_I2C1_MasterSetCounter
  2798   002A74                     
  2799                           ;mcc_generated_files/i2c1_master.c: 471:             return I2C1_TX;
  2800   002A74  0E03               	movlw	3
  2801   002A76  EF6B  F015         	goto	l402
  2802   002A7A                     l2381:
  2803                           
  2804                           ;mcc_generated_files/i2c1_master.c: 474:             I2C1_MasterDisableRestart();
  2805   002A7A  ECFA  F018         	call	_I2C1_MasterDisableRestart	;wreg free
  2806   002A7E                     
  2807                           ;mcc_generated_files/i2c1_master.c: 475:             return I2C1_SEND_STOP;
  2808   002A7E  0E0A               	movlw	10
  2809   002A80  EF6B  F015         	goto	l402
  2810   002A84                     l2389:
  2811   002A84  C513  F536         	movff	_I2C1_Status+18,I2C1_CallbackReturnReset@funPtr
  2812   002A88  C514  F537         	movff	_I2C1_Status+19,I2C1_CallbackReturnReset@funPtr+1
  2813   002A8C  D802               	call	u678
  2814   002A8E  EF53  F015         	goto	u679
  2815   002A92                     u678:
  2816   002A92  0005               	push	
  2817   002A94  6EFA               	movwf	pclath,c
  2818   002A96  5001               	movf	_I2C1_Status^(0+1280),w,c
  2819   002A98  6EFD               	movwf	tosl,c
  2820   002A9A  5002               	movf	(_I2C1_Status+1)^(0+1280),w,c
  2821   002A9C  6EFE               	movwf	tosh,c
  2822   002A9E  5003               	movf	(_I2C1_Status+2)^(0+1280),w,c
  2823   002AA0  6EFF               	movwf	tosu,c
  2824   002AA2  50FA               	movf	pclath,w,c
  2825   002AA4  0012               	return		;indir
  2826   002AA6                     u679:
  2827   002AA6  6E38               	movwf	??_I2C1_DO_TX_EMPTY^(0+1280),c
  2828   002AA8  6A39               	clrf	(??_I2C1_DO_TX_EMPTY+1)^(0+1280),c
  2829                           
  2830                           ; Switch on 2 bytes has been partitioned into a top level switch of size 1, and 1 sub-sw
      +                          itches
  2831                           ; Switch size 1, requested type "simple"
  2832                           ; Number of cases is 1, Range of values is 0 to 0
  2833                           ; switch strategies available:
  2834                           ; Name         Instructions Cycles
  2835                           ; simple_byte            4     3 (average)
  2836                           ;	Chosen strategy is simple_byte
  2837   002AAA  5039               	movf	(??_I2C1_DO_TX_EMPTY+1)^(0+1280),w,c
  2838   002AAC  0A00               	xorlw	0	; case 0
  2839   002AAE  B4D8               	btfsc	status,2,c
  2840   002AB0  EF5C  F015         	goto	l2859
  2841   002AB4  EF3D  F015         	goto	l2381
  2842   002AB8                     l2859:
  2843                           
  2844                           ; Switch size 1, requested type "simple"
  2845                           ; Number of cases is 3, Range of values is 1 to 4
  2846                           ; switch strategies available:
  2847                           ; Name         Instructions Cycles
  2848                           ; simple_byte           10     6 (average)
  2849                           ;	Chosen strategy is simple_byte
  2850   002AB8  5038               	movf	??_I2C1_DO_TX_EMPTY^(0+1280),w,c
  2851   002ABA  0A01               	xorlw	1	; case 1
  2852   002ABC  B4D8               	btfsc	status,2,c
  2853   002ABE  EF3D  F015         	goto	l2381
  2854   002AC2  0A03               	xorlw	3	; case 2
  2855   002AC4  B4D8               	btfsc	status,2,c
  2856   002AC6  EF32  F015         	goto	l2369
  2857   002ACA  0A06               	xorlw	6	; case 4
  2858   002ACC  B4D8               	btfsc	status,2,c
  2859   002ACE  EF37  F015         	goto	l2375
  2860   002AD2  EF3D  F015         	goto	l2381
  2861   002AD6                     l402:
  2862   002AD6  0012               	return		;funcret
  2863   002AD8                     __end_of_I2C1_DO_TX_EMPTY:
  2864                           	callstack 0
  2865                           
  2866 ;; *************** function _I2C1_DO_RX *****************
  2867 ;; Defined at:
  2868 ;;		line 436 in file "mcc_generated_files/i2c1_master.c"
  2869 ;; Parameters:    Size  Location     Type
  2870 ;;		None
  2871 ;; Auto vars:     Size  Location     Type
  2872 ;;  retFsmState     1   17[COMRAM] enum E17079
  2873 ;; Return value:  Size  Location     Type
  2874 ;;                  1    wreg      enum E17079
  2875 ;; Registers used:
  2876 ;;		wreg, fsr2l, fsr2h, status,2, status,0, pcl, pclath, pclatu, tosl, prodl, prodh, cstack
  2877 ;; Tracked objects:
  2878 ;;		On entry : 0/0
  2879 ;;		On exit  : 0/0
  2880 ;;		Unchanged: 0/0
  2881 ;; Data sizes:     COMRAM   BANK5   BANK6   BANK7   BANK8   BANK9  BANK10  BANK11  BANK12  BANK13  BANK14  BANK15  BANK1
      +6  BANK17  BANK18  BANK19  BANK20  BANK21  BANK22  BANK23  BANK24  BANK25  BANK26  BANK27  BANK28  BANK29  BANK30  BANK3
      +1  BANK32  BANK33  BANK34  BANK35  BANK36
  2882 ;;      Params:         0       0       0       0       0       0       0       0       0       0       0       0       
      +0       0       0       0       0       0       0       0       0       0       0       0       0       0       0       
      +0       0       0       0       0       0
  2883 ;;      Locals:         1       0       0       0       0       0       0       0       0       0       0       0       
      +0       0       0       0       0       0       0       0       0       0       0       0       0       0       0       
      +0       0       0       0       0       0
  2884 ;;      Temps:          2       0       0       0       0       0       0       0       0       0       0       0       
      +0       0       0       0       0       0       0       0       0       0       0       0       0       0       0       
      +0       0       0       0       0       0
  2885 ;;      Totals:         3       0       0       0       0       0       0       0       0       0       0       0       
      +0       0       0       0       0       0       0       0       0       0       0       0       0       0       0       
      +0       0       0       0       0       0
  2886 ;;Total ram usage:        3 bytes
  2887 ;; Hardware stack levels used: 1
  2888 ;; Hardware stack levels required when called: 4
  2889 ;; This function calls:
  2890 ;;		_I2C1_DO_RX_EMPTY
  2891 ;;		_I2C1_MasterGetRxData
  2892 ;;		_I2C1_MasterIsRxBufFull
  2893 ;; This function is called by:
  2894 ;;		_I2C1_MasterFsm
  2895 ;; This function uses a non-reentrant model
  2896 ;;
  2897                           
  2898                           	psect	text28
  2899   00294A                     __ptext28:
  2900                           	callstack 0
  2901   00294A                     _I2C1_DO_RX:
  2902                           	callstack 117
  2903   00294A                     
  2904                           ;mcc_generated_files/i2c1_master.c: 438:     if(!I2C1_MasterIsRxBufFull())
  2905   00294A  EC62  F018         	call	_I2C1_MasterIsRxBufFull	;wreg free
  2906   00294E  0900               	iorlw	0
  2907   002950  A4D8               	btfss	status,2,c
  2908   002952  EFAD  F014         	goto	u731
  2909   002956  EFAF  F014         	goto	u730
  2910   00295A                     u731:
  2911   00295A  EFB2  F014         	goto	l2463
  2912   00295E                     u730:
  2913   00295E                     l2459:
  2914                           
  2915                           ;mcc_generated_files/i2c1_master.c: 439:     {;mcc_generated_files/i2c1_master.c: 440:  
      +                                 return I2C1_RX;
  2916   00295E  0E04               	movlw	4
  2917   002960  EFEC  F014         	goto	l394
  2918   002964                     l2463:
  2919                           
  2920                           ;mcc_generated_files/i2c1_master.c: 442:     if(I2C1_Status.addressNackCheck)
  2921   002964  502A               	movf	(_I2C1_Status+41)^(0+1280),w,c
  2922   002966  0B03               	andlw	3
  2923   002968  0900               	iorlw	0
  2924   00296A  B4D8               	btfsc	status,2,c
  2925   00296C  EFBA  F014         	goto	u741
  2926   002970  EFBC  F014         	goto	u740
  2927   002974                     u741:
  2928   002974  EFC8  F014         	goto	l395
  2929   002978                     u740:
  2930   002978                     
  2931                           ;mcc_generated_files/i2c1_master.c: 443:     {;mcc_generated_files/i2c1_master.c: 444:  
      +                                 I2C1_Status.addressNackCheck--;
  2932   002978  0E01               	movlw	1
  2933   00297A  6E3A               	movwf	??_I2C1_DO_RX^(0+1280),c
  2934   00297C  502A               	movf	(_I2C1_Status+41)^(0+1280),w,c
  2935   00297E  0B03               	andlw	3
  2936   002980  6E3B               	movwf	(??_I2C1_DO_RX+1)^(0+1280),c
  2937   002982  503A               	movf	??_I2C1_DO_RX^(0+1280),w,c
  2938   002984  5E3B               	subwf	(??_I2C1_DO_RX+1)^(0+1280),f,c
  2939   002986  502A               	movf	(_I2C1_Status+41)^(0+1280),w,c
  2940   002988  183B               	xorwf	(??_I2C1_DO_RX+1)^(0+1280),w,c
  2941   00298A  0BFC               	andlw	-4
  2942   00298C  183B               	xorwf	(??_I2C1_DO_RX+1)^(0+1280),w,c
  2943   00298E  6E2A               	movwf	(_I2C1_Status+41)^(0+1280),c
  2944   002990                     l395:
  2945                           
  2946                           ;mcc_generated_files/i2c1_master.c: 447:     if(--I2C1_Status.data_length)
  2947   002990  0626               	decf	(_I2C1_Status+37)^(0+1280),f,c
  2948   002992  A0D8               	btfss	status,0,c
  2949   002994  0627               	decf	(_I2C1_Status+38)^(0+1280),f,c
  2950   002996  5026               	movf	(_I2C1_Status+37)^(0+1280),w,c
  2951   002998  1027               	iorwf	(_I2C1_Status+38)^(0+1280),w,c
  2952   00299A  B4D8               	btfsc	status,2,c
  2953   00299C  EFD2  F014         	goto	u751
  2954   0029A0  EFD4  F014         	goto	u750
  2955   0029A4                     u751:
  2956   0029A4  EFDF  F014         	goto	l2477
  2957   0029A8                     u750:
  2958   0029A8                     
  2959                           ;mcc_generated_files/i2c1_master.c: 448:     {;mcc_generated_files/i2c1_master.c: 449:  
      +                                 *I2C1_Status.data_ptr++ = I2C1_MasterGetRxData();
  2960   0029A8  ECF4  F018         	call	_I2C1_MasterGetRxData	;wreg free
  2961   0029AC  C524  F4D9         	movff	_I2C1_Status+35,fsr2l
  2962   0029B0  C525  F4DA         	movff	_I2C1_Status+36,fsr2h
  2963   0029B4  6EDF               	movwf	indf2,c
  2964   0029B6  4A24               	infsnz	(_I2C1_Status+35)^(0+1280),f,c
  2965   0029B8  2A25               	incf	(_I2C1_Status+36)^(0+1280),f,c
  2966   0029BA  EFAF  F014         	goto	l2459
  2967   0029BE                     l2477:
  2968                           
  2969                           ;mcc_generated_files/i2c1_master.c: 453:     {;mcc_generated_files/i2c1_master.c: 454:  
      +                                 i2c1_fsm_states_t retFsmState = I2C1_DO_RX_EMPTY();
  2970   0029BE  EC56  F014         	call	_I2C1_DO_RX_EMPTY	;wreg free
  2971   0029C2  6E3C               	movwf	I2C1_DO_RX@retFsmState^(0+1280),c
  2972   0029C4                     
  2973                           ;mcc_generated_files/i2c1_master.c: 455:         *I2C1_Status.data_ptr++ = I2C1_MasterGe
      +                          tRxData();
  2974   0029C4  ECF4  F018         	call	_I2C1_MasterGetRxData	;wreg free
  2975   0029C8  C524  F4D9         	movff	_I2C1_Status+35,fsr2l
  2976   0029CC  C525  F4DA         	movff	_I2C1_Status+36,fsr2h
  2977   0029D0  6EDF               	movwf	indf2,c
  2978   0029D2  4A24               	infsnz	(_I2C1_Status+35)^(0+1280),f,c
  2979   0029D4  2A25               	incf	(_I2C1_Status+36)^(0+1280),f,c
  2980   0029D6                     
  2981                           ;mcc_generated_files/i2c1_master.c: 456:         return retFsmState;
  2982   0029D6  503C               	movf	I2C1_DO_RX@retFsmState^(0+1280),w,c
  2983   0029D8                     l394:
  2984   0029D8  0012               	return		;funcret
  2985   0029DA                     __end_of_I2C1_DO_RX:
  2986                           	callstack 0
  2987                           
  2988 ;; *************** function _I2C1_DO_TX *****************
  2989 ;; Defined at:
  2990 ;;		line 403 in file "mcc_generated_files/i2c1_master.c"
  2991 ;; Parameters:    Size  Location     Type
  2992 ;;		None
  2993 ;; Auto vars:     Size  Location     Type
  2994 ;;  retFsmState     1   18[COMRAM] enum E17079
  2995 ;;  dataTx          1   17[COMRAM] unsigned char 
  2996 ;; Return value:  Size  Location     Type
  2997 ;;                  1    wreg      enum E17079
  2998 ;; Registers used:
  2999 ;;		wreg, fsr2l, fsr2h, status,2, status,0, pcl, pclath, pclatu, tosl, prodl, prodh, cstack
  3000 ;; Tracked objects:
  3001 ;;		On entry : 0/0
  3002 ;;		On exit  : 0/0
  3003 ;;		Unchanged: 0/0
  3004 ;; Data sizes:     COMRAM   BANK5   BANK6   BANK7   BANK8   BANK9  BANK10  BANK11  BANK12  BANK13  BANK14  BANK15  BANK1
      +6  BANK17  BANK18  BANK19  BANK20  BANK21  BANK22  BANK23  BANK24  BANK25  BANK26  BANK27  BANK28  BANK29  BANK30  BANK3
      +1  BANK32  BANK33  BANK34  BANK35  BANK36
  3005 ;;      Params:         0       0       0       0       0       0       0       0       0       0       0       0       
      +0       0       0       0       0       0       0       0       0       0       0       0       0       0       0       
      +0       0       0       0       0       0
  3006 ;;      Locals:         4       0       0       0       0       0       0       0       0       0       0       0       
      +0       0       0       0       0       0       0       0       0       0       0       0       0       0       0       
      +0       0       0       0       0       0
  3007 ;;      Temps:          2       0       0       0       0       0       0       0       0       0       0       0       
      +0       0       0       0       0       0       0       0       0       0       0       0       0       0       0       
      +0       0       0       0       0       0
  3008 ;;      Totals:         6       0       0       0       0       0       0       0       0       0       0       0       
      +0       0       0       0       0       0       0       0       0       0       0       0       0       0       0       
      +0       0       0       0       0       0
  3009 ;;Total ram usage:        6 bytes
  3010 ;; Hardware stack levels used: 1
  3011 ;; Hardware stack levels required when called: 6
  3012 ;; This function calls:
  3013 ;;		Absolute function
  3014 ;;		_I2C1_CallbackReturnReset
  3015 ;;		_I2C1_CallbackReturnStop
  3016 ;;		_I2C1_DO_SEND_RESTART_READ
  3017 ;;		_I2C1_DO_SEND_RESTART_WRITE
  3018 ;;		_I2C1_DO_TX_EMPTY
  3019 ;;		_I2C1_MasterIsNack
  3020 ;;		_I2C1_MasterIsTxBufEmpty
  3021 ;;		_I2C1_MasterSendTxData
  3022 ;;		_rd1RegCompleteHandler
  3023 ;;		_rd2RegCompleteHandler
  3024 ;;		_rdBlkRegCompleteHandler
  3025 ;;		_wr1RegCompleteHandler
  3026 ;;		_wr2RegCompleteHandler
  3027 ;; This function is called by:
  3028 ;;		_I2C1_MasterFsm
  3029 ;; This function uses a non-reentrant model
  3030 ;;
  3031                           
  3032                           	psect	text29
  3033   00263C                     __ptext29:
  3034                           	callstack 0
  3035   00263C                     _I2C1_DO_TX:
  3036                           	callstack 115
  3037   00263C                     
  3038                           ;mcc_generated_files/i2c1_master.c: 405:     if(I2C1_MasterIsNack())
  3039   00263C  EC57  F018         	call	_I2C1_MasterIsNack	;wreg free
  3040   002640  0900               	iorlw	0
  3041   002642  B4D8               	btfsc	status,2,c
  3042   002644  EF26  F013         	goto	u681
  3043   002648  EF28  F013         	goto	u680
  3044   00264C                     u681:
  3045   00264C  EF64  F013         	goto	l2423
  3046   002650                     u680:
  3047   002650  EF35  F013         	goto	l2421
  3048   002654                     l2407:
  3049                           
  3050                           ;mcc_generated_files/i2c1_master.c: 410:                 return I2C1_DO_SEND_RESTART_REA
      +                          D();
  3051   002654  ECB6  F018         	call	_I2C1_DO_SEND_RESTART_READ	;wreg free
  3052   002658  EFAD  F013         	goto	l377
  3053   00265C                     l2411:
  3054                           
  3055                           ;mcc_generated_files/i2c1_master.c: 412:                   return I2C1_DO_SEND_RESTART_W
      +                          RITE();
  3056   00265C  EC08  F019         	call	_I2C1_DO_SEND_RESTART_WRITE	;wreg free
  3057   002660  EFAD  F013         	goto	l377
  3058   002664                     l2415:
  3059                           
  3060                           ;mcc_generated_files/i2c1_master.c: 416:                 return I2C1_IDLE;
  3061   002664  0E00               	movlw	0
  3062   002666  EFAD  F013         	goto	l377
  3063   00266A                     l2421:
  3064   00266A  C519  F536         	movff	_I2C1_Status+24,I2C1_CallbackReturnReset@funPtr
  3065   00266E  C51A  F537         	movff	_I2C1_Status+25,I2C1_CallbackReturnReset@funPtr+1
  3066   002672  EE21  F10A         	lfsr	2,_I2C1_Status+9
  3067   002676  D802               	call	u698
  3068   002678  EF48  F013         	goto	u699
  3069   00267C                     u698:
  3070   00267C  0005               	push	
  3071   00267E  6EFA               	movwf	pclath,c
  3072   002680  50DE               	movf	postinc2,w,c
  3073   002682  6EFD               	movwf	tosl,c
  3074   002684  50DE               	movf	postinc2,w,c
  3075   002686  6EFE               	movwf	tosh,c
  3076   002688  50DE               	movf	postinc2,w,c
  3077   00268A  6EFF               	movwf	tosu,c
  3078   00268C  50FA               	movf	pclath,w,c
  3079   00268E  0012               	return		;indir
  3080   002690                     u699:
  3081   002690  6E38               	movwf	??_I2C1_DO_TX^(0+1280),c
  3082   002692  6A39               	clrf	(??_I2C1_DO_TX+1)^(0+1280),c
  3083                           
  3084                           ; Switch on 2 bytes has been partitioned into a top level switch of size 1, and 1 sub-sw
      +                          itches
  3085                           ; Switch size 1, requested type "simple"
  3086                           ; Number of cases is 1, Range of values is 0 to 0
  3087                           ; switch strategies available:
  3088                           ; Name         Instructions Cycles
  3089                           ; simple_byte            4     3 (average)
  3090                           ;	Chosen strategy is simple_byte
  3091   002694  5039               	movf	(??_I2C1_DO_TX+1)^(0+1280),w,c
  3092   002696  0A00               	xorlw	0	; case 0
  3093   002698  B4D8               	btfsc	status,2,c
  3094   00269A  EF51  F013         	goto	l2861
  3095   00269E  EF32  F013         	goto	l2415
  3096   0026A2                     l2861:
  3097                           
  3098                           ; Switch size 1, requested type "simple"
  3099                           ; Number of cases is 4, Range of values is 1 to 4
  3100                           ; switch strategies available:
  3101                           ; Name         Instructions Cycles
  3102                           ; simple_byte           13     7 (average)
  3103                           ;	Chosen strategy is simple_byte
  3104   0026A2  5038               	movf	??_I2C1_DO_TX^(0+1280),w,c
  3105   0026A4  0A01               	xorlw	1	; case 1
  3106   0026A6  B4D8               	btfsc	status,2,c
  3107   0026A8  EF32  F013         	goto	l2415
  3108   0026AC  0A03               	xorlw	3	; case 2
  3109   0026AE  B4D8               	btfsc	status,2,c
  3110   0026B0  EF2A  F013         	goto	l2407
  3111   0026B4  0A01               	xorlw	1	; case 3
  3112   0026B6  B4D8               	btfsc	status,2,c
  3113   0026B8  EF2E  F013         	goto	l2411
  3114   0026BC  0A07               	xorlw	7	; case 4
  3115   0026BE  B4D8               	btfsc	status,2,c
  3116   0026C0  EF32  F013         	goto	l2415
  3117   0026C4  EF32  F013         	goto	l2415
  3118   0026C8                     l2423:
  3119   0026C8  EC4C  F018         	call	_I2C1_MasterIsTxBufEmpty	;wreg free
  3120   0026CC  0900               	iorlw	0
  3121   0026CE  B4D8               	btfsc	status,2,c
  3122   0026D0  EF6C  F013         	goto	u701
  3123   0026D4  EF6E  F013         	goto	u700
  3124   0026D8                     u701:
  3125   0026D8  EFAC  F013         	goto	l2449
  3126   0026DC                     u700:
  3127   0026DC                     
  3128                           ;mcc_generated_files/i2c1_master.c: 420:     {;mcc_generated_files/i2c1_master.c: 421:  
      +                                 if(I2C1_Status.addressNackCheck)
  3129   0026DC  502A               	movf	(_I2C1_Status+41)^(0+1280),w,c
  3130   0026DE  0B03               	andlw	3
  3131   0026E0  0900               	iorlw	0
  3132   0026E2  B4D8               	btfsc	status,2,c
  3133   0026E4  EF76  F013         	goto	u711
  3134   0026E8  EF78  F013         	goto	u710
  3135   0026EC                     u711:
  3136   0026EC  EF84  F013         	goto	l2429
  3137   0026F0                     u710:
  3138   0026F0                     
  3139                           ;mcc_generated_files/i2c1_master.c: 422:         {;mcc_generated_files/i2c1_master.c: 42
      +                          3:             I2C1_Status.addressNackCheck--;
  3140   0026F0  0E01               	movlw	1
  3141   0026F2  6E38               	movwf	??_I2C1_DO_TX^(0+1280),c
  3142   0026F4  502A               	movf	(_I2C1_Status+41)^(0+1280),w,c
  3143   0026F6  0B03               	andlw	3
  3144   0026F8  6E39               	movwf	(??_I2C1_DO_TX+1)^(0+1280),c
  3145   0026FA  5038               	movf	??_I2C1_DO_TX^(0+1280),w,c
  3146   0026FC  5E39               	subwf	(??_I2C1_DO_TX+1)^(0+1280),f,c
  3147   0026FE  502A               	movf	(_I2C1_Status+41)^(0+1280),w,c
  3148   002700  1839               	xorwf	(??_I2C1_DO_TX+1)^(0+1280),w,c
  3149   002702  0BFC               	andlw	-4
  3150   002704  1839               	xorwf	(??_I2C1_DO_TX+1)^(0+1280),w,c
  3151   002706  6E2A               	movwf	(_I2C1_Status+41)^(0+1280),c
  3152   002708                     l2429:
  3153                           
  3154                           ;mcc_generated_files/i2c1_master.c: 425:         uint8_t dataTx = *I2C1_Status.data_ptr+
      +                          +;
  3155   002708  C524  F4D9         	movff	_I2C1_Status+35,fsr2l
  3156   00270C  C525  F4DA         	movff	_I2C1_Status+36,fsr2h
  3157   002710  50DF               	movf	indf2,w,c
  3158   002712  6E3C               	movwf	I2C1_DO_TX@dataTx^(0+1280),c
  3159   002714  4A24               	infsnz	(_I2C1_Status+35)^(0+1280),f,c
  3160   002716  2A25               	incf	(_I2C1_Status+36)^(0+1280),f,c
  3161   002718                     
  3162                           ;mcc_generated_files/i2c1_master.c: 426:         i2c1_fsm_states_t retFsmState = (--I2C1
      +                          _Status.data_length)?I2C1_TX:I2C1_DO_TX_EMPTY();
  3163   002718  0626               	decf	(_I2C1_Status+37)^(0+1280),f,c
  3164   00271A  A0D8               	btfss	status,0,c
  3165   00271C  0627               	decf	(_I2C1_Status+38)^(0+1280),f,c
  3166   00271E  5026               	movf	(_I2C1_Status+37)^(0+1280),w,c
  3167   002720  1027               	iorwf	(_I2C1_Status+38)^(0+1280),w,c
  3168   002722  A4D8               	btfss	status,2,c
  3169   002724  EF96  F013         	goto	u721
  3170   002728  EF98  F013         	goto	u720
  3171   00272C                     u721:
  3172   00272C  EFA0  F013         	goto	l2437
  3173   002730                     u720:
  3174   002730  EC2F  F015         	call	_I2C1_DO_TX_EMPTY	;wreg free
  3175   002734  6E38               	movwf	??_I2C1_DO_TX^(0+1280),c
  3176   002736  5038               	movf	??_I2C1_DO_TX^(0+1280),w,c
  3177   002738  6E3A               	movwf	_I2C1_DO_TX$837^(0+1280),c
  3178   00273A  6A3B               	clrf	(_I2C1_DO_TX$837+1)^(0+1280),c
  3179   00273C  EFA4  F013         	goto	l2439
  3180   002740                     l2437:
  3181   002740  0E00               	movlw	0
  3182   002742  6E3B               	movwf	(_I2C1_DO_TX$837+1)^(0+1280),c
  3183   002744  0E03               	movlw	3
  3184   002746  6E3A               	movwf	_I2C1_DO_TX$837^(0+1280),c
  3185   002748                     l2439:
  3186   002748  C53A  F53D         	movff	_I2C1_DO_TX$837,I2C1_DO_TX@retFsmState
  3187   00274C                     
  3188                           ;mcc_generated_files/i2c1_master.c: 427:         I2C1_MasterSendTxData(dataTx);
  3189   00274C  503C               	movf	I2C1_DO_TX@dataTx^(0+1280),w,c
  3190   00274E  ECDC  F018         	call	_I2C1_MasterSendTxData
  3191   002752                     
  3192                           ;mcc_generated_files/i2c1_master.c: 428:         return retFsmState;
  3193   002752  503D               	movf	I2C1_DO_TX@retFsmState^(0+1280),w,c
  3194   002754  EFAD  F013         	goto	l377
  3195   002758                     l2449:
  3196                           
  3197                           ;mcc_generated_files/i2c1_master.c: 431:     {;mcc_generated_files/i2c1_master.c: 432:  
      +                                 return I2C1_TX;
  3198   002758  0E03               	movlw	3
  3199   00275A                     l377:
  3200   00275A  0012               	return		;funcret
  3201   00275C                     __end_of_I2C1_DO_TX:
  3202                           	callstack 0
  3203                           
  3204 ;; *************** function _I2C1_DO_SEND_ADR_WRITE *****************
  3205 ;; Defined at:
  3206 ;;		line 396 in file "mcc_generated_files/i2c1_master.c"
  3207 ;; Parameters:    Size  Location     Type
  3208 ;;		None
  3209 ;; Auto vars:     Size  Location     Type
  3210 ;;		None
  3211 ;; Return value:  Size  Location     Type
  3212 ;;                  1    wreg      enum E17079
  3213 ;; Registers used:
  3214 ;;		wreg, status,2, status,0, cstack
  3215 ;; Tracked objects:
  3216 ;;		On entry : 0/0
  3217 ;;		On exit  : 0/0
  3218 ;;		Unchanged: 0/0
  3219 ;; Data sizes:     COMRAM   BANK5   BANK6   BANK7   BANK8   BANK9  BANK10  BANK11  BANK12  BANK13  BANK14  BANK15  BANK1
      +6  BANK17  BANK18  BANK19  BANK20  BANK21  BANK22  BANK23  BANK24  BANK25  BANK26  BANK27  BANK28  BANK29  BANK30  BANK3
      +1  BANK32  BANK33  BANK34  BANK35  BANK36
  3220 ;;      Params:         0       0       0       0       0       0       0       0       0       0       0       0       
      +0       0       0       0       0       0       0       0       0       0       0       0       0       0       0       
      +0       0       0       0       0       0
  3221 ;;      Locals:         0       0       0       0       0       0       0       0       0       0       0       0       
      +0       0       0       0       0       0       0       0       0       0       0       0       0       0       0       
      +0       0       0       0       0       0
  3222 ;;      Temps:          0       0       0       0       0       0       0       0       0       0       0       0       
      +0       0       0       0       0       0       0       0       0       0       0       0       0       0       0       
      +0       0       0       0       0       0
  3223 ;;      Totals:         0       0       0       0       0       0       0       0       0       0       0       0       
      +0       0       0       0       0       0       0       0       0       0       0       0       0       0       0       
      +0       0       0       0       0       0
  3224 ;;Total ram usage:        0 bytes
  3225 ;; Hardware stack levels used: 1
  3226 ;; Hardware stack levels required when called: 1
  3227 ;; This function calls:
  3228 ;;		_I2C1_MasterSendTxData
  3229 ;; This function is called by:
  3230 ;;		_I2C1_MasterOperation
  3231 ;;		_I2C1_MasterFsm
  3232 ;; This function uses a non-reentrant model
  3233 ;;
  3234                           
  3235                           	psect	text30
  3236   00311C                     __ptext30:
  3237                           	callstack 0
  3238   00311C                     _I2C1_DO_SEND_ADR_WRITE:
  3239                           	callstack 120
  3240   00311C                     
  3241                           ;mcc_generated_files/i2c1_master.c: 398:     I2C1_Status.addressNackCheck = 2;
  3242   00311C  502A               	movf	(_I2C1_Status+41)^(0+1280),w,c
  3243   00311E  0BFC               	andlw	-4
  3244   003120  0902               	iorlw	2
  3245   003122  6E2A               	movwf	(_I2C1_Status+41)^(0+1280),c
  3246   003124                     
  3247                           ;mcc_generated_files/i2c1_master.c: 399:     I2C1_MasterSendTxData((uint8_t) (I2C1_Statu
      +                          s.address << 1));
  3248   003124  5023               	movf	(_I2C1_Status+34)^(0+1280),w,c
  3249   003126  2423               	addwf	(_I2C1_Status+34)^(0+1280),w,c
  3250   003128  ECDC  F018         	call	_I2C1_MasterSendTxData
  3251   00312C                     
  3252                           ;mcc_generated_files/i2c1_master.c: 400:     return I2C1_TX;
  3253   00312C  0E03               	movlw	3
  3254   00312E  0012               	return		;funcret
  3255   003130                     __end_of_I2C1_DO_SEND_ADR_WRITE:
  3256                           	callstack 0
  3257                           
  3258 ;; *************** function _I2C1_DO_SEND_ADR_READ *****************
  3259 ;; Defined at:
  3260 ;;		line 385 in file "mcc_generated_files/i2c1_master.c"
  3261 ;; Parameters:    Size  Location     Type
  3262 ;;		None
  3263 ;; Auto vars:     Size  Location     Type
  3264 ;;		None
  3265 ;; Return value:  Size  Location     Type
  3266 ;;                  1    wreg      enum E17079
  3267 ;; Registers used:
  3268 ;;		wreg, fsr2l, fsr2h, status,2, status,0, pcl, pclath, pclatu, tosl, prodl, prodh, cstack
  3269 ;; Tracked objects:
  3270 ;;		On entry : 0/0
  3271 ;;		On exit  : 0/0
  3272 ;;		Unchanged: 0/0
  3273 ;; Data sizes:     COMRAM   BANK5   BANK6   BANK7   BANK8   BANK9  BANK10  BANK11  BANK12  BANK13  BANK14  BANK15  BANK1
      +6  BANK17  BANK18  BANK19  BANK20  BANK21  BANK22  BANK23  BANK24  BANK25  BANK26  BANK27  BANK28  BANK29  BANK30  BANK3
      +1  BANK32  BANK33  BANK34  BANK35  BANK36
  3274 ;;      Params:         0       0       0       0       0       0       0       0       0       0       0       0       
      +0       0       0       0       0       0       0       0       0       0       0       0       0       0       0       
      +0       0       0       0       0       0
  3275 ;;      Locals:         0       0       0       0       0       0       0       0       0       0       0       0       
      +0       0       0       0       0       0       0       0       0       0       0       0       0       0       0       
      +0       0       0       0       0       0
  3276 ;;      Temps:          0       0       0       0       0       0       0       0       0       0       0       0       
      +0       0       0       0       0       0       0       0       0       0       0       0       0       0       0       
      +0       0       0       0       0       0
  3277 ;;      Totals:         0       0       0       0       0       0       0       0       0       0       0       0       
      +0       0       0       0       0       0       0       0       0       0       0       0       0       0       0       
      +0       0       0       0       0       0
  3278 ;;Total ram usage:        0 bytes
  3279 ;; Hardware stack levels used: 1
  3280 ;; Hardware stack levels required when called: 4
  3281 ;; This function calls:
  3282 ;;		_I2C1_DO_RX_EMPTY
  3283 ;;		_I2C1_MasterSendTxData
  3284 ;; This function is called by:
  3285 ;;		_I2C1_MasterOperation
  3286 ;;		_I2C1_DO_SEND_RESTART_READ
  3287 ;;		_I2C1_MasterFsm
  3288 ;; This function uses a non-reentrant model
  3289 ;;
  3290                           
  3291                           	psect	text31
  3292   002F04                     __ptext31:
  3293                           	callstack 0
  3294   002F04                     _I2C1_DO_SEND_ADR_READ:
  3295                           	callstack 115
  3296   002F04                     
  3297                           ;mcc_generated_files/i2c1_master.c: 387:     I2C1_Status.addressNackCheck = 2;
  3298   002F04  502A               	movf	(_I2C1_Status+41)^(0+1280),w,c
  3299   002F06  0BFC               	andlw	-4
  3300   002F08  0902               	iorlw	2
  3301   002F0A  6E2A               	movwf	(_I2C1_Status+41)^(0+1280),c
  3302   002F0C                     
  3303                           ;mcc_generated_files/i2c1_master.c: 388:     if(I2C1_Status.data_length == 1)
  3304   002F0C  0426               	decf	(_I2C1_Status+37)^(0+1280),w,c
  3305   002F0E  1027               	iorwf	(_I2C1_Status+38)^(0+1280),w,c
  3306   002F10  A4D8               	btfss	status,2,c
  3307   002F12  EF8D  F017         	goto	u641
  3308   002F16  EF8F  F017         	goto	u640
  3309   002F1A                     u641:
  3310   002F1A  EF91  F017         	goto	l2343
  3311   002F1E                     u640:
  3312   002F1E                     
  3313                           ;mcc_generated_files/i2c1_master.c: 389:     {;mcc_generated_files/i2c1_master.c: 390:  
      +                                 I2C1_DO_RX_EMPTY();
  3314   002F1E  EC56  F014         	call	_I2C1_DO_RX_EMPTY	;wreg free
  3315   002F22                     l2343:
  3316                           
  3317                           ;mcc_generated_files/i2c1_master.c: 392:     I2C1_MasterSendTxData((uint8_t) (I2C1_Statu
      +                          s.address << 1 | 1));
  3318   002F22  80D8               	bsf	status,0,c
  3319   002F24  3423               	rlcf	(_I2C1_Status+34)^(0+1280),w,c
  3320   002F26  ECDC  F018         	call	_I2C1_MasterSendTxData
  3321   002F2A                     
  3322                           ;mcc_generated_files/i2c1_master.c: 393:     return I2C1_RX;
  3323   002F2A  0E04               	movlw	4
  3324   002F2C  0012               	return		;funcret
  3325   002F2E                     __end_of_I2C1_DO_SEND_ADR_READ:
  3326                           	callstack 0
  3327                           
  3328 ;; *************** function _I2C1_DO_IDLE *****************
  3329 ;; Defined at:
  3330 ;;		line 378 in file "mcc_generated_files/i2c1_master.c"
  3331 ;; Parameters:    Size  Location     Type
  3332 ;;		None
  3333 ;; Auto vars:     Size  Location     Type
  3334 ;;		None
  3335 ;; Return value:  Size  Location     Type
  3336 ;;                  1    wreg      enum E17079
  3337 ;; Registers used:
  3338 ;;		wreg, status,2
  3339 ;; Tracked objects:
  3340 ;;		On entry : 0/0
  3341 ;;		On exit  : 0/0
  3342 ;;		Unchanged: 0/0
  3343 ;; Data sizes:     COMRAM   BANK5   BANK6   BANK7   BANK8   BANK9  BANK10  BANK11  BANK12  BANK13  BANK14  BANK15  BANK1
      +6  BANK17  BANK18  BANK19  BANK20  BANK21  BANK22  BANK23  BANK24  BANK25  BANK26  BANK27  BANK28  BANK29  BANK30  BANK3
      +1  BANK32  BANK33  BANK34  BANK35  BANK36
  3344 ;;      Params:         0       0       0       0       0       0       0       0       0       0       0       0       
      +0       0       0       0       0       0       0       0       0       0       0       0       0       0       0       
      +0       0       0       0       0       0
  3345 ;;      Locals:         0       0       0       0       0       0       0       0       0       0       0       0       
      +0       0       0       0       0       0       0       0       0       0       0       0       0       0       0       
      +0       0       0       0       0       0
  3346 ;;      Temps:          0       0       0       0       0       0       0       0       0       0       0       0       
      +0       0       0       0       0       0       0       0       0       0       0       0       0       0       0       
      +0       0       0       0       0       0
  3347 ;;      Totals:         0       0       0       0       0       0       0       0       0       0       0       0       
      +0       0       0       0       0       0       0       0       0       0       0       0       0       0       0       
      +0       0       0       0       0       0
  3348 ;;Total ram usage:        0 bytes
  3349 ;; Hardware stack levels used: 1
  3350 ;; This function calls:
  3351 ;;		Nothing
  3352 ;; This function is called by:
  3353 ;;		_I2C1_DO_RX_NACK_STOP
  3354 ;;		_I2C1_MasterFsm
  3355 ;; This function uses a non-reentrant model
  3356 ;;
  3357                           
  3358                           	psect	text32
  3359   003184                     __ptext32:
  3360                           	callstack 0
  3361   003184                     _I2C1_DO_IDLE:
  3362                           	callstack 120
  3363   003184                     
  3364                           ;mcc_generated_files/i2c1_master.c: 380:     I2C1_Status.busy = 0;
  3365   003184  942A               	bcf	(_I2C1_Status+41)^(0+1280),2,c
  3366   003186                     
  3367                           ;mcc_generated_files/i2c1_master.c: 381:     I2C1_Status.error = I2C1_NOERR;
  3368   003186  0E00               	movlw	0
  3369   003188  6E29               	movwf	(_I2C1_Status+40)^(0+1280),c
  3370   00318A                     
  3371                           ;mcc_generated_files/i2c1_master.c: 382:     return I2C1_RESET;
  3372   00318A  0E0F               	movlw	15
  3373   00318C  0012               	return		;funcret
  3374   00318E                     __end_of_I2C1_DO_IDLE:
  3375                           	callstack 0
  3376                           
  3377 ;; *************** function _I2C1_DO_TX_ACK *****************
  3378 ;; Defined at:
  3379 ;;		line 538 in file "mcc_generated_files/i2c1_master.c"
  3380 ;; Parameters:    Size  Location     Type
  3381 ;;		None
  3382 ;; Auto vars:     Size  Location     Type
  3383 ;;		None
  3384 ;; Return value:  Size  Location     Type
  3385 ;;                  1    wreg      enum E17079
  3386 ;; Registers used:
  3387 ;;		wreg, cstack
  3388 ;; Tracked objects:
  3389 ;;		On entry : 0/0
  3390 ;;		On exit  : 0/0
  3391 ;;		Unchanged: 0/0
  3392 ;; Data sizes:     COMRAM   BANK5   BANK6   BANK7   BANK8   BANK9  BANK10  BANK11  BANK12  BANK13  BANK14  BANK15  BANK1
      +6  BANK17  BANK18  BANK19  BANK20  BANK21  BANK22  BANK23  BANK24  BANK25  BANK26  BANK27  BANK28  BANK29  BANK30  BANK3
      +1  BANK32  BANK33  BANK34  BANK35  BANK36
  3393 ;;      Params:         0       0       0       0       0       0       0       0       0       0       0       0       
      +0       0       0       0       0       0       0       0       0       0       0       0       0       0       0       
      +0       0       0       0       0       0
  3394 ;;      Locals:         0       0       0       0       0       0       0       0       0       0       0       0       
      +0       0       0       0       0       0       0       0       0       0       0       0       0       0       0       
      +0       0       0       0       0       0
  3395 ;;      Temps:          0       0       0       0       0       0       0       0       0       0       0       0       
      +0       0       0       0       0       0       0       0       0       0       0       0       0       0       0       
      +0       0       0       0       0       0
  3396 ;;      Totals:         0       0       0       0       0       0       0       0       0       0       0       0       
      +0       0       0       0       0       0       0       0       0       0       0       0       0       0       0       
      +0       0       0       0       0       0
  3397 ;;Total ram usage:        0 bytes
  3398 ;; Hardware stack levels used: 1
  3399 ;; Hardware stack levels required when called: 1
  3400 ;; This function calls:
  3401 ;;		_I2C1_MasterSendAck
  3402 ;; This function is called by:
  3403 ;;		_I2C1_MasterFsm
  3404 ;; This function uses a non-reentrant model
  3405 ;;
  3406                           
  3407                           	psect	text33
  3408   0031B0                     __ptext33:
  3409                           	callstack 0
  3410   0031B0                     _I2C1_DO_TX_ACK:
  3411                           	callstack 120
  3412   0031B0                     
  3413                           ;mcc_generated_files/i2c1_master.c: 540:     I2C1_MasterSendAck();
  3414   0031B0  ECF1  F018         	call	_I2C1_MasterSendAck	;wreg free
  3415   0031B4                     
  3416                           ;mcc_generated_files/i2c1_master.c: 541:     return I2C1_TX;
  3417   0031B4  0E03               	movlw	3
  3418   0031B6  0012               	return		;funcret
  3419   0031B8                     __end_of_I2C1_DO_TX_ACK:
  3420                           	callstack 0
  3421                           
  3422 ;; *************** function _I2C1_MasterIsTxBufEmpty *****************
  3423 ;; Defined at:
  3424 ;;		line 740 in file "mcc_generated_files/i2c1_master.c"
  3425 ;; Parameters:    Size  Location     Type
  3426 ;;		None
  3427 ;; Auto vars:     Size  Location     Type
  3428 ;;		None
  3429 ;; Return value:  Size  Location     Type
  3430 ;;                  1    wreg      _Bool 
  3431 ;; Registers used:
  3432 ;;		wreg
  3433 ;; Tracked objects:
  3434 ;;		On entry : 0/0
  3435 ;;		On exit  : 0/0
  3436 ;;		Unchanged: 0/0
  3437 ;; Data sizes:     COMRAM   BANK5   BANK6   BANK7   BANK8   BANK9  BANK10  BANK11  BANK12  BANK13  BANK14  BANK15  BANK1
      +6  BANK17  BANK18  BANK19  BANK20  BANK21  BANK22  BANK23  BANK24  BANK25  BANK26  BANK27  BANK28  BANK29  BANK30  BANK3
      +1  BANK32  BANK33  BANK34  BANK35  BANK36
  3438 ;;      Params:         0       0       0       0       0       0       0       0       0       0       0       0       
      +0       0       0       0       0       0       0       0       0       0       0       0       0       0       0       
      +0       0       0       0       0       0
  3439 ;;      Locals:         0       0       0       0       0       0       0       0       0       0       0       0       
      +0       0       0       0       0       0       0       0       0       0       0       0       0       0       0       
      +0       0       0       0       0       0
  3440 ;;      Temps:          0       0       0       0       0       0       0       0       0       0       0       0       
      +0       0       0       0       0       0       0       0       0       0       0       0       0       0       0       
      +0       0       0       0       0       0
  3441 ;;      Totals:         0       0       0       0       0       0       0       0       0       0       0       0       
      +0       0       0       0       0       0       0       0       0       0       0       0       0       0       0       
      +0       0       0       0       0       0
  3442 ;;Total ram usage:        0 bytes
  3443 ;; Hardware stack levels used: 1
  3444 ;; This function calls:
  3445 ;;		Nothing
  3446 ;; This function is called by:
  3447 ;;		_I2C1_DO_TX
  3448 ;; This function uses a non-reentrant model
  3449 ;;
  3450                           
  3451                           	psect	text34
  3452   003098                     __ptext34:
  3453                           	callstack 0
  3454   003098                     _I2C1_MasterIsTxBufEmpty:
  3455                           	callstack 120
  3456   003098                     
  3457                           ;mcc_generated_files/i2c1_master.c: 742:     return I2C1STAT1bits.TXBE;
  3458   003098  0102               	movlb	2	; () banked
  3459   00309A  BB99               	btfsc	153,5,b	;volatile
  3460   00309C  EF52  F018         	goto	u661
  3461   0030A0  EF55  F018         	goto	u660
  3462   0030A4                     u661:
  3463   0030A4  0E01               	movlw	1
  3464   0030A6  EF56  F018         	goto	u666
  3465   0030AA                     u660:
  3466   0030AA  0E00               	movlw	0
  3467   0030AC                     u666:
  3468   0030AC                     
  3469                           ; BSR set to: 2
  3470   0030AC  0012               	return		;funcret
  3471   0030AE                     __end_of_I2C1_MasterIsTxBufEmpty:
  3472                           	callstack 0
  3473                           
  3474 ;; *************** function _I2C1_MasterIsNack *****************
  3475 ;; Defined at:
  3476 ;;		line 713 in file "mcc_generated_files/i2c1_master.c"
  3477 ;; Parameters:    Size  Location     Type
  3478 ;;		None
  3479 ;; Auto vars:     Size  Location     Type
  3480 ;;		None
  3481 ;; Return value:  Size  Location     Type
  3482 ;;                  1    wreg      _Bool 
  3483 ;; Registers used:
  3484 ;;		wreg
  3485 ;; Tracked objects:
  3486 ;;		On entry : 0/0
  3487 ;;		On exit  : 0/0
  3488 ;;		Unchanged: 0/0
  3489 ;; Data sizes:     COMRAM   BANK5   BANK6   BANK7   BANK8   BANK9  BANK10  BANK11  BANK12  BANK13  BANK14  BANK15  BANK1
      +6  BANK17  BANK18  BANK19  BANK20  BANK21  BANK22  BANK23  BANK24  BANK25  BANK26  BANK27  BANK28  BANK29  BANK30  BANK3
      +1  BANK32  BANK33  BANK34  BANK35  BANK36
  3490 ;;      Params:         0       0       0       0       0       0       0       0       0       0       0       0       
      +0       0       0       0       0       0       0       0       0       0       0       0       0       0       0       
      +0       0       0       0       0       0
  3491 ;;      Locals:         0       0       0       0       0       0       0       0       0       0       0       0       
      +0       0       0       0       0       0       0       0       0       0       0       0       0       0       0       
      +0       0       0       0       0       0
  3492 ;;      Temps:          0       0       0       0       0       0       0       0       0       0       0       0       
      +0       0       0       0       0       0       0       0       0       0       0       0       0       0       0       
      +0       0       0       0       0       0
  3493 ;;      Totals:         0       0       0       0       0       0       0       0       0       0       0       0       
      +0       0       0       0       0       0       0       0       0       0       0       0       0       0       0       
      +0       0       0       0       0       0
  3494 ;;Total ram usage:        0 bytes
  3495 ;; Hardware stack levels used: 1
  3496 ;; This function calls:
  3497 ;;		Nothing
  3498 ;; This function is called by:
  3499 ;;		_I2C1_MasterFsm
  3500 ;;		_I2C1_DO_TX
  3501 ;; This function uses a non-reentrant model
  3502 ;;
  3503                           
  3504                           	psect	text35
  3505   0030AE                     __ptext35:
  3506                           	callstack 0
  3507   0030AE                     _I2C1_MasterIsNack:
  3508                           	callstack 121
  3509   0030AE                     
  3510                           ;mcc_generated_files/i2c1_master.c: 715:     return I2C1CON1bits.ACKSTAT;
  3511   0030AE  0102               	movlb	2	; () banked
  3512   0030B0  BB95               	btfsc	149,5,b	;volatile
  3513   0030B2  EF5D  F018         	goto	u651
  3514   0030B6  EF60  F018         	goto	u650
  3515   0030BA                     u651:
  3516   0030BA  0E01               	movlw	1
  3517   0030BC  EF61  F018         	goto	u656
  3518   0030C0                     u650:
  3519   0030C0  0E00               	movlw	0
  3520   0030C2                     u656:
  3521   0030C2                     
  3522                           ; BSR set to: 2
  3523   0030C2  0012               	return		;funcret
  3524   0030C4                     __end_of_I2C1_MasterIsNack:
  3525                           	callstack 0
  3526                           
  3527 ;; *************** function _I2C1_MasterGetCounter *****************
  3528 ;; Defined at:
  3529 ;;		line 675 in file "mcc_generated_files/i2c1_master.c"
  3530 ;; Parameters:    Size  Location     Type
  3531 ;;		None
  3532 ;; Auto vars:     Size  Location     Type
  3533 ;;		None
  3534 ;; Return value:  Size  Location     Type
  3535 ;;                  1    wreg      unsigned char 
  3536 ;; Registers used:
  3537 ;;		wreg, status,2
  3538 ;; Tracked objects:
  3539 ;;		On entry : 0/0
  3540 ;;		On exit  : 0/0
  3541 ;;		Unchanged: 0/0
  3542 ;; Data sizes:     COMRAM   BANK5   BANK6   BANK7   BANK8   BANK9  BANK10  BANK11  BANK12  BANK13  BANK14  BANK15  BANK1
      +6  BANK17  BANK18  BANK19  BANK20  BANK21  BANK22  BANK23  BANK24  BANK25  BANK26  BANK27  BANK28  BANK29  BANK30  BANK3
      +1  BANK32  BANK33  BANK34  BANK35  BANK36
  3543 ;;      Params:         0       0       0       0       0       0       0       0       0       0       0       0       
      +0       0       0       0       0       0       0       0       0       0       0       0       0       0       0       
      +0       0       0       0       0       0
  3544 ;;      Locals:         0       0       0       0       0       0       0       0       0       0       0       0       
      +0       0       0       0       0       0       0       0       0       0       0       0       0       0       0       
      +0       0       0       0       0       0
  3545 ;;      Temps:          0       0       0       0       0       0       0       0       0       0       0       0       
      +0       0       0       0       0       0       0       0       0       0       0       0       0       0       0       
      +0       0       0       0       0       0
  3546 ;;      Totals:         0       0       0       0       0       0       0       0       0       0       0       0       
      +0       0       0       0       0       0       0       0       0       0       0       0       0       0       0       
      +0       0       0       0       0       0
  3547 ;;Total ram usage:        0 bytes
  3548 ;; Hardware stack levels used: 1
  3549 ;; This function calls:
  3550 ;;		Nothing
  3551 ;; This function is called by:
  3552 ;;		_I2C1_DO_SEND_STOP
  3553 ;; This function uses a non-reentrant model
  3554 ;;
  3555                           
  3556                           	psect	text36
  3557   0031D0                     __ptext36:
  3558                           	callstack 0
  3559   0031D0                     _I2C1_MasterGetCounter:
  3560                           	callstack 120
  3561   0031D0                     
  3562                           ;mcc_generated_files/i2c1_master.c: 677:     return I2C1CNT;
  3563   0031D0  0102               	movlb	2	; () banked
  3564   0031D2  518D               	movf	141,w,b	;volatile
  3565   0031D4                     
  3566                           ; BSR set to: 2
  3567   0031D4  0012               	return		;funcret
  3568   0031D6                     __end_of_I2C1_MasterGetCounter:
  3569                           	callstack 0
  3570                           
  3571 ;; *************** function _I2C1_MasterStop *****************
  3572 ;; Defined at:
  3573 ;;		line 707 in file "mcc_generated_files/i2c1_master.c"
  3574 ;; Parameters:    Size  Location     Type
  3575 ;;		None
  3576 ;; Auto vars:     Size  Location     Type
  3577 ;;		None
  3578 ;; Return value:  Size  Location     Type
  3579 ;;                  1    wreg      void 
  3580 ;; Registers used:
  3581 ;;		None
  3582 ;; Tracked objects:
  3583 ;;		On entry : 0/0
  3584 ;;		On exit  : 0/0
  3585 ;;		Unchanged: 0/0
  3586 ;; Data sizes:     COMRAM   BANK5   BANK6   BANK7   BANK8   BANK9  BANK10  BANK11  BANK12  BANK13  BANK14  BANK15  BANK1
      +6  BANK17  BANK18  BANK19  BANK20  BANK21  BANK22  BANK23  BANK24  BANK25  BANK26  BANK27  BANK28  BANK29  BANK30  BANK3
      +1  BANK32  BANK33  BANK34  BANK35  BANK36
  3587 ;;      Params:         0       0       0       0       0       0       0       0       0       0       0       0       
      +0       0       0       0       0       0       0       0       0       0       0       0       0       0       0       
      +0       0       0       0       0       0
  3588 ;;      Locals:         0       0       0       0       0       0       0       0       0       0       0       0       
      +0       0       0       0       0       0       0       0       0       0       0       0       0       0       0       
      +0       0       0       0       0       0
  3589 ;;      Temps:          0       0       0       0       0       0       0       0       0       0       0       0       
      +0       0       0       0       0       0       0       0       0       0       0       0       0       0       0       
      +0       0       0       0       0       0
  3590 ;;      Totals:         0       0       0       0       0       0       0       0       0       0       0       0       
      +0       0       0       0       0       0       0       0       0       0       0       0       0       0       0       
      +0       0       0       0       0       0
  3591 ;;Total ram usage:        0 bytes
  3592 ;; Hardware stack levels used: 1
  3593 ;; This function calls:
  3594 ;;		Nothing
  3595 ;; This function is called by:
  3596 ;;		_I2C1_DO_SEND_STOP
  3597 ;;		_I2C1_DO_RX_NACK_STOP
  3598 ;; This function uses a non-reentrant model
  3599 ;;
  3600                           
  3601                           	psect	text37
  3602   0031D6                     __ptext37:
  3603                           	callstack 0
  3604   0031D6                     _I2C1_MasterStop:
  3605                           	callstack 120
  3606   0031D6                     
  3607                           ;mcc_generated_files/i2c1_master.c: 710:     I2C1CON0bits.S = 0;
  3608   0031D6  0102               	movlb	2	; () banked
  3609   0031D8  9B94               	bcf	148,5,b	;volatile
  3610   0031DA                     
  3611                           ; BSR set to: 2
  3612   0031DA  0012               	return		;funcret
  3613   0031DC                     __end_of_I2C1_MasterStop:
  3614                           	callstack 0
  3615                           
  3616 ;; *************** function _I2C1_MasterSendNack *****************
  3617 ;; Defined at:
  3618 ;;		line 723 in file "mcc_generated_files/i2c1_master.c"
  3619 ;; Parameters:    Size  Location     Type
  3620 ;;		None
  3621 ;; Auto vars:     Size  Location     Type
  3622 ;;		None
  3623 ;; Return value:  Size  Location     Type
  3624 ;;                  1    wreg      void 
  3625 ;; Registers used:
  3626 ;;		None
  3627 ;; Tracked objects:
  3628 ;;		On entry : 0/0
  3629 ;;		On exit  : 0/0
  3630 ;;		Unchanged: 0/0
  3631 ;; Data sizes:     COMRAM   BANK5   BANK6   BANK7   BANK8   BANK9  BANK10  BANK11  BANK12  BANK13  BANK14  BANK15  BANK1
      +6  BANK17  BANK18  BANK19  BANK20  BANK21  BANK22  BANK23  BANK24  BANK25  BANK26  BANK27  BANK28  BANK29  BANK30  BANK3
      +1  BANK32  BANK33  BANK34  BANK35  BANK36
  3632 ;;      Params:         0       0       0       0       0       0       0       0       0       0       0       0       
      +0       0       0       0       0       0       0       0       0       0       0       0       0       0       0       
      +0       0       0       0       0       0
  3633 ;;      Locals:         0       0       0       0       0       0       0       0       0       0       0       0       
      +0       0       0       0       0       0       0       0       0       0       0       0       0       0       0       
      +0       0       0       0       0       0
  3634 ;;      Temps:          0       0       0       0       0       0       0       0       0       0       0       0       
      +0       0       0       0       0       0       0       0       0       0       0       0       0       0       0       
      +0       0       0       0       0       0
  3635 ;;      Totals:         0       0       0       0       0       0       0       0       0       0       0       0       
      +0       0       0       0       0       0       0       0       0       0       0       0       0       0       0       
      +0       0       0       0       0       0
  3636 ;;Total ram usage:        0 bytes
  3637 ;; Hardware stack levels used: 1
  3638 ;; This function calls:
  3639 ;;		Nothing
  3640 ;; This function is called by:
  3641 ;;		_I2C1_DO_RX_NACK_STOP
  3642 ;;		_I2C1_DO_RX_NACK_RESTART
  3643 ;; This function uses a non-reentrant model
  3644 ;;
  3645                           
  3646                           	psect	text38
  3647   0031DC                     __ptext38:
  3648                           	callstack 0
  3649   0031DC                     _I2C1_MasterSendNack:
  3650                           	callstack 120
  3651   0031DC                     
  3652                           ;mcc_generated_files/i2c1_master.c: 725:     I2C1CON1bits.ACKDT = 1;
  3653   0031DC  0102               	movlb	2	; () banked
  3654   0031DE  8D95               	bsf	149,6,b	;volatile
  3655   0031E0                     
  3656                           ; BSR set to: 2
  3657   0031E0  0012               	return		;funcret
  3658   0031E2                     __end_of_I2C1_MasterSendNack:
  3659                           	callstack 0
  3660                           
  3661 ;; *************** function _I2C1_MasterSendAck *****************
  3662 ;; Defined at:
  3663 ;;		line 718 in file "mcc_generated_files/i2c1_master.c"
  3664 ;; Parameters:    Size  Location     Type
  3665 ;;		None
  3666 ;; Auto vars:     Size  Location     Type
  3667 ;;		None
  3668 ;; Return value:  Size  Location     Type
  3669 ;;                  1    wreg      void 
  3670 ;; Registers used:
  3671 ;;		None
  3672 ;; Tracked objects:
  3673 ;;		On entry : 0/0
  3674 ;;		On exit  : 0/0
  3675 ;;		Unchanged: 0/0
  3676 ;; Data sizes:     COMRAM   BANK5   BANK6   BANK7   BANK8   BANK9  BANK10  BANK11  BANK12  BANK13  BANK14  BANK15  BANK1
      +6  BANK17  BANK18  BANK19  BANK20  BANK21  BANK22  BANK23  BANK24  BANK25  BANK26  BANK27  BANK28  BANK29  BANK30  BANK3
      +1  BANK32  BANK33  BANK34  BANK35  BANK36
  3677 ;;      Params:         0       0       0       0       0       0       0       0       0       0       0       0       
      +0       0       0       0       0       0       0       0       0       0       0       0       0       0       0       
      +0       0       0       0       0       0
  3678 ;;      Locals:         0       0       0       0       0       0       0       0       0       0       0       0       
      +0       0       0       0       0       0       0       0       0       0       0       0       0       0       0       
      +0       0       0       0       0       0
  3679 ;;      Temps:          0       0       0       0       0       0       0       0       0       0       0       0       
      +0       0       0       0       0       0       0       0       0       0       0       0       0       0       0       
      +0       0       0       0       0       0
  3680 ;;      Totals:         0       0       0       0       0       0       0       0       0       0       0       0       
      +0       0       0       0       0       0       0       0       0       0       0       0       0       0       0       
      +0       0       0       0       0       0
  3681 ;;Total ram usage:        0 bytes
  3682 ;; Hardware stack levels used: 1
  3683 ;; This function calls:
  3684 ;;		Nothing
  3685 ;; This function is called by:
  3686 ;;		_I2C1_DO_RX_ACK
  3687 ;;		_I2C1_DO_TX_ACK
  3688 ;; This function uses a non-reentrant model
  3689 ;;
  3690                           
  3691                           	psect	text39
  3692   0031E2                     __ptext39:
  3693                           	callstack 0
  3694   0031E2                     _I2C1_MasterSendAck:
  3695                           	callstack 120
  3696   0031E2                     
  3697                           ;mcc_generated_files/i2c1_master.c: 720:     I2C1CON1bits.ACKDT = 0;
  3698   0031E2  0102               	movlb	2	; () banked
  3699   0031E4  9D95               	bcf	149,6,b	;volatile
  3700   0031E6                     
  3701                           ; BSR set to: 2
  3702   0031E6  0012               	return		;funcret
  3703   0031E8                     __end_of_I2C1_MasterSendAck:
  3704                           	callstack 0
  3705                           
  3706 ;; *************** function _I2C1_MasterIsRxBufFull *****************
  3707 ;; Defined at:
  3708 ;;		line 735 in file "mcc_generated_files/i2c1_master.c"
  3709 ;; Parameters:    Size  Location     Type
  3710 ;;		None
  3711 ;; Auto vars:     Size  Location     Type
  3712 ;;		None
  3713 ;; Return value:  Size  Location     Type
  3714 ;;                  1    wreg      _Bool 
  3715 ;; Registers used:
  3716 ;;		wreg
  3717 ;; Tracked objects:
  3718 ;;		On entry : 0/0
  3719 ;;		On exit  : 0/0
  3720 ;;		Unchanged: 0/0
  3721 ;; Data sizes:     COMRAM   BANK5   BANK6   BANK7   BANK8   BANK9  BANK10  BANK11  BANK12  BANK13  BANK14  BANK15  BANK1
      +6  BANK17  BANK18  BANK19  BANK20  BANK21  BANK22  BANK23  BANK24  BANK25  BANK26  BANK27  BANK28  BANK29  BANK30  BANK3
      +1  BANK32  BANK33  BANK34  BANK35  BANK36
  3722 ;;      Params:         0       0       0       0       0       0       0       0       0       0       0       0       
      +0       0       0       0       0       0       0       0       0       0       0       0       0       0       0       
      +0       0       0       0       0       0
  3723 ;;      Locals:         0       0       0       0       0       0       0       0       0       0       0       0       
      +0       0       0       0       0       0       0       0       0       0       0       0       0       0       0       
      +0       0       0       0       0       0
  3724 ;;      Temps:          0       0       0       0       0       0       0       0       0       0       0       0       
      +0       0       0       0       0       0       0       0       0       0       0       0       0       0       0       
      +0       0       0       0       0       0
  3725 ;;      Totals:         0       0       0       0       0       0       0       0       0       0       0       0       
      +0       0       0       0       0       0       0       0       0       0       0       0       0       0       0       
      +0       0       0       0       0       0
  3726 ;;Total ram usage:        0 bytes
  3727 ;; Hardware stack levels used: 1
  3728 ;; This function calls:
  3729 ;;		Nothing
  3730 ;; This function is called by:
  3731 ;;		_I2C1_DO_RX
  3732 ;; This function uses a non-reentrant model
  3733 ;;
  3734                           
  3735                           	psect	text40
  3736   0030C4                     __ptext40:
  3737                           	callstack 0
  3738   0030C4                     _I2C1_MasterIsRxBufFull:
  3739                           	callstack 120
  3740   0030C4                     
  3741                           ;mcc_generated_files/i2c1_master.c: 737:     return I2C1STAT1bits.RXBF;
  3742   0030C4  0102               	movlb	2	; () banked
  3743   0030C6  B199               	btfsc	153,0,b	;volatile
  3744   0030C8  EF68  F018         	goto	u121
  3745   0030CC  EF6B  F018         	goto	u120
  3746   0030D0                     u121:
  3747   0030D0  0E01               	movlw	1
  3748   0030D2  EF6C  F018         	goto	u126
  3749   0030D6                     u120:
  3750   0030D6  0E00               	movlw	0
  3751   0030D8                     u126:
  3752   0030D8                     
  3753                           ; BSR set to: 2
  3754   0030D8  0012               	return		;funcret
  3755   0030DA                     __end_of_I2C1_MasterIsRxBufFull:
  3756                           	callstack 0
  3757                           
  3758 ;; *************** function _I2C1_MasterGetRxData *****************
  3759 ;; Defined at:
  3760 ;;		line 665 in file "mcc_generated_files/i2c1_master.c"
  3761 ;; Parameters:    Size  Location     Type
  3762 ;;		None
  3763 ;; Auto vars:     Size  Location     Type
  3764 ;;		None
  3765 ;; Return value:  Size  Location     Type
  3766 ;;                  1    wreg      unsigned char 
  3767 ;; Registers used:
  3768 ;;		wreg, status,2
  3769 ;; Tracked objects:
  3770 ;;		On entry : 0/0
  3771 ;;		On exit  : 0/0
  3772 ;;		Unchanged: 0/0
  3773 ;; Data sizes:     COMRAM   BANK5   BANK6   BANK7   BANK8   BANK9  BANK10  BANK11  BANK12  BANK13  BANK14  BANK15  BANK1
      +6  BANK17  BANK18  BANK19  BANK20  BANK21  BANK22  BANK23  BANK24  BANK25  BANK26  BANK27  BANK28  BANK29  BANK30  BANK3
      +1  BANK32  BANK33  BANK34  BANK35  BANK36
  3774 ;;      Params:         0       0       0       0       0       0       0       0       0       0       0       0       
      +0       0       0       0       0       0       0       0       0       0       0       0       0       0       0       
      +0       0       0       0       0       0
  3775 ;;      Locals:         0       0       0       0       0       0       0       0       0       0       0       0       
      +0       0       0       0       0       0       0       0       0       0       0       0       0       0       0       
      +0       0       0       0       0       0
  3776 ;;      Temps:          0       0       0       0       0       0       0       0       0       0       0       0       
      +0       0       0       0       0       0       0       0       0       0       0       0       0       0       0       
      +0       0       0       0       0       0
  3777 ;;      Totals:         0       0       0       0       0       0       0       0       0       0       0       0       
      +0       0       0       0       0       0       0       0       0       0       0       0       0       0       0       
      +0       0       0       0       0       0
  3778 ;;Total ram usage:        0 bytes
  3779 ;; Hardware stack levels used: 1
  3780 ;; This function calls:
  3781 ;;		Nothing
  3782 ;; This function is called by:
  3783 ;;		_I2C1_DO_RX
  3784 ;; This function uses a non-reentrant model
  3785 ;;
  3786                           
  3787                           	psect	text41
  3788   0031E8                     __ptext41:
  3789                           	callstack 0
  3790   0031E8                     _I2C1_MasterGetRxData:
  3791                           	callstack 120
  3792   0031E8                     
  3793                           ;mcc_generated_files/i2c1_master.c: 667:     return I2C1RXB;
  3794   0031E8  0102               	movlb	2	; () banked
  3795   0031EA  518B               	movf	139,w,b	;volatile
  3796   0031EC                     
  3797                           ; BSR set to: 2
  3798   0031EC  0012               	return		;funcret
  3799   0031EE                     __end_of_I2C1_MasterGetRxData:
  3800                           	callstack 0
  3801                           
  3802 ;; *************** function _I2C1_MasterSendTxData *****************
  3803 ;; Defined at:
  3804 ;;		line 670 in file "mcc_generated_files/i2c1_master.c"
  3805 ;; Parameters:    Size  Location     Type
  3806 ;;  data            1    wreg     unsigned char 
  3807 ;; Auto vars:     Size  Location     Type
  3808 ;;  data            1    0[COMRAM] unsigned char 
  3809 ;; Return value:  Size  Location     Type
  3810 ;;                  1    wreg      void 
  3811 ;; Registers used:
  3812 ;;		wreg
  3813 ;; Tracked objects:
  3814 ;;		On entry : 0/0
  3815 ;;		On exit  : 0/0
  3816 ;;		Unchanged: 0/0
  3817 ;; Data sizes:     COMRAM   BANK5   BANK6   BANK7   BANK8   BANK9  BANK10  BANK11  BANK12  BANK13  BANK14  BANK15  BANK1
      +6  BANK17  BANK18  BANK19  BANK20  BANK21  BANK22  BANK23  BANK24  BANK25  BANK26  BANK27  BANK28  BANK29  BANK30  BANK3
      +1  BANK32  BANK33  BANK34  BANK35  BANK36
  3818 ;;      Params:         0       0       0       0       0       0       0       0       0       0       0       0       
      +0       0       0       0       0       0       0       0       0       0       0       0       0       0       0       
      +0       0       0       0       0       0
  3819 ;;      Locals:         1       0       0       0       0       0       0       0       0       0       0       0       
      +0       0       0       0       0       0       0       0       0       0       0       0       0       0       0       
      +0       0       0       0       0       0
  3820 ;;      Temps:          0       0       0       0       0       0       0       0       0       0       0       0       
      +0       0       0       0       0       0       0       0       0       0       0       0       0       0       0       
      +0       0       0       0       0       0
  3821 ;;      Totals:         1       0       0       0       0       0       0       0       0       0       0       0       
      +0       0       0       0       0       0       0       0       0       0       0       0       0       0       0       
      +0       0       0       0       0       0
  3822 ;;Total ram usage:        1 bytes
  3823 ;; Hardware stack levels used: 1
  3824 ;; This function calls:
  3825 ;;		Nothing
  3826 ;; This function is called by:
  3827 ;;		_I2C1_DO_SEND_ADR_READ
  3828 ;;		_I2C1_DO_SEND_ADR_WRITE
  3829 ;;		_I2C1_DO_TX
  3830 ;;		_I2C1_DO_SEND_STOP
  3831 ;; This function uses a non-reentrant model
  3832 ;;
  3833                           
  3834                           	psect	text42
  3835   0031B8                     __ptext42:
  3836                           	callstack 0
  3837   0031B8                     _I2C1_MasterSendTxData:
  3838                           	callstack 120
  3839                           
  3840                           ; BSR set to: 2
  3841                           ;incstack = 0
  3842                           ;I2C1_MasterSendTxData@data stored from wreg
  3843   0031B8  6E2B               	movwf	I2C1_MasterSendTxData@data^(0+1280),c
  3844   0031BA                     
  3845                           ;mcc_generated_files/i2c1_master.c: 670: static __attribute__((inline)) void I2C1_Master
      +                          SendTxData(uint8_t data);mcc_generated_files/i2c1_master.c: 671: {;mcc_generated_files/i
      +                          2c1_master.c: 672:     I2C1TXB = data;
  3846   0031BA  C52B  F28C         	movff	I2C1_MasterSendTxData@data,652	;volatile
  3847   0031BE  0012               	return		;funcret
  3848   0031C0                     __end_of_I2C1_MasterSendTxData:
  3849                           	callstack 0
  3850                           
  3851 ;; *************** function _I2C1_MasterSetCounter *****************
  3852 ;; Defined at:
  3853 ;;		line 680 in file "mcc_generated_files/i2c1_master.c"
  3854 ;; Parameters:    Size  Location     Type
  3855 ;;  counter         1    wreg     unsigned char 
  3856 ;; Auto vars:     Size  Location     Type
  3857 ;;  counter         1    0[COMRAM] unsigned char 
  3858 ;; Return value:  Size  Location     Type
  3859 ;;                  1    wreg      void 
  3860 ;; Registers used:
  3861 ;;		wreg
  3862 ;; Tracked objects:
  3863 ;;		On entry : 0/0
  3864 ;;		On exit  : 0/0
  3865 ;;		Unchanged: 0/0
  3866 ;; Data sizes:     COMRAM   BANK5   BANK6   BANK7   BANK8   BANK9  BANK10  BANK11  BANK12  BANK13  BANK14  BANK15  BANK1
      +6  BANK17  BANK18  BANK19  BANK20  BANK21  BANK22  BANK23  BANK24  BANK25  BANK26  BANK27  BANK28  BANK29  BANK30  BANK3
      +1  BANK32  BANK33  BANK34  BANK35  BANK36
  3867 ;;      Params:         0       0       0       0       0       0       0       0       0       0       0       0       
      +0       0       0       0       0       0       0       0       0       0       0       0       0       0       0       
      +0       0       0       0       0       0
  3868 ;;      Locals:         1       0       0       0       0       0       0       0       0       0       0       0       
      +0       0       0       0       0       0       0       0       0       0       0       0       0       0       0       
      +0       0       0       0       0       0
  3869 ;;      Temps:          0       0       0       0       0       0       0       0       0       0       0       0       
      +0       0       0       0       0       0       0       0       0       0       0       0       0       0       0       
      +0       0       0       0       0       0
  3870 ;;      Totals:         1       0       0       0       0       0       0       0       0       0       0       0       
      +0       0       0       0       0       0       0       0       0       0       0       0       0       0       0       
      +0       0       0       0       0       0
  3871 ;;Total ram usage:        1 bytes
  3872 ;; Hardware stack levels used: 1
  3873 ;; This function calls:
  3874 ;;		Nothing
  3875 ;; This function is called by:
  3876 ;;		_I2C1_MasterOperation
  3877 ;;		_I2C1_DO_TX_EMPTY
  3878 ;;		_I2C1_DO_RX_EMPTY
  3879 ;;		_I2C1_DO_SEND_RESTART_READ
  3880 ;;		_I2C1_DO_SEND_STOP
  3881 ;; This function uses a non-reentrant model
  3882 ;;
  3883                           
  3884                           	psect	text43
  3885   0031C0                     __ptext43:
  3886                           	callstack 0
  3887   0031C0                     _I2C1_MasterSetCounter:
  3888                           	callstack 120
  3889                           
  3890                           ;incstack = 0
  3891                           ;I2C1_MasterSetCounter@counter stored from wreg
  3892   0031C0  6E2B               	movwf	I2C1_MasterSetCounter@counter^(0+1280),c
  3893   0031C2                     
  3894                           ;mcc_generated_files/i2c1_master.c: 680: static __attribute__((inline)) void I2C1_Master
      +                          SetCounter(uint8_t counter);mcc_generated_files/i2c1_master.c: 681: {;mcc_generated_file
      +                          s/i2c1_master.c: 682:     I2C1CNT = counter;
  3895   0031C2  C52B  F28D         	movff	I2C1_MasterSetCounter@counter,653	;volatile
  3896   0031C6  0012               	return		;funcret
  3897   0031C8                     __end_of_I2C1_MasterSetCounter:
  3898                           	callstack 0
  3899                           
  3900 ;; *************** function _I2C1_MasterEnableRestart *****************
  3901 ;; Defined at:
  3902 ;;		line 695 in file "mcc_generated_files/i2c1_master.c"
  3903 ;; Parameters:    Size  Location     Type
  3904 ;;		None
  3905 ;; Auto vars:     Size  Location     Type
  3906 ;;		None
  3907 ;; Return value:  Size  Location     Type
  3908 ;;                  1    wreg      void 
  3909 ;; Registers used:
  3910 ;;		None
  3911 ;; Tracked objects:
  3912 ;;		On entry : 0/0
  3913 ;;		On exit  : 0/0
  3914 ;;		Unchanged: 0/0
  3915 ;; Data sizes:     COMRAM   BANK5   BANK6   BANK7   BANK8   BANK9  BANK10  BANK11  BANK12  BANK13  BANK14  BANK15  BANK1
      +6  BANK17  BANK18  BANK19  BANK20  BANK21  BANK22  BANK23  BANK24  BANK25  BANK26  BANK27  BANK28  BANK29  BANK30  BANK3
      +1  BANK32  BANK33  BANK34  BANK35  BANK36
  3916 ;;      Params:         0       0       0       0       0       0       0       0       0       0       0       0       
      +0       0       0       0       0       0       0       0       0       0       0       0       0       0       0       
      +0       0       0       0       0       0
  3917 ;;      Locals:         0       0       0       0       0       0       0       0       0       0       0       0       
      +0       0       0       0       0       0       0       0       0       0       0       0       0       0       0       
      +0       0       0       0       0       0
  3918 ;;      Temps:          0       0       0       0       0       0       0       0       0       0       0       0       
      +0       0       0       0       0       0       0       0       0       0       0       0       0       0       0       
      +0       0       0       0       0       0
  3919 ;;      Totals:         0       0       0       0       0       0       0       0       0       0       0       0       
      +0       0       0       0       0       0       0       0       0       0       0       0       0       0       0       
      +0       0       0       0       0       0
  3920 ;;Total ram usage:        0 bytes
  3921 ;; Hardware stack levels used: 1
  3922 ;; This function calls:
  3923 ;;		Nothing
  3924 ;; This function is called by:
  3925 ;;		_I2C1_DO_TX_EMPTY
  3926 ;;		_I2C1_DO_RX_EMPTY
  3927 ;; This function uses a non-reentrant model
  3928 ;;
  3929                           
  3930                           	psect	text44
  3931   0031EE                     __ptext44:
  3932                           	callstack 0
  3933   0031EE                     _I2C1_MasterEnableRestart:
  3934                           	callstack 120
  3935   0031EE                     
  3936                           ;mcc_generated_files/i2c1_master.c: 698:     I2C1CON0bits.RSEN = 1;
  3937   0031EE  0102               	movlb	2	; () banked
  3938   0031F0  8D94               	bsf	148,6,b	;volatile
  3939   0031F2                     
  3940                           ; BSR set to: 2
  3941   0031F2  0012               	return		;funcret
  3942   0031F4                     __end_of_I2C1_MasterEnableRestart:
  3943                           	callstack 0
  3944                           
  3945 ;; *************** function _I2C1_MasterDisableRestart *****************
  3946 ;; Defined at:
  3947 ;;		line 701 in file "mcc_generated_files/i2c1_master.c"
  3948 ;; Parameters:    Size  Location     Type
  3949 ;;		None
  3950 ;; Auto vars:     Size  Location     Type
  3951 ;;		None
  3952 ;; Return value:  Size  Location     Type
  3953 ;;                  1    wreg      void 
  3954 ;; Registers used:
  3955 ;;		None
  3956 ;; Tracked objects:
  3957 ;;		On entry : 0/0
  3958 ;;		On exit  : 0/0
  3959 ;;		Unchanged: 0/0
  3960 ;; Data sizes:     COMRAM   BANK5   BANK6   BANK7   BANK8   BANK9  BANK10  BANK11  BANK12  BANK13  BANK14  BANK15  BANK1
      +6  BANK17  BANK18  BANK19  BANK20  BANK21  BANK22  BANK23  BANK24  BANK25  BANK26  BANK27  BANK28  BANK29  BANK30  BANK3
      +1  BANK32  BANK33  BANK34  BANK35  BANK36
  3961 ;;      Params:         0       0       0       0       0       0       0       0       0       0       0       0       
      +0       0       0       0       0       0       0       0       0       0       0       0       0       0       0       
      +0       0       0       0       0       0
  3962 ;;      Locals:         0       0       0       0       0       0       0       0       0       0       0       0       
      +0       0       0       0       0       0       0       0       0       0       0       0       0       0       0       
      +0       0       0       0       0       0
  3963 ;;      Temps:          0       0       0       0       0       0       0       0       0       0       0       0       
      +0       0       0       0       0       0       0       0       0       0       0       0       0       0       0       
      +0       0       0       0       0       0
  3964 ;;      Totals:         0       0       0       0       0       0       0       0       0       0       0       0       
      +0       0       0       0       0       0       0       0       0       0       0       0       0       0       0       
      +0       0       0       0       0       0
  3965 ;;Total ram usage:        0 bytes
  3966 ;; Hardware stack levels used: 1
  3967 ;; This function calls:
  3968 ;;		Nothing
  3969 ;; This function is called by:
  3970 ;;		_I2C1_DO_TX_EMPTY
  3971 ;;		_I2C1_DO_RX_EMPTY
  3972 ;; This function uses a non-reentrant model
  3973 ;;
  3974                           
  3975                           	psect	text45
  3976   0031F4                     __ptext45:
  3977                           	callstack 0
  3978   0031F4                     _I2C1_MasterDisableRestart:
  3979                           	callstack 120
  3980   0031F4                     
  3981                           ;mcc_generated_files/i2c1_master.c: 704:     I2C1CON0bits.RSEN = 0;
  3982   0031F4  0102               	movlb	2	; () banked
  3983   0031F6  9D94               	bcf	148,6,b	;volatile
  3984   0031F8                     
  3985                           ; BSR set to: 2
  3986   0031F8  0012               	return		;funcret
  3987   0031FA                     __end_of_I2C1_MasterDisableRestart:
  3988                           	callstack 0
  3989                           
  3990 ;; *************** function _I2C1_MasterResetBus *****************
  3991 ;; Defined at:
  3992 ;;		line 685 in file "mcc_generated_files/i2c1_master.c"
  3993 ;; Parameters:    Size  Location     Type
  3994 ;;		None
  3995 ;; Auto vars:     Size  Location     Type
  3996 ;;		None
  3997 ;; Return value:  Size  Location     Type
  3998 ;;                  1    wreg      void 
  3999 ;; Registers used:
  4000 ;;		None
  4001 ;; Tracked objects:
  4002 ;;		On entry : 0/0
  4003 ;;		On exit  : 0/0
  4004 ;;		Unchanged: 0/0
  4005 ;; Data sizes:     COMRAM   BANK5   BANK6   BANK7   BANK8   BANK9  BANK10  BANK11  BANK12  BANK13  BANK14  BANK15  BANK1
      +6  BANK17  BANK18  BANK19  BANK20  BANK21  BANK22  BANK23  BANK24  BANK25  BANK26  BANK27  BANK28  BANK29  BANK30  BANK3
      +1  BANK32  BANK33  BANK34  BANK35  BANK36
  4006 ;;      Params:         0       0       0       0       0       0       0       0       0       0       0       0       
      +0       0       0       0       0       0       0       0       0       0       0       0       0       0       0       
      +0       0       0       0       0       0
  4007 ;;      Locals:         0       0       0       0       0       0       0       0       0       0       0       0       
      +0       0       0       0       0       0       0       0       0       0       0       0       0       0       0       
      +0       0       0       0       0       0
  4008 ;;      Temps:          0       0       0       0       0       0       0       0       0       0       0       0       
      +0       0       0       0       0       0       0       0       0       0       0       0       0       0       0       
      +0       0       0       0       0       0
  4009 ;;      Totals:         0       0       0       0       0       0       0       0       0       0       0       0       
      +0       0       0       0       0       0       0       0       0       0       0       0       0       0       0       
      +0       0       0       0       0       0
  4010 ;;Total ram usage:        0 bytes
  4011 ;; Hardware stack levels used: 1
  4012 ;; This function calls:
  4013 ;;		Nothing
  4014 ;; This function is called by:
  4015 ;;		_I2C1_DO_RESET
  4016 ;;		_I2C1_DO_BUS_ERROR
  4017 ;; This function uses a non-reentrant model
  4018 ;;
  4019                           
  4020                           	psect	text46
  4021   00318E                     __ptext46:
  4022                           	callstack 0
  4023   00318E                     _I2C1_MasterResetBus:
  4024                           	callstack 120
  4025   00318E                     
  4026                           ;mcc_generated_files/i2c1_master.c: 688:     I2C1CON0bits.EN = 0;
  4027   00318E  0102               	movlb	2	; () banked
  4028   003190  9F94               	bcf	148,7,b	;volatile
  4029                           
  4030                           ;mcc_generated_files/i2c1_master.c: 690:     I2C1STAT1bits.CLRBF = 1;
  4031   003192  8599               	bsf	153,2,b	;volatile
  4032                           
  4033                           ;mcc_generated_files/i2c1_master.c: 692:     I2C1CON0bits.EN = 1;
  4034   003194  8F94               	bsf	148,7,b	;volatile
  4035   003196                     
  4036                           ; BSR set to: 2
  4037   003196  0012               	return		;funcret
  4038   003198                     __end_of_I2C1_MasterResetBus:
  4039                           	callstack 0
  4040                           
  4041 ;; *************** function _I2C1_CallbackReturnReset *****************
  4042 ;; Defined at:
  4043 ;;		line 614 in file "mcc_generated_files/i2c1_master.c"
  4044 ;; Parameters:    Size  Location     Type
  4045 ;;  funPtr          2   11[COMRAM] PTR void 
  4046 ;;		 -> I2C1_ReadDataBlock@bufferBlock(4), I2C1_Write2ByteRegister@data(2), I2C1_Write1ByteRegister@data(1), I2C1_Read2B
      +yteRegister@returnValue(2), 
  4047 ;;		 -> NULL(0), I2C1_Read1ByteRegister@returnValue(1), 
  4048 ;; Auto vars:     Size  Location     Type
  4049 ;;		None
  4050 ;; Return value:  Size  Location     Type
  4051 ;;                  1    wreg      enum E360
  4052 ;; Registers used:
  4053 ;;		wreg
  4054 ;; Tracked objects:
  4055 ;;		On entry : 0/0
  4056 ;;		On exit  : 0/0
  4057 ;;		Unchanged: 0/0
  4058 ;; Data sizes:     COMRAM   BANK5   BANK6   BANK7   BANK8   BANK9  BANK10  BANK11  BANK12  BANK13  BANK14  BANK15  BANK1
      +6  BANK17  BANK18  BANK19  BANK20  BANK21  BANK22  BANK23  BANK24  BANK25  BANK26  BANK27  BANK28  BANK29  BANK30  BANK3
      +1  BANK32  BANK33  BANK34  BANK35  BANK36
  4059 ;;      Params:         2       0       0       0       0       0       0       0       0       0       0       0       
      +0       0       0       0       0       0       0       0       0       0       0       0       0       0       0       
      +0       0       0       0       0       0
  4060 ;;      Locals:         0       0       0       0       0       0       0       0       0       0       0       0       
      +0       0       0       0       0       0       0       0       0       0       0       0       0       0       0       
      +0       0       0       0       0       0
  4061 ;;      Temps:          0       0       0       0       0       0       0       0       0       0       0       0       
      +0       0       0       0       0       0       0       0       0       0       0       0       0       0       0       
      +0       0       0       0       0       0
  4062 ;;      Totals:         2       0       0       0       0       0       0       0       0       0       0       0       
      +0       0       0       0       0       0       0       0       0       0       0       0       0       0       0       
      +0       0       0       0       0       0
  4063 ;;Total ram usage:        2 bytes
  4064 ;; Hardware stack levels used: 1
  4065 ;; This function calls:
  4066 ;;		Nothing
  4067 ;; This function is called by:
  4068 ;;		_I2C1_Open
  4069 ;;		_I2C1_DO_RX_EMPTY
  4070 ;;		_I2C1_DO_TX_EMPTY
  4071 ;;		_I2C1_DO_TX
  4072 ;;		_I2C1_DO_ADDRESS_NACK
  4073 ;;		_I2C1_DO_BUS_COLLISION
  4074 ;; This function uses a non-reentrant model
  4075 ;;
  4076                           
  4077                           	psect	text47
  4078   003214                     __ptext47:
  4079                           	callstack 0
  4080   003214                     _I2C1_CallbackReturnReset:
  4081                           	callstack 120
  4082   003214                     
  4083                           ;mcc_generated_files/i2c1_master.c: 614: i2c1_operations_t I2C1_CallbackReturnReset(void
      +                           *funPtr);mcc_generated_files/i2c1_master.c: 615: {;mcc_generated_files/i2c1_master.c: 6
      +                          16:     return I2C1_RESET_LINK;
  4084   003214  0E05               	movlw	5
  4085   003216  0012               	return		;funcret
  4086   003218                     __end_of_I2C1_CallbackReturnReset:
  4087                           	callstack 0
  4088                           
  4089 ;; *************** function _I2C1_CallbackReturnStop *****************
  4090 ;; Defined at:
  4091 ;;		line 609 in file "mcc_generated_files/i2c1_master.c"
  4092 ;; Parameters:    Size  Location     Type
  4093 ;;  funPtr          2   11[COMRAM] PTR void 
  4094 ;;		 -> I2C1_ReadDataBlock@bufferBlock(4), I2C1_Write2ByteRegister@data(2), I2C1_Write1ByteRegister@data(1), I2C1_Read2B
      +yteRegister@returnValue(2), 
  4095 ;;		 -> NULL(0), I2C1_Read1ByteRegister@returnValue(1), 
  4096 ;; Auto vars:     Size  Location     Type
  4097 ;;		None
  4098 ;; Return value:  Size  Location     Type
  4099 ;;                  1    wreg      enum E360
  4100 ;; Registers used:
  4101 ;;		wreg
  4102 ;; Tracked objects:
  4103 ;;		On entry : 0/0
  4104 ;;		On exit  : 0/0
  4105 ;;		Unchanged: 0/0
  4106 ;; Data sizes:     COMRAM   BANK5   BANK6   BANK7   BANK8   BANK9  BANK10  BANK11  BANK12  BANK13  BANK14  BANK15  BANK1
      +6  BANK17  BANK18  BANK19  BANK20  BANK21  BANK22  BANK23  BANK24  BANK25  BANK26  BANK27  BANK28  BANK29  BANK30  BANK3
      +1  BANK32  BANK33  BANK34  BANK35  BANK36
  4107 ;;      Params:         2       0       0       0       0       0       0       0       0       0       0       0       
      +0       0       0       0       0       0       0       0       0       0       0       0       0       0       0       
      +0       0       0       0       0       0
  4108 ;;      Locals:         0       0       0       0       0       0       0       0       0       0       0       0       
      +0       0       0       0       0       0       0       0       0       0       0       0       0       0       0       
      +0       0       0       0       0       0
  4109 ;;      Temps:          0       0       0       0       0       0       0       0       0       0       0       0       
      +0       0       0       0       0       0       0       0       0       0       0       0       0       0       0       
      +0       0       0       0       0       0
  4110 ;;      Totals:         2       0       0       0       0       0       0       0       0       0       0       0       
      +0       0       0       0       0       0       0       0       0       0       0       0       0       0       0       
      +0       0       0       0       0       0
  4111 ;;Total ram usage:        2 bytes
  4112 ;; Hardware stack levels used: 1
  4113 ;; This function calls:
  4114 ;;		Nothing
  4115 ;; This function is called by:
  4116 ;;		_I2C1_Open
  4117 ;;		_I2C1_SetCallback
  4118 ;;		_I2C1_DO_RX_EMPTY
  4119 ;;		_I2C1_DO_TX_EMPTY
  4120 ;;		_I2C1_DO_TX
  4121 ;;		_I2C1_DO_ADDRESS_NACK
  4122 ;;		_I2C1_DO_BUS_COLLISION
  4123 ;; This function uses a non-reentrant model
  4124 ;;
  4125                           
  4126                           	psect	text48
  4127   003218                     __ptext48:
  4128                           	callstack 0
  4129   003218                     _I2C1_CallbackReturnStop:
  4130                           	callstack 120
  4131   003218                     
  4132                           ;mcc_generated_files/i2c1_master.c: 609: i2c1_operations_t I2C1_CallbackReturnStop(void 
      +                          *funPtr);mcc_generated_files/i2c1_master.c: 610: {;mcc_generated_files/i2c1_master.c: 61
      +                          1:     return I2C1_STOP;
  4133   003218  0E01               	movlw	1
  4134   00321A  0012               	return		;funcret
  4135   00321C                     __end_of_I2C1_CallbackReturnStop:
  4136                           	callstack 0
  4137                           
  4138 ;; *************** function _rdBlkRegCompleteHandler *****************
  4139 ;; Defined at:
  4140 ;;		line 170 in file "mcc_generated_files/examples/i2c1_master_example.c"
  4141 ;; Parameters:    Size  Location     Type
  4142 ;;  ptr             2   11[COMRAM] PTR void 
  4143 ;;		 -> I2C1_ReadDataBlock@bufferBlock(4), I2C1_Write2ByteRegister@data(2), I2C1_Write1ByteRegister@data(1), I2C1_Read2B
      +yteRegister@returnValue(2), 
  4144 ;;		 -> NULL(0), I2C1_Read1ByteRegister@returnValue(1), 
  4145 ;; Auto vars:     Size  Location     Type
  4146 ;;		None
  4147 ;; Return value:  Size  Location     Type
  4148 ;;                  1    wreg      enum E360
  4149 ;; Registers used:
  4150 ;;		wreg, fsr2l, fsr2h, status,2, status,0, prodl, prodh, cstack
  4151 ;; Tracked objects:
  4152 ;;		On entry : 0/0
  4153 ;;		On exit  : 0/0
  4154 ;;		Unchanged: 0/0
  4155 ;; Data sizes:     COMRAM   BANK5   BANK6   BANK7   BANK8   BANK9  BANK10  BANK11  BANK12  BANK13  BANK14  BANK15  BANK1
      +6  BANK17  BANK18  BANK19  BANK20  BANK21  BANK22  BANK23  BANK24  BANK25  BANK26  BANK27  BANK28  BANK29  BANK30  BANK3
      +1  BANK32  BANK33  BANK34  BANK35  BANK36
  4156 ;;      Params:         2       0       0       0       0       0       0       0       0       0       0       0       
      +0       0       0       0       0       0       0       0       0       0       0       0       0       0       0       
      +0       0       0       0       0       0
  4157 ;;      Locals:         0       0       0       0       0       0       0       0       0       0       0       0       
      +0       0       0       0       0       0       0       0       0       0       0       0       0       0       0       
      +0       0       0       0       0       0
  4158 ;;      Temps:          0       0       0       0       0       0       0       0       0       0       0       0       
      +0       0       0       0       0       0       0       0       0       0       0       0       0       0       0       
      +0       0       0       0       0       0
  4159 ;;      Totals:         2       0       0       0       0       0       0       0       0       0       0       0       
      +0       0       0       0       0       0       0       0       0       0       0       0       0       0       0       
      +0       0       0       0       0       0
  4160 ;;Total ram usage:        2 bytes
  4161 ;; Hardware stack levels used: 1
  4162 ;; Hardware stack levels required when called: 2
  4163 ;; This function calls:
  4164 ;;		_I2C1_SetBuffer
  4165 ;;		_I2C1_SetDataCompleteCallback
  4166 ;; This function is called by:
  4167 ;;		_I2C1_ReadDataBlock
  4168 ;;		_I2C1_DO_RX_EMPTY
  4169 ;;		_I2C1_DO_TX_EMPTY
  4170 ;;		_I2C1_DO_TX
  4171 ;;		_I2C1_DO_ADDRESS_NACK
  4172 ;;		_I2C1_DO_BUS_COLLISION
  4173 ;; This function uses a non-reentrant model
  4174 ;;
  4175                           
  4176                           	psect	text49
  4177   002DD6                     __ptext49:
  4178                           	callstack 0
  4179   002DD6                     _rdBlkRegCompleteHandler:
  4180                           	callstack 118
  4181   002DD6                     
  4182                           ;mcc_generated_files/examples/i2c1_master_example.c: 170: static i2c1_operations_t rdBlk
      +                          RegCompleteHandler(void *ptr);mcc_generated_files/examples/i2c1_master_example.c: 171: {
      +                          ;mcc_generated_files/examples/i2c1_master_example.c: 172:     I2C1_SetBuffer(((i2c1_buff
      +                          er_t *)ptr)->data,((i2c1_buffer_t*)ptr)->len);
  4183   002DD6  EE20 F002          	lfsr	2,2
  4184   002DDA  5036               	movf	rdBlkRegCompleteHandler@ptr^(0+1280),w,c
  4185   002DDC  26D9               	addwf	fsr2l,f,c
  4186   002DDE  5037               	movf	(rdBlkRegCompleteHandler@ptr+1)^(0+1280),w,c
  4187   002DE0  22DA               	addwfc	fsr2h,f,c
  4188   002DE2  C4DE F52B          	movff	postinc2,I2C1_SetBuffer@buffer
  4189   002DE6  C4DD F52C          	movff	postdec2,I2C1_SetBuffer@buffer+1
  4190   002DEA  C536  F4D9         	movff	rdBlkRegCompleteHandler@ptr,fsr2l
  4191   002DEE  C537  F4DA         	movff	rdBlkRegCompleteHandler@ptr+1,fsr2h
  4192   002DF2  C4DE F52D          	movff	postinc2,I2C1_SetBuffer@bufferSize
  4193   002DF6  C4DD F52E          	movff	postdec2,I2C1_SetBuffer@bufferSize+1
  4194   002DFA  ECF5  F017         	call	_I2C1_SetBuffer	;wreg free
  4195   002DFE                     
  4196                           ;mcc_generated_files/examples/i2c1_master_example.c: 173:     I2C1_SetDataCompleteCallba
      +                          ck(((void*)0),((void*)0));
  4197   002DFE  0E00               	movlw	0
  4198   002E00  6E31               	movwf	I2C1_SetDataCompleteCallback@cb^(0+1280),c
  4199   002E02  0E00               	movlw	0
  4200   002E04  6E32               	movwf	(I2C1_SetDataCompleteCallback@cb+1)^(0+1280),c
  4201   002E06  0E00               	movlw	0
  4202   002E08  6E33               	movwf	(I2C1_SetDataCompleteCallback@cb+2)^(0+1280),c
  4203   002E0A  0E00               	movlw	0
  4204   002E0C  6E34               	movwf	I2C1_SetDataCompleteCallback@ptr^(0+1280),c
  4205   002E0E  0E00               	movlw	0
  4206   002E10  6E35               	movwf	(I2C1_SetDataCompleteCallback@ptr+1)^(0+1280),c
  4207   002E12  EC30  F018         	call	_I2C1_SetDataCompleteCallback	;wreg free
  4208   002E16                     
  4209                           ;mcc_generated_files/examples/i2c1_master_example.c: 174:     return I2C1_RESTART_READ;
  4210   002E16  0E02               	movlw	2
  4211   002E18  0012               	return		;funcret
  4212   002E1A                     __end_of_rdBlkRegCompleteHandler:
  4213                           	callstack 0
  4214                           
  4215 ;; *************** function _wr1RegCompleteHandler *****************
  4216 ;; Defined at:
  4217 ;;		line 156 in file "mcc_generated_files/examples/i2c1_master_example.c"
  4218 ;; Parameters:    Size  Location     Type
  4219 ;;  ptr             2   11[COMRAM] PTR void 
  4220 ;;		 -> I2C1_ReadDataBlock@bufferBlock(4), I2C1_Write2ByteRegister@data(2), I2C1_Write1ByteRegister@data(1), I2C1_Read2B
      +yteRegister@returnValue(2), 
  4221 ;;		 -> NULL(0), I2C1_Read1ByteRegister@returnValue(1), 
  4222 ;; Auto vars:     Size  Location     Type
  4223 ;;		None
  4224 ;; Return value:  Size  Location     Type
  4225 ;;                  1    wreg      enum E360
  4226 ;; Registers used:
  4227 ;;		wreg, fsr2l, fsr2h, status,2, status,0, prodl, prodh, cstack
  4228 ;; Tracked objects:
  4229 ;;		On entry : 0/0
  4230 ;;		On exit  : 0/0
  4231 ;;		Unchanged: 0/0
  4232 ;; Data sizes:     COMRAM   BANK5   BANK6   BANK7   BANK8   BANK9  BANK10  BANK11  BANK12  BANK13  BANK14  BANK15  BANK1
      +6  BANK17  BANK18  BANK19  BANK20  BANK21  BANK22  BANK23  BANK24  BANK25  BANK26  BANK27  BANK28  BANK29  BANK30  BANK3
      +1  BANK32  BANK33  BANK34  BANK35  BANK36
  4233 ;;      Params:         2       0       0       0       0       0       0       0       0       0       0       0       
      +0       0       0       0       0       0       0       0       0       0       0       0       0       0       0       
      +0       0       0       0       0       0
  4234 ;;      Locals:         0       0       0       0       0       0       0       0       0       0       0       0       
      +0       0       0       0       0       0       0       0       0       0       0       0       0       0       0       
      +0       0       0       0       0       0
  4235 ;;      Temps:          0       0       0       0       0       0       0       0       0       0       0       0       
      +0       0       0       0       0       0       0       0       0       0       0       0       0       0       0       
      +0       0       0       0       0       0
  4236 ;;      Totals:         2       0       0       0       0       0       0       0       0       0       0       0       
      +0       0       0       0       0       0       0       0       0       0       0       0       0       0       0       
      +0       0       0       0       0       0
  4237 ;;Total ram usage:        2 bytes
  4238 ;; Hardware stack levels used: 1
  4239 ;; Hardware stack levels required when called: 2
  4240 ;; This function calls:
  4241 ;;		_I2C1_SetBuffer
  4242 ;;		_I2C1_SetDataCompleteCallback
  4243 ;; This function is called by:
  4244 ;;		_I2C1_Write1ByteRegister
  4245 ;;		_I2C1_DO_RX_EMPTY
  4246 ;;		_I2C1_DO_TX_EMPTY
  4247 ;;		_I2C1_DO_TX
  4248 ;;		_I2C1_DO_ADDRESS_NACK
  4249 ;;		_I2C1_DO_BUS_COLLISION
  4250 ;; This function uses a non-reentrant model
  4251 ;;
  4252                           
  4253                           	psect	text50
  4254   002E1A                     __ptext50:
  4255                           	callstack 0
  4256   002E1A                     _wr1RegCompleteHandler:
  4257                           	callstack 118
  4258   002E1A                     
  4259                           ;mcc_generated_files/examples/i2c1_master_example.c: 156: static i2c1_operations_t wr1Re
      +                          gCompleteHandler(void *ptr);mcc_generated_files/examples/i2c1_master_example.c: 157: {;m
      +                          cc_generated_files/examples/i2c1_master_example.c: 158:     I2C1_SetBuffer(ptr,1);
  4260   002E1A  C536  F52B         	movff	wr1RegCompleteHandler@ptr,I2C1_SetBuffer@buffer
  4261   002E1E  C537  F52C         	movff	wr1RegCompleteHandler@ptr+1,I2C1_SetBuffer@buffer+1
  4262   002E22  0E00               	movlw	0
  4263   002E24  6E2E               	movwf	(I2C1_SetBuffer@bufferSize+1)^(0+1280),c
  4264   002E26  0E01               	movlw	1
  4265   002E28  6E2D               	movwf	I2C1_SetBuffer@bufferSize^(0+1280),c
  4266   002E2A  ECF5  F017         	call	_I2C1_SetBuffer	;wreg free
  4267   002E2E                     
  4268                           ;mcc_generated_files/examples/i2c1_master_example.c: 159:     I2C1_SetDataCompleteCallba
      +                          ck(((void*)0),((void*)0));
  4269   002E2E  0E00               	movlw	0
  4270   002E30  6E31               	movwf	I2C1_SetDataCompleteCallback@cb^(0+1280),c
  4271   002E32  0E00               	movlw	0
  4272   002E34  6E32               	movwf	(I2C1_SetDataCompleteCallback@cb+1)^(0+1280),c
  4273   002E36  0E00               	movlw	0
  4274   002E38  6E33               	movwf	(I2C1_SetDataCompleteCallback@cb+2)^(0+1280),c
  4275   002E3A  0E00               	movlw	0
  4276   002E3C  6E34               	movwf	I2C1_SetDataCompleteCallback@ptr^(0+1280),c
  4277   002E3E  0E00               	movlw	0
  4278   002E40  6E35               	movwf	(I2C1_SetDataCompleteCallback@ptr+1)^(0+1280),c
  4279   002E42  EC30  F018         	call	_I2C1_SetDataCompleteCallback	;wreg free
  4280   002E46                     
  4281                           ;mcc_generated_files/examples/i2c1_master_example.c: 160:     return I2C1_CONTINUE;
  4282   002E46  0E04               	movlw	4
  4283   002E48  0012               	return		;funcret
  4284   002E4A                     __end_of_wr1RegCompleteHandler:
  4285                           	callstack 0
  4286                           
  4287 ;; *************** function _rd2RegCompleteHandler *****************
  4288 ;; Defined at:
  4289 ;;		line 149 in file "mcc_generated_files/examples/i2c1_master_example.c"
  4290 ;; Parameters:    Size  Location     Type
  4291 ;;  ptr             2   11[COMRAM] PTR void 
  4292 ;;		 -> I2C1_ReadDataBlock@bufferBlock(4), I2C1_Write2ByteRegister@data(2), I2C1_Write1ByteRegister@data(1), I2C1_Read2B
      +yteRegister@returnValue(2), 
  4293 ;;		 -> NULL(0), I2C1_Read1ByteRegister@returnValue(1), 
  4294 ;; Auto vars:     Size  Location     Type
  4295 ;;		None
  4296 ;; Return value:  Size  Location     Type
  4297 ;;                  1    wreg      enum E360
  4298 ;; Registers used:
  4299 ;;		wreg, fsr2l, fsr2h, status,2, status,0, prodl, prodh, cstack
  4300 ;; Tracked objects:
  4301 ;;		On entry : 0/0
  4302 ;;		On exit  : 0/0
  4303 ;;		Unchanged: 0/0
  4304 ;; Data sizes:     COMRAM   BANK5   BANK6   BANK7   BANK8   BANK9  BANK10  BANK11  BANK12  BANK13  BANK14  BANK15  BANK1
      +6  BANK17  BANK18  BANK19  BANK20  BANK21  BANK22  BANK23  BANK24  BANK25  BANK26  BANK27  BANK28  BANK29  BANK30  BANK3
      +1  BANK32  BANK33  BANK34  BANK35  BANK36
  4305 ;;      Params:         2       0       0       0       0       0       0       0       0       0       0       0       
      +0       0       0       0       0       0       0       0       0       0       0       0       0       0       0       
      +0       0       0       0       0       0
  4306 ;;      Locals:         0       0       0       0       0       0       0       0       0       0       0       0       
      +0       0       0       0       0       0       0       0       0       0       0       0       0       0       0       
      +0       0       0       0       0       0
  4307 ;;      Temps:          0       0       0       0       0       0       0       0       0       0       0       0       
      +0       0       0       0       0       0       0       0       0       0       0       0       0       0       0       
      +0       0       0       0       0       0
  4308 ;;      Totals:         2       0       0       0       0       0       0       0       0       0       0       0       
      +0       0       0       0       0       0       0       0       0       0       0       0       0       0       0       
      +0       0       0       0       0       0
  4309 ;;Total ram usage:        2 bytes
  4310 ;; Hardware stack levels used: 1
  4311 ;; Hardware stack levels required when called: 2
  4312 ;; This function calls:
  4313 ;;		_I2C1_SetBuffer
  4314 ;;		_I2C1_SetDataCompleteCallback
  4315 ;; This function is called by:
  4316 ;;		_I2C1_Read2ByteRegister
  4317 ;;		_I2C1_DO_RX_EMPTY
  4318 ;;		_I2C1_DO_TX_EMPTY
  4319 ;;		_I2C1_DO_TX
  4320 ;;		_I2C1_DO_ADDRESS_NACK
  4321 ;;		_I2C1_DO_BUS_COLLISION
  4322 ;; This function uses a non-reentrant model
  4323 ;;
  4324                           
  4325                           	psect	text51
  4326   002E4A                     __ptext51:
  4327                           	callstack 0
  4328   002E4A                     _rd2RegCompleteHandler:
  4329                           	callstack 118
  4330   002E4A                     
  4331                           ;mcc_generated_files/examples/i2c1_master_example.c: 149: static i2c1_operations_t rd2Re
      +                          gCompleteHandler(void *ptr);mcc_generated_files/examples/i2c1_master_example.c: 150: {;m
      +                          cc_generated_files/examples/i2c1_master_example.c: 151:     I2C1_SetBuffer(ptr,2);
  4332   002E4A  C536  F52B         	movff	rd2RegCompleteHandler@ptr,I2C1_SetBuffer@buffer
  4333   002E4E  C537  F52C         	movff	rd2RegCompleteHandler@ptr+1,I2C1_SetBuffer@buffer+1
  4334   002E52  0E00               	movlw	0
  4335   002E54  6E2E               	movwf	(I2C1_SetBuffer@bufferSize+1)^(0+1280),c
  4336   002E56  0E02               	movlw	2
  4337   002E58  6E2D               	movwf	I2C1_SetBuffer@bufferSize^(0+1280),c
  4338   002E5A  ECF5  F017         	call	_I2C1_SetBuffer	;wreg free
  4339   002E5E                     
  4340                           ;mcc_generated_files/examples/i2c1_master_example.c: 152:     I2C1_SetDataCompleteCallba
      +                          ck(((void*)0),((void*)0));
  4341   002E5E  0E00               	movlw	0
  4342   002E60  6E31               	movwf	I2C1_SetDataCompleteCallback@cb^(0+1280),c
  4343   002E62  0E00               	movlw	0
  4344   002E64  6E32               	movwf	(I2C1_SetDataCompleteCallback@cb+1)^(0+1280),c
  4345   002E66  0E00               	movlw	0
  4346   002E68  6E33               	movwf	(I2C1_SetDataCompleteCallback@cb+2)^(0+1280),c
  4347   002E6A  0E00               	movlw	0
  4348   002E6C  6E34               	movwf	I2C1_SetDataCompleteCallback@ptr^(0+1280),c
  4349   002E6E  0E00               	movlw	0
  4350   002E70  6E35               	movwf	(I2C1_SetDataCompleteCallback@ptr+1)^(0+1280),c
  4351   002E72  EC30  F018         	call	_I2C1_SetDataCompleteCallback	;wreg free
  4352   002E76                     
  4353                           ;mcc_generated_files/examples/i2c1_master_example.c: 153:     return I2C1_RESTART_READ;
  4354   002E76  0E02               	movlw	2
  4355   002E78  0012               	return		;funcret
  4356   002E7A                     __end_of_rd2RegCompleteHandler:
  4357                           	callstack 0
  4358                           
  4359 ;; *************** function _rd1RegCompleteHandler *****************
  4360 ;; Defined at:
  4361 ;;		line 142 in file "mcc_generated_files/examples/i2c1_master_example.c"
  4362 ;; Parameters:    Size  Location     Type
  4363 ;;  ptr             2   11[COMRAM] PTR void 
  4364 ;;		 -> I2C1_ReadDataBlock@bufferBlock(4), I2C1_Write2ByteRegister@data(2), I2C1_Write1ByteRegister@data(1), I2C1_Read2B
      +yteRegister@returnValue(2), 
  4365 ;;		 -> NULL(0), I2C1_Read1ByteRegister@returnValue(1), 
  4366 ;; Auto vars:     Size  Location     Type
  4367 ;;		None
  4368 ;; Return value:  Size  Location     Type
  4369 ;;                  1    wreg      enum E360
  4370 ;; Registers used:
  4371 ;;		wreg, fsr2l, fsr2h, status,2, status,0, prodl, prodh, cstack
  4372 ;; Tracked objects:
  4373 ;;		On entry : 0/0
  4374 ;;		On exit  : 0/0
  4375 ;;		Unchanged: 0/0
  4376 ;; Data sizes:     COMRAM   BANK5   BANK6   BANK7   BANK8   BANK9  BANK10  BANK11  BANK12  BANK13  BANK14  BANK15  BANK1
      +6  BANK17  BANK18  BANK19  BANK20  BANK21  BANK22  BANK23  BANK24  BANK25  BANK26  BANK27  BANK28  BANK29  BANK30  BANK3
      +1  BANK32  BANK33  BANK34  BANK35  BANK36
  4377 ;;      Params:         2       0       0       0       0       0       0       0       0       0       0       0       
      +0       0       0       0       0       0       0       0       0       0       0       0       0       0       0       
      +0       0       0       0       0       0
  4378 ;;      Locals:         0       0       0       0       0       0       0       0       0       0       0       0       
      +0       0       0       0       0       0       0       0       0       0       0       0       0       0       0       
      +0       0       0       0       0       0
  4379 ;;      Temps:          0       0       0       0       0       0       0       0       0       0       0       0       
      +0       0       0       0       0       0       0       0       0       0       0       0       0       0       0       
      +0       0       0       0       0       0
  4380 ;;      Totals:         2       0       0       0       0       0       0       0       0       0       0       0       
      +0       0       0       0       0       0       0       0       0       0       0       0       0       0       0       
      +0       0       0       0       0       0
  4381 ;;Total ram usage:        2 bytes
  4382 ;; Hardware stack levels used: 1
  4383 ;; Hardware stack levels required when called: 2
  4384 ;; This function calls:
  4385 ;;		_I2C1_SetBuffer
  4386 ;;		_I2C1_SetDataCompleteCallback
  4387 ;; This function is called by:
  4388 ;;		_I2C1_Read1ByteRegister
  4389 ;;		_I2C1_DO_RX_EMPTY
  4390 ;;		_I2C1_DO_TX_EMPTY
  4391 ;;		_I2C1_DO_TX
  4392 ;;		_I2C1_DO_ADDRESS_NACK
  4393 ;;		_I2C1_DO_BUS_COLLISION
  4394 ;; This function uses a non-reentrant model
  4395 ;;
  4396                           
  4397                           	psect	text52
  4398   002E7A                     __ptext52:
  4399                           	callstack 0
  4400   002E7A                     _rd1RegCompleteHandler:
  4401                           	callstack 118
  4402   002E7A                     
  4403                           ;mcc_generated_files/examples/i2c1_master_example.c: 142: static i2c1_operations_t rd1Re
      +                          gCompleteHandler(void *ptr);mcc_generated_files/examples/i2c1_master_example.c: 143: {;m
      +                          cc_generated_files/examples/i2c1_master_example.c: 144:     I2C1_SetBuffer(ptr,1);
  4404   002E7A  C536  F52B         	movff	rd1RegCompleteHandler@ptr,I2C1_SetBuffer@buffer
  4405   002E7E  C537  F52C         	movff	rd1RegCompleteHandler@ptr+1,I2C1_SetBuffer@buffer+1
  4406   002E82  0E00               	movlw	0
  4407   002E84  6E2E               	movwf	(I2C1_SetBuffer@bufferSize+1)^(0+1280),c
  4408   002E86  0E01               	movlw	1
  4409   002E88  6E2D               	movwf	I2C1_SetBuffer@bufferSize^(0+1280),c
  4410   002E8A  ECF5  F017         	call	_I2C1_SetBuffer	;wreg free
  4411   002E8E                     
  4412                           ;mcc_generated_files/examples/i2c1_master_example.c: 145:     I2C1_SetDataCompleteCallba
      +                          ck(((void*)0),((void*)0));
  4413   002E8E  0E00               	movlw	0
  4414   002E90  6E31               	movwf	I2C1_SetDataCompleteCallback@cb^(0+1280),c
  4415   002E92  0E00               	movlw	0
  4416   002E94  6E32               	movwf	(I2C1_SetDataCompleteCallback@cb+1)^(0+1280),c
  4417   002E96  0E00               	movlw	0
  4418   002E98  6E33               	movwf	(I2C1_SetDataCompleteCallback@cb+2)^(0+1280),c
  4419   002E9A  0E00               	movlw	0
  4420   002E9C  6E34               	movwf	I2C1_SetDataCompleteCallback@ptr^(0+1280),c
  4421   002E9E  0E00               	movlw	0
  4422   002EA0  6E35               	movwf	(I2C1_SetDataCompleteCallback@ptr+1)^(0+1280),c
  4423   002EA2  EC30  F018         	call	_I2C1_SetDataCompleteCallback	;wreg free
  4424   002EA6                     
  4425                           ;mcc_generated_files/examples/i2c1_master_example.c: 146:     return I2C1_RESTART_READ;
  4426   002EA6  0E02               	movlw	2
  4427   002EA8  0012               	return		;funcret
  4428   002EAA                     __end_of_rd1RegCompleteHandler:
  4429                           	callstack 0
  4430                           
  4431 ;; *************** function _wr2RegCompleteHandler *****************
  4432 ;; Defined at:
  4433 ;;		line 163 in file "mcc_generated_files/examples/i2c1_master_example.c"
  4434 ;; Parameters:    Size  Location     Type
  4435 ;;  ptr             2   11[COMRAM] PTR void 
  4436 ;;		 -> I2C1_ReadDataBlock@bufferBlock(4), I2C1_Write2ByteRegister@data(2), I2C1_Write1ByteRegister@data(1), I2C1_Read2B
      +yteRegister@returnValue(2), 
  4437 ;;		 -> NULL(0), I2C1_Read1ByteRegister@returnValue(1), 
  4438 ;; Auto vars:     Size  Location     Type
  4439 ;;		None
  4440 ;; Return value:  Size  Location     Type
  4441 ;;                  1    wreg      enum E360
  4442 ;; Registers used:
  4443 ;;		wreg, fsr2l, fsr2h, status,2, status,0, prodl, prodh, cstack
  4444 ;; Tracked objects:
  4445 ;;		On entry : 0/0
  4446 ;;		On exit  : 0/0
  4447 ;;		Unchanged: 0/0
  4448 ;; Data sizes:     COMRAM   BANK5   BANK6   BANK7   BANK8   BANK9  BANK10  BANK11  BANK12  BANK13  BANK14  BANK15  BANK1
      +6  BANK17  BANK18  BANK19  BANK20  BANK21  BANK22  BANK23  BANK24  BANK25  BANK26  BANK27  BANK28  BANK29  BANK30  BANK3
      +1  BANK32  BANK33  BANK34  BANK35  BANK36
  4449 ;;      Params:         2       0       0       0       0       0       0       0       0       0       0       0       
      +0       0       0       0       0       0       0       0       0       0       0       0       0       0       0       
      +0       0       0       0       0       0
  4450 ;;      Locals:         0       0       0       0       0       0       0       0       0       0       0       0       
      +0       0       0       0       0       0       0       0       0       0       0       0       0       0       0       
      +0       0       0       0       0       0
  4451 ;;      Temps:          0       0       0       0       0       0       0       0       0       0       0       0       
      +0       0       0       0       0       0       0       0       0       0       0       0       0       0       0       
      +0       0       0       0       0       0
  4452 ;;      Totals:         2       0       0       0       0       0       0       0       0       0       0       0       
      +0       0       0       0       0       0       0       0       0       0       0       0       0       0       0       
      +0       0       0       0       0       0
  4453 ;;Total ram usage:        2 bytes
  4454 ;; Hardware stack levels used: 1
  4455 ;; Hardware stack levels required when called: 2
  4456 ;; This function calls:
  4457 ;;		_I2C1_SetBuffer
  4458 ;;		_I2C1_SetDataCompleteCallback
  4459 ;; This function is called by:
  4460 ;;		_I2C1_Write2ByteRegister
  4461 ;;		_I2C1_DO_RX_EMPTY
  4462 ;;		_I2C1_DO_TX_EMPTY
  4463 ;;		_I2C1_DO_TX
  4464 ;;		_I2C1_DO_ADDRESS_NACK
  4465 ;;		_I2C1_DO_BUS_COLLISION
  4466 ;; This function uses a non-reentrant model
  4467 ;;
  4468                           
  4469                           	psect	text53
  4470   002EAA                     __ptext53:
  4471                           	callstack 0
  4472   002EAA                     _wr2RegCompleteHandler:
  4473                           	callstack 118
  4474   002EAA                     
  4475                           ;mcc_generated_files/examples/i2c1_master_example.c: 163: static i2c1_operations_t wr2Re
      +                          gCompleteHandler(void *ptr);mcc_generated_files/examples/i2c1_master_example.c: 164: {;m
      +                          cc_generated_files/examples/i2c1_master_example.c: 165:     I2C1_SetBuffer(ptr,2);
  4476   002EAA  C536  F52B         	movff	wr2RegCompleteHandler@ptr,I2C1_SetBuffer@buffer
  4477   002EAE  C537  F52C         	movff	wr2RegCompleteHandler@ptr+1,I2C1_SetBuffer@buffer+1
  4478   002EB2  0E00               	movlw	0
  4479   002EB4  6E2E               	movwf	(I2C1_SetBuffer@bufferSize+1)^(0+1280),c
  4480   002EB6  0E02               	movlw	2
  4481   002EB8  6E2D               	movwf	I2C1_SetBuffer@bufferSize^(0+1280),c
  4482   002EBA  ECF5  F017         	call	_I2C1_SetBuffer	;wreg free
  4483   002EBE                     
  4484                           ;mcc_generated_files/examples/i2c1_master_example.c: 166:     I2C1_SetDataCompleteCallba
      +                          ck(((void*)0),((void*)0));
  4485   002EBE  0E00               	movlw	0
  4486   002EC0  6E31               	movwf	I2C1_SetDataCompleteCallback@cb^(0+1280),c
  4487   002EC2  0E00               	movlw	0
  4488   002EC4  6E32               	movwf	(I2C1_SetDataCompleteCallback@cb+1)^(0+1280),c
  4489   002EC6  0E00               	movlw	0
  4490   002EC8  6E33               	movwf	(I2C1_SetDataCompleteCallback@cb+2)^(0+1280),c
  4491   002ECA  0E00               	movlw	0
  4492   002ECC  6E34               	movwf	I2C1_SetDataCompleteCallback@ptr^(0+1280),c
  4493   002ECE  0E00               	movlw	0
  4494   002ED0  6E35               	movwf	(I2C1_SetDataCompleteCallback@ptr+1)^(0+1280),c
  4495   002ED2  EC30  F018         	call	_I2C1_SetDataCompleteCallback	;wreg free
  4496   002ED6                     
  4497                           ;mcc_generated_files/examples/i2c1_master_example.c: 167:     return I2C1_CONTINUE;
  4498   002ED6  0E04               	movlw	4
  4499   002ED8  0012               	return		;funcret
  4500   002EDA                     __end_of_wr2RegCompleteHandler:
  4501                           	callstack 0
  4502                           
  4503 ;; *************** function _I2C1_SetDataCompleteCallback *****************
  4504 ;; Defined at:
  4505 ;;		line 303 in file "mcc_generated_files/i2c1_master.c"
  4506 ;; Parameters:    Size  Location     Type
  4507 ;;  cb              3    6[COMRAM] PTR FTN(PTR void ,)enum 
  4508 ;;		 -> Absolute function(1), rdBlkRegCompleteHandler(1), wr2RegCompleteHandler(1), wr1RegCompleteHandler(1), 
  4509 ;;		 -> rd2RegCompleteHandler(1), rd1RegCompleteHandler(1), 
  4510 ;;  ptr             2    9[COMRAM] PTR void 
  4511 ;;		 -> I2C1_ReadDataBlock@bufferBlock(4), I2C1_Write2ByteRegister@data(2), I2C1_Write1ByteRegister@data(1), I2C1_Read2B
      +yteRegister@returnValue(2), 
  4512 ;;		 -> NULL(0), I2C1_Read1ByteRegister@returnValue(1), 
  4513 ;; Auto vars:     Size  Location     Type
  4514 ;;		None
  4515 ;; Return value:  Size  Location     Type
  4516 ;;                  1    wreg      void 
  4517 ;; Registers used:
  4518 ;;		wreg, fsr2l, fsr2h, status,2, status,0, prodl, prodh, cstack
  4519 ;; Tracked objects:
  4520 ;;		On entry : 0/0
  4521 ;;		On exit  : 0/0
  4522 ;;		Unchanged: 0/0
  4523 ;; Data sizes:     COMRAM   BANK5   BANK6   BANK7   BANK8   BANK9  BANK10  BANK11  BANK12  BANK13  BANK14  BANK15  BANK1
      +6  BANK17  BANK18  BANK19  BANK20  BANK21  BANK22  BANK23  BANK24  BANK25  BANK26  BANK27  BANK28  BANK29  BANK30  BANK3
      +1  BANK32  BANK33  BANK34  BANK35  BANK36
  4524 ;;      Params:         5       0       0       0       0       0       0       0       0       0       0       0       
      +0       0       0       0       0       0       0       0       0       0       0       0       0       0       0       
      +0       0       0       0       0       0
  4525 ;;      Locals:         0       0       0       0       0       0       0       0       0       0       0       0       
      +0       0       0       0       0       0       0       0       0       0       0       0       0       0       0       
      +0       0       0       0       0       0
  4526 ;;      Temps:          0       0       0       0       0       0       0       0       0       0       0       0       
      +0       0       0       0       0       0       0       0       0       0       0       0       0       0       0       
      +0       0       0       0       0       0
  4527 ;;      Totals:         5       0       0       0       0       0       0       0       0       0       0       0       
      +0       0       0       0       0       0       0       0       0       0       0       0       0       0       0       
      +0       0       0       0       0       0
  4528 ;;Total ram usage:        5 bytes
  4529 ;; Hardware stack levels used: 1
  4530 ;; Hardware stack levels required when called: 1
  4531 ;; This function calls:
  4532 ;;		_I2C1_SetCallback
  4533 ;; This function is called by:
  4534 ;;		_rd1RegCompleteHandler
  4535 ;;		_rd2RegCompleteHandler
  4536 ;;		_wr1RegCompleteHandler
  4537 ;;		_wr2RegCompleteHandler
  4538 ;;		_rdBlkRegCompleteHandler
  4539 ;;		_I2C1_Read1ByteRegister
  4540 ;;		_I2C1_Read2ByteRegister
  4541 ;;		_I2C1_Write1ByteRegister
  4542 ;;		_I2C1_Write2ByteRegister
  4543 ;;		_I2C1_ReadDataBlock
  4544 ;; This function uses a non-reentrant model
  4545 ;;
  4546                           
  4547                           	psect	text54
  4548   003060                     __ptext54:
  4549                           	callstack 0
  4550   003060                     _I2C1_SetDataCompleteCallback:
  4551                           	callstack 118
  4552   003060                     
  4553                           ;mcc_generated_files/i2c1_master.c: 303: void I2C1_SetDataCompleteCallback(i2c1_callback
      +                          _t cb, void *ptr);mcc_generated_files/i2c1_master.c: 304: {;mcc_generated_files/i2c1_mas
      +                          ter.c: 305:     I2C1_SetCallback(I2C1_DATA_COMPLETE, cb, ptr);
  4554   003060  C531  F52B         	movff	I2C1_SetDataCompleteCallback@cb,I2C1_SetCallback@cb
  4555   003064  C532  F52C         	movff	I2C1_SetDataCompleteCallback@cb+1,I2C1_SetCallback@cb+1
  4556   003068  C533  F52D         	movff	I2C1_SetDataCompleteCallback@cb+2,I2C1_SetCallback@cb+2
  4557   00306C  C534  F52E         	movff	I2C1_SetDataCompleteCallback@ptr,I2C1_SetCallback@ptr
  4558   003070  C535  F52F         	movff	I2C1_SetDataCompleteCallback@ptr+1,I2C1_SetCallback@ptr+1
  4559   003074  0E00               	movlw	0
  4560   003076  ECED  F014         	call	_I2C1_SetCallback
  4561   00307A  0012               	return		;funcret
  4562   00307C                     __end_of_I2C1_SetDataCompleteCallback:
  4563                           	callstack 0
  4564                           
  4565 ;; *************** function _I2C1_SetCallback *****************
  4566 ;; Defined at:
  4567 ;;		line 328 in file "mcc_generated_files/i2c1_master.c"
  4568 ;; Parameters:    Size  Location     Type
  4569 ;;  idx             1    wreg     enum E17100
  4570 ;;  cb              3    0[COMRAM] PTR FTN(PTR void ,)enum 
  4571 ;;		 -> Absolute function(1), rdBlkRegCompleteHandler(1), wr2RegCompleteHandler(1), wr1RegCompleteHandler(1), 
  4572 ;;		 -> rd2RegCompleteHandler(1), rd1RegCompleteHandler(1), 
  4573 ;;  ptr             2    3[COMRAM] PTR void 
  4574 ;;		 -> I2C1_ReadDataBlock@bufferBlock(4), I2C1_Write2ByteRegister@data(2), I2C1_Write1ByteRegister@data(1), I2C1_Read2B
      +yteRegister@returnValue(2), 
  4575 ;;		 -> NULL(0), I2C1_Read1ByteRegister@returnValue(1), 
  4576 ;; Auto vars:     Size  Location     Type
  4577 ;;  idx             1    5[COMRAM] enum E17100
  4578 ;; Return value:  Size  Location     Type
  4579 ;;                  1    wreg      void 
  4580 ;; Registers used:
  4581 ;;		wreg, fsr2l, fsr2h, status,2, status,0, prodl, prodh
  4582 ;; Tracked objects:
  4583 ;;		On entry : 0/0
  4584 ;;		On exit  : 0/0
  4585 ;;		Unchanged: 0/0
  4586 ;; Data sizes:     COMRAM   BANK5   BANK6   BANK7   BANK8   BANK9  BANK10  BANK11  BANK12  BANK13  BANK14  BANK15  BANK1
      +6  BANK17  BANK18  BANK19  BANK20  BANK21  BANK22  BANK23  BANK24  BANK25  BANK26  BANK27  BANK28  BANK29  BANK30  BANK3
      +1  BANK32  BANK33  BANK34  BANK35  BANK36
  4587 ;;      Params:         5       0       0       0       0       0       0       0       0       0       0       0       
      +0       0       0       0       0       0       0       0       0       0       0       0       0       0       0       
      +0       0       0       0       0       0
  4588 ;;      Locals:         1       0       0       0       0       0       0       0       0       0       0       0       
      +0       0       0       0       0       0       0       0       0       0       0       0       0       0       0       
      +0       0       0       0       0       0
  4589 ;;      Temps:          0       0       0       0       0       0       0       0       0       0       0       0       
      +0       0       0       0       0       0       0       0       0       0       0       0       0       0       0       
      +0       0       0       0       0       0
  4590 ;;      Totals:         6       0       0       0       0       0       0       0       0       0       0       0       
      +0       0       0       0       0       0       0       0       0       0       0       0       0       0       0       
      +0       0       0       0       0       0
  4591 ;;Total ram usage:        6 bytes
  4592 ;; Hardware stack levels used: 1
  4593 ;; This function calls:
  4594 ;;		Nothing
  4595 ;; This function is called by:
  4596 ;;		_I2C1_SetDataCompleteCallback
  4597 ;;		_I2C1_SetAddressNackCallback
  4598 ;;		_I2C1_SetWriteCollisionCallback
  4599 ;;		_I2C1_SetDataNackCallback
  4600 ;;		_I2C1_SetTimeoutCallback
  4601 ;; This function uses a non-reentrant model
  4602 ;;
  4603                           
  4604                           	psect	text55
  4605   0029DA                     __ptext55:
  4606                           	callstack 0
  4607   0029DA                     _I2C1_SetCallback:
  4608                           	callstack 124
  4609                           
  4610                           ;incstack = 0
  4611                           ;I2C1_SetCallback@idx stored from wreg
  4612   0029DA  6E30               	movwf	I2C1_SetCallback@idx^(0+1280),c
  4613   0029DC                     
  4614                           ;mcc_generated_files/i2c1_master.c: 328: static void I2C1_SetCallback(i2c1_callbackIndex
      +                          _t idx, i2c1_callback_t cb, void *ptr);mcc_generated_files/i2c1_master.c: 329: {;mcc_gen
      +                          erated_files/i2c1_master.c: 330:     if(cb)
  4615   0029DC  502B               	movf	I2C1_SetCallback@cb^(0+1280),w,c
  4616   0029DE  102C               	iorwf	(I2C1_SetCallback@cb+1)^(0+1280),w,c
  4617   0029E0  102D               	iorwf	(I2C1_SetCallback@cb+2)^(0+1280),w,c
  4618   0029E2  B4D8               	btfsc	status,2,c
  4619   0029E4  EFF6  F014         	goto	u601
  4620   0029E8  EFF8  F014         	goto	u600
  4621   0029EC                     u601:
  4622   0029EC  EF14  F015         	goto	l2233
  4623   0029F0                     u600:
  4624   0029F0                     
  4625                           ;mcc_generated_files/i2c1_master.c: 331:     {;mcc_generated_files/i2c1_master.c: 332:  
      +                                 I2C1_Status.callbackTable[idx] = cb;
  4626   0029F0  5030               	movf	I2C1_SetCallback@idx^(0+1280),w,c
  4627   0029F2  0D03               	mullw	3
  4628   0029F4  0E01               	movlw	low _I2C1_Status
  4629   0029F6  24F3               	addwf	243,w,c
  4630   0029F8  6ED9               	movwf	fsr2l,c
  4631   0029FA  0E05               	movlw	high _I2C1_Status
  4632   0029FC  20F4               	addwfc	prodh,w,c
  4633   0029FE  6EDA               	movwf	fsr2h,c
  4634   002A00  C52B  F4DE         	movff	I2C1_SetCallback@cb,postinc2
  4635   002A04  C52C  F4DE         	movff	I2C1_SetCallback@cb+1,postinc2
  4636   002A08  C52D  F4DE         	movff	I2C1_SetCallback@cb+2,postinc2
  4637                           
  4638                           ;mcc_generated_files/i2c1_master.c: 333:         I2C1_Status.callbackPayload[idx] = ptr;
  4639   002A0C  5030               	movf	I2C1_SetCallback@idx^(0+1280),w,c
  4640   002A0E  0D02               	mullw	2
  4641   002A10  0E13               	movlw	low (_I2C1_Status+18)
  4642   002A12  24F3               	addwf	243,w,c
  4643   002A14  6ED9               	movwf	fsr2l,c
  4644   002A16  0E05               	movlw	high (_I2C1_Status+18)
  4645   002A18  20F4               	addwfc	prodh,w,c
  4646   002A1A  6EDA               	movwf	fsr2h,c
  4647   002A1C  C52E  F4DE         	movff	I2C1_SetCallback@ptr,postinc2
  4648   002A20  C52F  F4DD         	movff	I2C1_SetCallback@ptr+1,postdec2
  4649                           
  4650                           ;mcc_generated_files/i2c1_master.c: 334:     }
  4651   002A24  EF2E  F015         	goto	l343
  4652   002A28                     l2233:
  4653                           
  4654                           ;mcc_generated_files/i2c1_master.c: 336:     {;mcc_generated_files/i2c1_master.c: 337:  
      +                                 I2C1_Status.callbackTable[idx] = I2C1_CallbackReturnStop;
  4655   002A28  5030               	movf	I2C1_SetCallback@idx^(0+1280),w,c
  4656   002A2A  0D03               	mullw	3
  4657   002A2C  0E01               	movlw	low _I2C1_Status
  4658   002A2E  24F3               	addwf	243,w,c
  4659   002A30  6ED9               	movwf	fsr2l,c
  4660   002A32  0E05               	movlw	high _I2C1_Status
  4661   002A34  20F4               	addwfc	prodh,w,c
  4662   002A36  6EDA               	movwf	fsr2h,c
  4663   002A38  0E18               	movlw	low _I2C1_CallbackReturnStop
  4664   002A3A  6EDE               	movwf	postinc2,c
  4665   002A3C  0E32               	movlw	high _I2C1_CallbackReturnStop
  4666   002A3E  6EDE               	movwf	postinc2,c
  4667   002A40  0E00               	movlw	low (_I2C1_CallbackReturnStop shr (0+16))
  4668   002A42  6EDE               	movwf	postinc2,c
  4669                           
  4670                           ;mcc_generated_files/i2c1_master.c: 338:         I2C1_Status.callbackPayload[idx] = ((vo
      +                          id*)0);
  4671   002A44  5030               	movf	I2C1_SetCallback@idx^(0+1280),w,c
  4672   002A46  0D02               	mullw	2
  4673   002A48  0E13               	movlw	low (_I2C1_Status+18)
  4674   002A4A  24F3               	addwf	243,w,c
  4675   002A4C  6ED9               	movwf	fsr2l,c
  4676   002A4E  0E05               	movlw	high (_I2C1_Status+18)
  4677   002A50  20F4               	addwfc	prodh,w,c
  4678   002A52  6EDA               	movwf	fsr2h,c
  4679   002A54  0E00               	movlw	0
  4680   002A56  6EDE               	movwf	postinc2,c
  4681   002A58  0E00               	movlw	0
  4682   002A5A  6EDD               	movwf	postdec2,c
  4683   002A5C                     l343:
  4684   002A5C  0012               	return		;funcret
  4685   002A5E                     __end_of_I2C1_SetCallback:
  4686                           	callstack 0
  4687                           
  4688 ;; *************** function _I2C1_SetBuffer *****************
  4689 ;; Defined at:
  4690 ;;		line 293 in file "mcc_generated_files/i2c1_master.c"
  4691 ;; Parameters:    Size  Location     Type
  4692 ;;  buffer          2    0[COMRAM] PTR void 
  4693 ;;		 -> I2C1_Read1ByteRegister@returnValue.data(3), I2C1_Read2ByteRegister@returnValue.data(3), I2C1_Write1ByteRegister@
      +data.data(3), I2C1_Write2ByteRegister@data.data(3), 
  4694 ;;		 -> RAM(9471), I2C1_ReadDataBlock@reg(1), I2C1_ReadDataBlock@bufferBlock(4), bufferBlock.data(3), 
  4695 ;;		 -> I2C1_Write2ByteRegister@reg(1), I2C1_Write2ByteRegister@data(2), I2C1_Write1ByteRegister@reg(1), I2C1_Write1Byte
      +Register@data(1), 
  4696 ;;		 -> I2C1_Read2ByteRegister@reg(1), I2C1_Read2ByteRegister@returnValue(2), NULL(0), I2C1_Read1ByteRegister@reg(1), 
  4697 ;;		 -> I2C1_Read1ByteRegister@returnValue(1), 
  4698 ;;  bufferSize      2    2[COMRAM] unsigned int 
  4699 ;; Auto vars:     Size  Location     Type
  4700 ;;		None
  4701 ;; Return value:  Size  Location     Type
  4702 ;;                  1    wreg      void 
  4703 ;; Registers used:
  4704 ;;		wreg, status,2, status,0
  4705 ;; Tracked objects:
  4706 ;;		On entry : 0/0
  4707 ;;		On exit  : 0/0
  4708 ;;		Unchanged: 0/0
  4709 ;; Data sizes:     COMRAM   BANK5   BANK6   BANK7   BANK8   BANK9  BANK10  BANK11  BANK12  BANK13  BANK14  BANK15  BANK1
      +6  BANK17  BANK18  BANK19  BANK20  BANK21  BANK22  BANK23  BANK24  BANK25  BANK26  BANK27  BANK28  BANK29  BANK30  BANK3
      +1  BANK32  BANK33  BANK34  BANK35  BANK36
  4710 ;;      Params:         4       0       0       0       0       0       0       0       0       0       0       0       
      +0       0       0       0       0       0       0       0       0       0       0       0       0       0       0       
      +0       0       0       0       0       0
  4711 ;;      Locals:         0       0       0       0       0       0       0       0       0       0       0       0       
      +0       0       0       0       0       0       0       0       0       0       0       0       0       0       0       
      +0       0       0       0       0       0
  4712 ;;      Temps:          0       0       0       0       0       0       0       0       0       0       0       0       
      +0       0       0       0       0       0       0       0       0       0       0       0       0       0       0       
      +0       0       0       0       0       0
  4713 ;;      Totals:         4       0       0       0       0       0       0       0       0       0       0       0       
      +0       0       0       0       0       0       0       0       0       0       0       0       0       0       0       
      +0       0       0       0       0       0
  4714 ;;Total ram usage:        4 bytes
  4715 ;; Hardware stack levels used: 1
  4716 ;; This function calls:
  4717 ;;		Nothing
  4718 ;; This function is called by:
  4719 ;;		_I2C1_WriteNBytes
  4720 ;;		_rd1RegCompleteHandler
  4721 ;;		_rd2RegCompleteHandler
  4722 ;;		_wr1RegCompleteHandler
  4723 ;;		_wr2RegCompleteHandler
  4724 ;;		_rdBlkRegCompleteHandler
  4725 ;;		_I2C1_Read1ByteRegister
  4726 ;;		_I2C1_Read2ByteRegister
  4727 ;;		_I2C1_Write1ByteRegister
  4728 ;;		_I2C1_Write2ByteRegister
  4729 ;;		_I2C1_ReadNBytes
  4730 ;;		_I2C1_ReadDataBlock
  4731 ;; This function uses a non-reentrant model
  4732 ;;
  4733                           
  4734                           	psect	text56
  4735   002FEA                     __ptext56:
  4736                           	callstack 0
  4737   002FEA                     _I2C1_SetBuffer:
  4738                           	callstack 125
  4739   002FEA                     
  4740                           ;mcc_generated_files/i2c1_master.c: 293: void I2C1_SetBuffer(void *buffer, size_t buffer
      +                          Size);mcc_generated_files/i2c1_master.c: 294: {;mcc_generated_files/i2c1_master.c: 295: 
      +                              if(I2C1_Status.bufferFree)
  4741   002FEA  A82A               	btfss	(_I2C1_Status+41)^(0+1280),4,c
  4742   002FEC  EFFA  F017         	goto	u611
  4743   002FF0  EFFC  F017         	goto	u610
  4744   002FF4                     u611:
  4745   002FF4  EF05  F018         	goto	l323
  4746   002FF8                     u610:
  4747   002FF8                     
  4748                           ;mcc_generated_files/i2c1_master.c: 296:     {;mcc_generated_files/i2c1_master.c: 297:  
      +                                 I2C1_Status.data_ptr = buffer;
  4749   002FF8  C52B  F524         	movff	I2C1_SetBuffer@buffer,_I2C1_Status+35
  4750   002FFC  C52C  F525         	movff	I2C1_SetBuffer@buffer+1,_I2C1_Status+36
  4751   003000                     
  4752                           ;mcc_generated_files/i2c1_master.c: 298:         I2C1_Status.data_length = bufferSize;
  4753   003000  C52D  F526         	movff	I2C1_SetBuffer@bufferSize,_I2C1_Status+37
  4754   003004  C52E  F527         	movff	I2C1_SetBuffer@bufferSize+1,_I2C1_Status+38
  4755   003008                     
  4756                           ;mcc_generated_files/i2c1_master.c: 299:         I2C1_Status.bufferFree = 0;
  4757   003008  982A               	bcf	(_I2C1_Status+41)^(0+1280),4,c
  4758   00300A                     l323:
  4759   00300A  0012               	return		;funcret
  4760   00300C                     __end_of_I2C1_SetBuffer:
  4761                           	callstack 0
  4762                           
  4763 ;; *************** function _I2C1_ClearInterruptFlags *****************
  4764 ;; Defined at:
  4765 ;;		line 362 in file "mcc_generated_files/i2c1_master.c"
  4766 ;; Parameters:    Size  Location     Type
  4767 ;;		None
  4768 ;; Auto vars:     Size  Location     Type
  4769 ;;		None
  4770 ;; Return value:  Size  Location     Type
  4771 ;;                  1    wreg      void 
  4772 ;; Registers used:
  4773 ;;		wreg, status,2, cstack
  4774 ;; Tracked objects:
  4775 ;;		On entry : 0/0
  4776 ;;		On exit  : 0/0
  4777 ;;		Unchanged: 0/0
  4778 ;; Data sizes:     COMRAM   BANK5   BANK6   BANK7   BANK8   BANK9  BANK10  BANK11  BANK12  BANK13  BANK14  BANK15  BANK1
      +6  BANK17  BANK18  BANK19  BANK20  BANK21  BANK22  BANK23  BANK24  BANK25  BANK26  BANK27  BANK28  BANK29  BANK30  BANK3
      +1  BANK32  BANK33  BANK34  BANK35  BANK36
  4779 ;;      Params:         0       0       0       0       0       0       0       0       0       0       0       0       
      +0       0       0       0       0       0       0       0       0       0       0       0       0       0       0       
      +0       0       0       0       0       0
  4780 ;;      Locals:         0       0       0       0       0       0       0       0       0       0       0       0       
      +0       0       0       0       0       0       0       0       0       0       0       0       0       0       0       
      +0       0       0       0       0       0
  4781 ;;      Temps:          0       0       0       0       0       0       0       0       0       0       0       0       
      +0       0       0       0       0       0       0       0       0       0       0       0       0       0       0       
      +0       0       0       0       0       0
  4782 ;;      Totals:         0       0       0       0       0       0       0       0       0       0       0       0       
      +0       0       0       0       0       0       0       0       0       0       0       0       0       0       0       
      +0       0       0       0       0       0
  4783 ;;Total ram usage:        0 bytes
  4784 ;; Hardware stack levels used: 1
  4785 ;; Hardware stack levels required when called: 1
  4786 ;; This function calls:
  4787 ;;		_I2C1_MasterClearCountFlag
  4788 ;;		_I2C1_MasterClearNackFlag
  4789 ;;		_I2C1_MasterClearStopFlag
  4790 ;;		_I2C1_MasterIsCountFlagSet
  4791 ;;		_I2C1_MasterIsNackFlagSet
  4792 ;;		_I2C1_MasterIsStopFlagSet
  4793 ;; This function is called by:
  4794 ;;		_I2C1_MasterFsm
  4795 ;; This function uses a non-reentrant model
  4796 ;;
  4797                           
  4798                           	psect	text57
  4799   002D38                     __ptext57:
  4800                           	callstack 0
  4801   002D38                     _I2C1_ClearInterruptFlags:
  4802                           	callstack 120
  4803   002D38                     
  4804                           ;mcc_generated_files/i2c1_master.c: 364:     if(I2C1_MasterIsCountFlagSet())
  4805   002D38  EC83  F018         	call	_I2C1_MasterIsCountFlagSet	;wreg free
  4806   002D3C  0900               	iorlw	0
  4807   002D3E  B4D8               	btfsc	status,2,c
  4808   002D40  EFA4  F016         	goto	u131
  4809   002D44  EFA6  F016         	goto	u130
  4810   002D48                     u131:
  4811   002D48  EFAA  F016         	goto	l1615
  4812   002D4C                     u130:
  4813   002D4C                     
  4814                           ;mcc_generated_files/i2c1_master.c: 365:     {;mcc_generated_files/i2c1_master.c: 366:  
      +                                 I2C1_MasterClearCountFlag();
  4815   002D4C  EC03  F019         	call	_I2C1_MasterClearCountFlag	;wreg free
  4816                           
  4817                           ;mcc_generated_files/i2c1_master.c: 367:     }
  4818   002D50  EFC4  F016         	goto	l361
  4819   002D54                     l1615:
  4820   002D54  EC6D  F018         	call	_I2C1_MasterIsStopFlagSet	;wreg free
  4821   002D58  0900               	iorlw	0
  4822   002D5A  B4D8               	btfsc	status,2,c
  4823   002D5C  EFB2  F016         	goto	u141
  4824   002D60  EFB4  F016         	goto	u140
  4825   002D64                     u141:
  4826   002D64  EFB8  F016         	goto	l1619
  4827   002D68                     u140:
  4828   002D68                     
  4829                           ;mcc_generated_files/i2c1_master.c: 369:     {;mcc_generated_files/i2c1_master.c: 370:  
      +                                 I2C1_MasterClearStopFlag();
  4830   002D68  ECFD  F018         	call	_I2C1_MasterClearStopFlag	;wreg free
  4831                           
  4832                           ;mcc_generated_files/i2c1_master.c: 371:     }
  4833   002D6C  EFC4  F016         	goto	l361
  4834   002D70                     l1619:
  4835   002D70  EC78  F018         	call	_I2C1_MasterIsNackFlagSet	;wreg free
  4836   002D74  0900               	iorlw	0
  4837   002D76  B4D8               	btfsc	status,2,c
  4838   002D78  EFC0  F016         	goto	u151
  4839   002D7C  EFC2  F016         	goto	u150
  4840   002D80                     u151:
  4841   002D80  EFC4  F016         	goto	l361
  4842   002D84                     u150:
  4843   002D84                     
  4844                           ;mcc_generated_files/i2c1_master.c: 373:     {;mcc_generated_files/i2c1_master.c: 374:  
      +                                 I2C1_MasterClearNackFlag();
  4845   002D84  EC00  F019         	call	_I2C1_MasterClearNackFlag	;wreg free
  4846   002D88                     l361:
  4847   002D88  0012               	return		;funcret
  4848   002D8A                     __end_of_I2C1_ClearInterruptFlags:
  4849                           	callstack 0
  4850                           
  4851 ;; *************** function _I2C1_MasterIsStopFlagSet *****************
  4852 ;; Defined at:
  4853 ;;		line 745 in file "mcc_generated_files/i2c1_master.c"
  4854 ;; Parameters:    Size  Location     Type
  4855 ;;		None
  4856 ;; Auto vars:     Size  Location     Type
  4857 ;;		None
  4858 ;; Return value:  Size  Location     Type
  4859 ;;                  1    wreg      _Bool 
  4860 ;; Registers used:
  4861 ;;		wreg
  4862 ;; Tracked objects:
  4863 ;;		On entry : 0/0
  4864 ;;		On exit  : 0/0
  4865 ;;		Unchanged: 0/0
  4866 ;; Data sizes:     COMRAM   BANK5   BANK6   BANK7   BANK8   BANK9  BANK10  BANK11  BANK12  BANK13  BANK14  BANK15  BANK1
      +6  BANK17  BANK18  BANK19  BANK20  BANK21  BANK22  BANK23  BANK24  BANK25  BANK26  BANK27  BANK28  BANK29  BANK30  BANK3
      +1  BANK32  BANK33  BANK34  BANK35  BANK36
  4867 ;;      Params:         0       0       0       0       0       0       0       0       0       0       0       0       
      +0       0       0       0       0       0       0       0       0       0       0       0       0       0       0       
      +0       0       0       0       0       0
  4868 ;;      Locals:         0       0       0       0       0       0       0       0       0       0       0       0       
      +0       0       0       0       0       0       0       0       0       0       0       0       0       0       0       
      +0       0       0       0       0       0
  4869 ;;      Temps:          0       0       0       0       0       0       0       0       0       0       0       0       
      +0       0       0       0       0       0       0       0       0       0       0       0       0       0       0       
      +0       0       0       0       0       0
  4870 ;;      Totals:         0       0       0       0       0       0       0       0       0       0       0       0       
      +0       0       0       0       0       0       0       0       0       0       0       0       0       0       0       
      +0       0       0       0       0       0
  4871 ;;Total ram usage:        0 bytes
  4872 ;; Hardware stack levels used: 1
  4873 ;; This function calls:
  4874 ;;		Nothing
  4875 ;; This function is called by:
  4876 ;;		_I2C1_ClearInterruptFlags
  4877 ;; This function uses a non-reentrant model
  4878 ;;
  4879                           
  4880                           	psect	text58
  4881   0030DA                     __ptext58:
  4882                           	callstack 0
  4883   0030DA                     _I2C1_MasterIsStopFlagSet:
  4884                           	callstack 120
  4885   0030DA                     
  4886                           ;mcc_generated_files/i2c1_master.c: 747:     return I2C1PIRbits.PCIF;
  4887   0030DA  0102               	movlb	2	; () banked
  4888   0030DC  B59A               	btfsc	154,2,b	;volatile
  4889   0030DE  EF73  F018         	goto	u81
  4890   0030E2  EF76  F018         	goto	u80
  4891   0030E6                     u81:
  4892   0030E6  0E01               	movlw	1
  4893   0030E8  EF77  F018         	goto	u86
  4894   0030EC                     u80:
  4895   0030EC  0E00               	movlw	0
  4896   0030EE                     u86:
  4897   0030EE                     
  4898                           ; BSR set to: 2
  4899   0030EE  0012               	return		;funcret
  4900   0030F0                     __end_of_I2C1_MasterIsStopFlagSet:
  4901                           	callstack 0
  4902                           
  4903 ;; *************** function _I2C1_MasterIsNackFlagSet *****************
  4904 ;; Defined at:
  4905 ;;		line 755 in file "mcc_generated_files/i2c1_master.c"
  4906 ;; Parameters:    Size  Location     Type
  4907 ;;		None
  4908 ;; Auto vars:     Size  Location     Type
  4909 ;;		None
  4910 ;; Return value:  Size  Location     Type
  4911 ;;                  1    wreg      _Bool 
  4912 ;; Registers used:
  4913 ;;		wreg
  4914 ;; Tracked objects:
  4915 ;;		On entry : 0/0
  4916 ;;		On exit  : 0/0
  4917 ;;		Unchanged: 0/0
  4918 ;; Data sizes:     COMRAM   BANK5   BANK6   BANK7   BANK8   BANK9  BANK10  BANK11  BANK12  BANK13  BANK14  BANK15  BANK1
      +6  BANK17  BANK18  BANK19  BANK20  BANK21  BANK22  BANK23  BANK24  BANK25  BANK26  BANK27  BANK28  BANK29  BANK30  BANK3
      +1  BANK32  BANK33  BANK34  BANK35  BANK36
  4919 ;;      Params:         0       0       0       0       0       0       0       0       0       0       0       0       
      +0       0       0       0       0       0       0       0       0       0       0       0       0       0       0       
      +0       0       0       0       0       0
  4920 ;;      Locals:         0       0       0       0       0       0       0       0       0       0       0       0       
      +0       0       0       0       0       0       0       0       0       0       0       0       0       0       0       
      +0       0       0       0       0       0
  4921 ;;      Temps:          0       0       0       0       0       0       0       0       0       0       0       0       
      +0       0       0       0       0       0       0       0       0       0       0       0       0       0       0       
      +0       0       0       0       0       0
  4922 ;;      Totals:         0       0       0       0       0       0       0       0       0       0       0       0       
      +0       0       0       0       0       0       0       0       0       0       0       0       0       0       0       
      +0       0       0       0       0       0
  4923 ;;Total ram usage:        0 bytes
  4924 ;; Hardware stack levels used: 1
  4925 ;; This function calls:
  4926 ;;		Nothing
  4927 ;; This function is called by:
  4928 ;;		_I2C1_ClearInterruptFlags
  4929 ;; This function uses a non-reentrant model
  4930 ;;
  4931                           
  4932                           	psect	text59
  4933   0030F0                     __ptext59:
  4934                           	callstack 0
  4935   0030F0                     _I2C1_MasterIsNackFlagSet:
  4936                           	callstack 120
  4937   0030F0                     
  4938                           ;mcc_generated_files/i2c1_master.c: 757:     return I2C1ERRbits.NACKIF;
  4939   0030F0  0102               	movlb	2	; () banked
  4940   0030F2  B997               	btfsc	151,4,b	;volatile
  4941   0030F4  EF7E  F018         	goto	u91
  4942   0030F8  EF81  F018         	goto	u90
  4943   0030FC                     u91:
  4944   0030FC  0E01               	movlw	1
  4945   0030FE  EF82  F018         	goto	u96
  4946   003102                     u90:
  4947   003102  0E00               	movlw	0
  4948   003104                     u96:
  4949   003104                     
  4950                           ; BSR set to: 2
  4951   003104  0012               	return		;funcret
  4952   003106                     __end_of_I2C1_MasterIsNackFlagSet:
  4953                           	callstack 0
  4954                           
  4955 ;; *************** function _I2C1_MasterIsCountFlagSet *****************
  4956 ;; Defined at:
  4957 ;;		line 750 in file "mcc_generated_files/i2c1_master.c"
  4958 ;; Parameters:    Size  Location     Type
  4959 ;;		None
  4960 ;; Auto vars:     Size  Location     Type
  4961 ;;		None
  4962 ;; Return value:  Size  Location     Type
  4963 ;;                  1    wreg      _Bool 
  4964 ;; Registers used:
  4965 ;;		wreg
  4966 ;; Tracked objects:
  4967 ;;		On entry : 0/0
  4968 ;;		On exit  : 0/0
  4969 ;;		Unchanged: 0/0
  4970 ;; Data sizes:     COMRAM   BANK5   BANK6   BANK7   BANK8   BANK9  BANK10  BANK11  BANK12  BANK13  BANK14  BANK15  BANK1
      +6  BANK17  BANK18  BANK19  BANK20  BANK21  BANK22  BANK23  BANK24  BANK25  BANK26  BANK27  BANK28  BANK29  BANK30  BANK3
      +1  BANK32  BANK33  BANK34  BANK35  BANK36
  4971 ;;      Params:         0       0       0       0       0       0       0       0       0       0       0       0       
      +0       0       0       0       0       0       0       0       0       0       0       0       0       0       0       
      +0       0       0       0       0       0
  4972 ;;      Locals:         0       0       0       0       0       0       0       0       0       0       0       0       
      +0       0       0       0       0       0       0       0       0       0       0       0       0       0       0       
      +0       0       0       0       0       0
  4973 ;;      Temps:          0       0       0       0       0       0       0       0       0       0       0       0       
      +0       0       0       0       0       0       0       0       0       0       0       0       0       0       0       
      +0       0       0       0       0       0
  4974 ;;      Totals:         0       0       0       0       0       0       0       0       0       0       0       0       
      +0       0       0       0       0       0       0       0       0       0       0       0       0       0       0       
      +0       0       0       0       0       0
  4975 ;;Total ram usage:        0 bytes
  4976 ;; Hardware stack levels used: 1
  4977 ;; This function calls:
  4978 ;;		Nothing
  4979 ;; This function is called by:
  4980 ;;		_I2C1_ClearInterruptFlags
  4981 ;; This function uses a non-reentrant model
  4982 ;;
  4983                           
  4984                           	psect	text60
  4985   003106                     __ptext60:
  4986                           	callstack 0
  4987   003106                     _I2C1_MasterIsCountFlagSet:
  4988                           	callstack 120
  4989   003106                     
  4990                           ;mcc_generated_files/i2c1_master.c: 752:     return I2C1PIRbits.CNTIF;
  4991   003106  0102               	movlb	2	; () banked
  4992   003108  BF9A               	btfsc	154,7,b	;volatile
  4993   00310A  EF89  F018         	goto	u71
  4994   00310E  EF8C  F018         	goto	u70
  4995   003112                     u71:
  4996   003112  0E01               	movlw	1
  4997   003114  EF8D  F018         	goto	u76
  4998   003118                     u70:
  4999   003118  0E00               	movlw	0
  5000   00311A                     u76:
  5001   00311A                     
  5002                           ; BSR set to: 2
  5003   00311A  0012               	return		;funcret
  5004   00311C                     __end_of_I2C1_MasterIsCountFlagSet:
  5005                           	callstack 0
  5006                           
  5007 ;; *************** function _I2C1_MasterClearStopFlag *****************
  5008 ;; Defined at:
  5009 ;;		line 760 in file "mcc_generated_files/i2c1_master.c"
  5010 ;; Parameters:    Size  Location     Type
  5011 ;;		None
  5012 ;; Auto vars:     Size  Location     Type
  5013 ;;		None
  5014 ;; Return value:  Size  Location     Type
  5015 ;;                  1    wreg      void 
  5016 ;; Registers used:
  5017 ;;		None
  5018 ;; Tracked objects:
  5019 ;;		On entry : 0/0
  5020 ;;		On exit  : 0/0
  5021 ;;		Unchanged: 0/0
  5022 ;; Data sizes:     COMRAM   BANK5   BANK6   BANK7   BANK8   BANK9  BANK10  BANK11  BANK12  BANK13  BANK14  BANK15  BANK1
      +6  BANK17  BANK18  BANK19  BANK20  BANK21  BANK22  BANK23  BANK24  BANK25  BANK26  BANK27  BANK28  BANK29  BANK30  BANK3
      +1  BANK32  BANK33  BANK34  BANK35  BANK36
  5023 ;;      Params:         0       0       0       0       0       0       0       0       0       0       0       0       
      +0       0       0       0       0       0       0       0       0       0       0       0       0       0       0       
      +0       0       0       0       0       0
  5024 ;;      Locals:         0       0       0       0       0       0       0       0       0       0       0       0       
      +0       0       0       0       0       0       0       0       0       0       0       0       0       0       0       
      +0       0       0       0       0       0
  5025 ;;      Temps:          0       0       0       0       0       0       0       0       0       0       0       0       
      +0       0       0       0       0       0       0       0       0       0       0       0       0       0       0       
      +0       0       0       0       0       0
  5026 ;;      Totals:         0       0       0       0       0       0       0       0       0       0       0       0       
      +0       0       0       0       0       0       0       0       0       0       0       0       0       0       0       
      +0       0       0       0       0       0
  5027 ;;Total ram usage:        0 bytes
  5028 ;; Hardware stack levels used: 1
  5029 ;; This function calls:
  5030 ;;		Nothing
  5031 ;; This function is called by:
  5032 ;;		_I2C1_ClearInterruptFlags
  5033 ;; This function uses a non-reentrant model
  5034 ;;
  5035                           
  5036                           	psect	text61
  5037   0031FA                     __ptext61:
  5038                           	callstack 0
  5039   0031FA                     _I2C1_MasterClearStopFlag:
  5040                           	callstack 120
  5041   0031FA                     
  5042                           ;mcc_generated_files/i2c1_master.c: 762:     I2C1PIRbits.PCIF = 0;
  5043   0031FA  0102               	movlb	2	; () banked
  5044   0031FC  959A               	bcf	154,2,b	;volatile
  5045   0031FE                     
  5046                           ; BSR set to: 2
  5047   0031FE  0012               	return		;funcret
  5048   003200                     __end_of_I2C1_MasterClearStopFlag:
  5049                           	callstack 0
  5050                           
  5051 ;; *************** function _I2C1_MasterClearNackFlag *****************
  5052 ;; Defined at:
  5053 ;;		line 770 in file "mcc_generated_files/i2c1_master.c"
  5054 ;; Parameters:    Size  Location     Type
  5055 ;;		None
  5056 ;; Auto vars:     Size  Location     Type
  5057 ;;		None
  5058 ;; Return value:  Size  Location     Type
  5059 ;;                  1    wreg      void 
  5060 ;; Registers used:
  5061 ;;		None
  5062 ;; Tracked objects:
  5063 ;;		On entry : 0/0
  5064 ;;		On exit  : 0/0
  5065 ;;		Unchanged: 0/0
  5066 ;; Data sizes:     COMRAM   BANK5   BANK6   BANK7   BANK8   BANK9  BANK10  BANK11  BANK12  BANK13  BANK14  BANK15  BANK1
      +6  BANK17  BANK18  BANK19  BANK20  BANK21  BANK22  BANK23  BANK24  BANK25  BANK26  BANK27  BANK28  BANK29  BANK30  BANK3
      +1  BANK32  BANK33  BANK34  BANK35  BANK36
  5067 ;;      Params:         0       0       0       0       0       0       0       0       0       0       0       0       
      +0       0       0       0       0       0       0       0       0       0       0       0       0       0       0       
      +0       0       0       0       0       0
  5068 ;;      Locals:         0       0       0       0       0       0       0       0       0       0       0       0       
      +0       0       0       0       0       0       0       0       0       0       0       0       0       0       0       
      +0       0       0       0       0       0
  5069 ;;      Temps:          0       0       0       0       0       0       0       0       0       0       0       0       
      +0       0       0       0       0       0       0       0       0       0       0       0       0       0       0       
      +0       0       0       0       0       0
  5070 ;;      Totals:         0       0       0       0       0       0       0       0       0       0       0       0       
      +0       0       0       0       0       0       0       0       0       0       0       0       0       0       0       
      +0       0       0       0       0       0
  5071 ;;Total ram usage:        0 bytes
  5072 ;; Hardware stack levels used: 1
  5073 ;; This function calls:
  5074 ;;		Nothing
  5075 ;; This function is called by:
  5076 ;;		_I2C1_ClearInterruptFlags
  5077 ;; This function uses a non-reentrant model
  5078 ;;
  5079                           
  5080                           	psect	text62
  5081   003200                     __ptext62:
  5082                           	callstack 0
  5083   003200                     _I2C1_MasterClearNackFlag:
  5084                           	callstack 120
  5085   003200                     
  5086                           ;mcc_generated_files/i2c1_master.c: 772:     I2C1ERRbits.NACKIF = 0;
  5087   003200  0102               	movlb	2	; () banked
  5088   003202  9997               	bcf	151,4,b	;volatile
  5089   003204                     
  5090                           ; BSR set to: 2
  5091   003204  0012               	return		;funcret
  5092   003206                     __end_of_I2C1_MasterClearNackFlag:
  5093                           	callstack 0
  5094                           
  5095 ;; *************** function _I2C1_MasterClearCountFlag *****************
  5096 ;; Defined at:
  5097 ;;		line 765 in file "mcc_generated_files/i2c1_master.c"
  5098 ;; Parameters:    Size  Location     Type
  5099 ;;		None
  5100 ;; Auto vars:     Size  Location     Type
  5101 ;;		None
  5102 ;; Return value:  Size  Location     Type
  5103 ;;                  1    wreg      void 
  5104 ;; Registers used:
  5105 ;;		None
  5106 ;; Tracked objects:
  5107 ;;		On entry : 0/0
  5108 ;;		On exit  : 0/0
  5109 ;;		Unchanged: 0/0
  5110 ;; Data sizes:     COMRAM   BANK5   BANK6   BANK7   BANK8   BANK9  BANK10  BANK11  BANK12  BANK13  BANK14  BANK15  BANK1
      +6  BANK17  BANK18  BANK19  BANK20  BANK21  BANK22  BANK23  BANK24  BANK25  BANK26  BANK27  BANK28  BANK29  BANK30  BANK3
      +1  BANK32  BANK33  BANK34  BANK35  BANK36
  5111 ;;      Params:         0       0       0       0       0       0       0       0       0       0       0       0       
      +0       0       0       0       0       0       0       0       0       0       0       0       0       0       0       
      +0       0       0       0       0       0
  5112 ;;      Locals:         0       0       0       0       0       0       0       0       0       0       0       0       
      +0       0       0       0       0       0       0       0       0       0       0       0       0       0       0       
      +0       0       0       0       0       0
  5113 ;;      Temps:          0       0       0       0       0       0       0       0       0       0       0       0       
      +0       0       0       0       0       0       0       0       0       0       0       0       0       0       0       
      +0       0       0       0       0       0
  5114 ;;      Totals:         0       0       0       0       0       0       0       0       0       0       0       0       
      +0       0       0       0       0       0       0       0       0       0       0       0       0       0       0       
      +0       0       0       0       0       0
  5115 ;;Total ram usage:        0 bytes
  5116 ;; Hardware stack levels used: 1
  5117 ;; This function calls:
  5118 ;;		Nothing
  5119 ;; This function is called by:
  5120 ;;		_I2C1_ClearInterruptFlags
  5121 ;; This function uses a non-reentrant model
  5122 ;;
  5123                           
  5124                           	psect	text63
  5125   003206                     __ptext63:
  5126                           	callstack 0
  5127   003206                     _I2C1_MasterClearCountFlag:
  5128                           	callstack 120
  5129   003206                     
  5130                           ;mcc_generated_files/i2c1_master.c: 767:     I2C1PIRbits.CNTIF = 0;
  5131   003206  0102               	movlb	2	; () banked
  5132   003208  9F9A               	bcf	154,7,b	;volatile
  5133   00320A                     
  5134                           ; BSR set to: 2
  5135   00320A  0012               	return		;funcret
  5136   00320C                     __end_of_I2C1_MasterClearCountFlag:
  5137                           	callstack 0
  5138                           
  5139 ;; *************** function _I2C1_Close *****************
  5140 ;; Defined at:
  5141 ;;		line 237 in file "mcc_generated_files/i2c1_master.c"
  5142 ;; Parameters:    Size  Location     Type
  5143 ;;		None
  5144 ;; Auto vars:     Size  Location     Type
  5145 ;;  returnValue     1    0[COMRAM] enum E355
  5146 ;; Return value:  Size  Location     Type
  5147 ;;                  1    wreg      enum E355
  5148 ;; Registers used:
  5149 ;;		wreg, status,2, cstack
  5150 ;; Tracked objects:
  5151 ;;		On entry : 0/0
  5152 ;;		On exit  : 0/0
  5153 ;;		Unchanged: 0/0
  5154 ;; Data sizes:     COMRAM   BANK5   BANK6   BANK7   BANK8   BANK9  BANK10  BANK11  BANK12  BANK13  BANK14  BANK15  BANK1
      +6  BANK17  BANK18  BANK19  BANK20  BANK21  BANK22  BANK23  BANK24  BANK25  BANK26  BANK27  BANK28  BANK29  BANK30  BANK3
      +1  BANK32  BANK33  BANK34  BANK35  BANK36
  5155 ;;      Params:         0       0       0       0       0       0       0       0       0       0       0       0       
      +0       0       0       0       0       0       0       0       0       0       0       0       0       0       0       
      +0       0       0       0       0       0
  5156 ;;      Locals:         1       0       0       0       0       0       0       0       0       0       0       0       
      +0       0       0       0       0       0       0       0       0       0       0       0       0       0       0       
      +0       0       0       0       0       0
  5157 ;;      Temps:          0       0       0       0       0       0       0       0       0       0       0       0       
      +0       0       0       0       0       0       0       0       0       0       0       0       0       0       0       
      +0       0       0       0       0       0
  5158 ;;      Totals:         1       0       0       0       0       0       0       0       0       0       0       0       
      +0       0       0       0       0       0       0       0       0       0       0       0       0       0       0       
      +0       0       0       0       0       0
  5159 ;;Total ram usage:        1 bytes
  5160 ;; Hardware stack levels used: 1
  5161 ;; Hardware stack levels required when called: 1
  5162 ;; This function calls:
  5163 ;;		_I2C1_MasterClearIrq
  5164 ;;		_I2C1_MasterClose
  5165 ;;		_I2C1_MasterDisableIrq
  5166 ;; This function is called by:
  5167 ;;		_I2C1_WriteNBytes
  5168 ;;		_I2C1_Read1ByteRegister
  5169 ;;		_I2C1_Read2ByteRegister
  5170 ;;		_I2C1_Write1ByteRegister
  5171 ;;		_I2C1_Write2ByteRegister
  5172 ;;		_I2C1_ReadNBytes
  5173 ;;		_I2C1_ReadDataBlock
  5174 ;; This function uses a non-reentrant model
  5175 ;;
  5176                           
  5177                           	psect	text64
  5178   002F2E                     __ptext64:
  5179                           	callstack 0
  5180   002F2E                     _I2C1_Close:
  5181                           	callstack 124
  5182   002F2E                     
  5183                           ;mcc_generated_files/i2c1_master.c: 239:     i2c1_error_t returnValue = I2C1_BUSY;
  5184   002F2E  0E01               	movlw	1
  5185   002F30  6E2B               	movwf	I2C1_Close@returnValue^(0+1280),c
  5186   002F32                     
  5187                           ;mcc_generated_files/i2c1_master.c: 240:     if(!I2C1_Status.busy)
  5188   002F32  B42A               	btfsc	(_I2C1_Status+41)^(0+1280),2,c
  5189   002F34  EF9E  F017         	goto	u401
  5190   002F38  EFA0  F017         	goto	u400
  5191   002F3C                     u401:
  5192   002F3C  EFAA  F017         	goto	l1935
  5193   002F40                     u400:
  5194   002F40                     
  5195                           ;mcc_generated_files/i2c1_master.c: 241:     {;mcc_generated_files/i2c1_master.c: 242:  
      +                                 I2C1_Status.inUse = 0;
  5196   002F40  962A               	bcf	(_I2C1_Status+41)^(0+1280),3,c
  5197                           
  5198                           ;mcc_generated_files/i2c1_master.c: 243:         I2C1_Status.address = 0xff;
  5199   002F42  6823               	setf	(_I2C1_Status+34)^(0+1280),c
  5200   002F44                     
  5201                           ;mcc_generated_files/i2c1_master.c: 244:         I2C1_MasterClearIrq();
  5202   002F44  ECE4  F018         	call	_I2C1_MasterClearIrq	;wreg free
  5203   002F48                     
  5204                           ;mcc_generated_files/i2c1_master.c: 245:         I2C1_MasterDisableIrq();
  5205   002F48  EC3E  F018         	call	_I2C1_MasterDisableIrq	;wreg free
  5206   002F4C                     
  5207                           ;mcc_generated_files/i2c1_master.c: 246:         I2C1_MasterClose();
  5208   002F4C  ECBC  F018         	call	_I2C1_MasterClose	;wreg free
  5209   002F50                     
  5210                           ;mcc_generated_files/i2c1_master.c: 247:         returnValue = I2C1_Status.error;
  5211   002F50  C529  F52B         	movff	_I2C1_Status+40,I2C1_Close@returnValue
  5212   002F54                     l1935:
  5213                           
  5214                           ;mcc_generated_files/i2c1_master.c: 249:     return returnValue;
  5215   002F54  502B               	movf	I2C1_Close@returnValue^(0+1280),w,c
  5216   002F56  0012               	return		;funcret
  5217   002F58                     __end_of_I2C1_Close:
  5218                           	callstack 0
  5219                           
  5220 ;; *************** function _I2C1_MasterDisableIrq *****************
  5221 ;; Defined at:
  5222 ;;		line 792 in file "mcc_generated_files/i2c1_master.c"
  5223 ;; Parameters:    Size  Location     Type
  5224 ;;		None
  5225 ;; Auto vars:     Size  Location     Type
  5226 ;;		None
  5227 ;; Return value:  Size  Location     Type
  5228 ;;                  1    wreg      void 
  5229 ;; Registers used:
  5230 ;;		None
  5231 ;; Tracked objects:
  5232 ;;		On entry : 0/0
  5233 ;;		On exit  : 0/0
  5234 ;;		Unchanged: 0/0
  5235 ;; Data sizes:     COMRAM   BANK5   BANK6   BANK7   BANK8   BANK9  BANK10  BANK11  BANK12  BANK13  BANK14  BANK15  BANK1
      +6  BANK17  BANK18  BANK19  BANK20  BANK21  BANK22  BANK23  BANK24  BANK25  BANK26  BANK27  BANK28  BANK29  BANK30  BANK3
      +1  BANK32  BANK33  BANK34  BANK35  BANK36
  5236 ;;      Params:         0       0       0       0       0       0       0       0       0       0       0       0       
      +0       0       0       0       0       0       0       0       0       0       0       0       0       0       0       
      +0       0       0       0       0       0
  5237 ;;      Locals:         0       0       0       0       0       0       0       0       0       0       0       0       
      +0       0       0       0       0       0       0       0       0       0       0       0       0       0       0       
      +0       0       0       0       0       0
  5238 ;;      Temps:          0       0       0       0       0       0       0       0       0       0       0       0       
      +0       0       0       0       0       0       0       0       0       0       0       0       0       0       0       
      +0       0       0       0       0       0
  5239 ;;      Totals:         0       0       0       0       0       0       0       0       0       0       0       0       
      +0       0       0       0       0       0       0       0       0       0       0       0       0       0       0       
      +0       0       0       0       0       0
  5240 ;;Total ram usage:        0 bytes
  5241 ;; Hardware stack levels used: 1
  5242 ;; This function calls:
  5243 ;;		Nothing
  5244 ;; This function is called by:
  5245 ;;		_I2C1_Close
  5246 ;;		_I2C1_SetTimeOut
  5247 ;; This function uses a non-reentrant model
  5248 ;;
  5249                           
  5250                           	psect	text65
  5251   00307C                     __ptext65:
  5252                           	callstack 0
  5253   00307C                     _I2C1_MasterDisableIrq:
  5254                           	callstack 124
  5255   00307C                     
  5256                           ;mcc_generated_files/i2c1_master.c: 794:     PIE7bits.I2C1IE = 0;
  5257   00307C  94A5               	bcf	165,2,c	;volatile
  5258                           
  5259                           ;mcc_generated_files/i2c1_master.c: 795:     PIE7bits.I2C1EIE = 0;
  5260   00307E  96A5               	bcf	165,3,c	;volatile
  5261                           
  5262                           ;mcc_generated_files/i2c1_master.c: 796:     PIE7bits.I2C1RXIE = 0;
  5263   003080  90A5               	bcf	165,0,c	;volatile
  5264                           
  5265                           ;mcc_generated_files/i2c1_master.c: 797:     PIE7bits.I2C1TXIE = 0;
  5266   003082  92A5               	bcf	165,1,c	;volatile
  5267                           
  5268                           ;mcc_generated_files/i2c1_master.c: 798:     I2C1PIEbits.SCIE = 0;
  5269   003084  0102               	movlb	2	; () banked
  5270   003086  919B               	bcf	155,0,b	;volatile
  5271                           
  5272                           ;mcc_generated_files/i2c1_master.c: 799:     I2C1PIEbits.PCIE = 0;
  5273   003088  959B               	bcf	155,2,b	;volatile
  5274                           
  5275                           ;mcc_generated_files/i2c1_master.c: 800:     I2C1PIEbits.CNTIE = 0;
  5276   00308A  9F9B               	bcf	155,7,b	;volatile
  5277                           
  5278                           ;mcc_generated_files/i2c1_master.c: 801:     I2C1PIEbits.ACKTIE = 0;
  5279   00308C  9D9B               	bcf	155,6,b	;volatile
  5280                           
  5281                           ;mcc_generated_files/i2c1_master.c: 802:     I2C1PIEbits.RSCIE = 0;
  5282   00308E  939B               	bcf	155,1,b	;volatile
  5283                           
  5284                           ;mcc_generated_files/i2c1_master.c: 803:     I2C1ERRbits.BCLIE = 0;
  5285   003090  9397               	bcf	151,1,b	;volatile
  5286                           
  5287                           ;mcc_generated_files/i2c1_master.c: 804:     I2C1ERRbits.BTOIE = 0;
  5288   003092  9597               	bcf	151,2,b	;volatile
  5289                           
  5290                           ;mcc_generated_files/i2c1_master.c: 805:     I2C1ERRbits.NACKIE = 0;
  5291   003094  9197               	bcf	151,0,b	;volatile
  5292   003096                     
  5293                           ; BSR set to: 2
  5294   003096  0012               	return		;funcret
  5295   003098                     __end_of_I2C1_MasterDisableIrq:
  5296                           	callstack 0
  5297                           
  5298 ;; *************** function _I2C1_MasterClose *****************
  5299 ;; Defined at:
  5300 ;;		line 655 in file "mcc_generated_files/i2c1_master.c"
  5301 ;; Parameters:    Size  Location     Type
  5302 ;;		None
  5303 ;; Auto vars:     Size  Location     Type
  5304 ;;		None
  5305 ;; Return value:  Size  Location     Type
  5306 ;;                  1    wreg      void 
  5307 ;; Registers used:
  5308 ;;		wreg, status,2
  5309 ;; Tracked objects:
  5310 ;;		On entry : 0/0
  5311 ;;		On exit  : 0/0
  5312 ;;		Unchanged: 0/0
  5313 ;; Data sizes:     COMRAM   BANK5   BANK6   BANK7   BANK8   BANK9  BANK10  BANK11  BANK12  BANK13  BANK14  BANK15  BANK1
      +6  BANK17  BANK18  BANK19  BANK20  BANK21  BANK22  BANK23  BANK24  BANK25  BANK26  BANK27  BANK28  BANK29  BANK30  BANK3
      +1  BANK32  BANK33  BANK34  BANK35  BANK36
  5314 ;;      Params:         0       0       0       0       0       0       0       0       0       0       0       0       
      +0       0       0       0       0       0       0       0       0       0       0       0       0       0       0       
      +0       0       0       0       0       0
  5315 ;;      Locals:         0       0       0       0       0       0       0       0       0       0       0       0       
      +0       0       0       0       0       0       0       0       0       0       0       0       0       0       0       
      +0       0       0       0       0       0
  5316 ;;      Temps:          0       0       0       0       0       0       0       0       0       0       0       0       
      +0       0       0       0       0       0       0       0       0       0       0       0       0       0       0       
      +0       0       0       0       0       0
  5317 ;;      Totals:         0       0       0       0       0       0       0       0       0       0       0       0       
      +0       0       0       0       0       0       0       0       0       0       0       0       0       0       0       
      +0       0       0       0       0       0
  5318 ;;Total ram usage:        0 bytes
  5319 ;; Hardware stack levels used: 1
  5320 ;; This function calls:
  5321 ;;		Nothing
  5322 ;; This function is called by:
  5323 ;;		_I2C1_Close
  5324 ;; This function uses a non-reentrant model
  5325 ;;
  5326                           
  5327                           	psect	text66
  5328   003178                     __ptext66:
  5329                           	callstack 0
  5330   003178                     _I2C1_MasterClose:
  5331                           	callstack 124
  5332   003178                     
  5333                           ;mcc_generated_files/i2c1_master.c: 658:     I2C1CON0bits.EN = 0;
  5334   003178  0102               	movlb	2	; () banked
  5335   00317A  9F94               	bcf	148,7,b	;volatile
  5336   00317C                     
  5337                           ; BSR set to: 2
  5338                           ;mcc_generated_files/i2c1_master.c: 660:     I2C1PIR = 0x00;
  5339   00317C  0E00               	movlw	0
  5340   00317E  6F9A               	movwf	154,b	;volatile
  5341   003180                     
  5342                           ; BSR set to: 2
  5343                           ;mcc_generated_files/i2c1_master.c: 662:     I2C1STAT1bits.CLRBF = 1;
  5344   003180  8599               	bsf	153,2,b	;volatile
  5345   003182                     
  5346                           ; BSR set to: 2
  5347   003182  0012               	return		;funcret
  5348   003184                     __end_of_I2C1_MasterClose:
  5349                           	callstack 0
  5350                           
  5351 ;; *************** function _I2C1_MasterClearIrq *****************
  5352 ;; Defined at:
  5353 ;;		line 808 in file "mcc_generated_files/i2c1_master.c"
  5354 ;; Parameters:    Size  Location     Type
  5355 ;;		None
  5356 ;; Auto vars:     Size  Location     Type
  5357 ;;		None
  5358 ;; Return value:  Size  Location     Type
  5359 ;;                  1    wreg      void 
  5360 ;; Registers used:
  5361 ;;		wreg, status,2
  5362 ;; Tracked objects:
  5363 ;;		On entry : 0/0
  5364 ;;		On exit  : 0/0
  5365 ;;		Unchanged: 0/0
  5366 ;; Data sizes:     COMRAM   BANK5   BANK6   BANK7   BANK8   BANK9  BANK10  BANK11  BANK12  BANK13  BANK14  BANK15  BANK1
      +6  BANK17  BANK18  BANK19  BANK20  BANK21  BANK22  BANK23  BANK24  BANK25  BANK26  BANK27  BANK28  BANK29  BANK30  BANK3
      +1  BANK32  BANK33  BANK34  BANK35  BANK36
  5367 ;;      Params:         0       0       0       0       0       0       0       0       0       0       0       0       
      +0       0       0       0       0       0       0       0       0       0       0       0       0       0       0       
      +0       0       0       0       0       0
  5368 ;;      Locals:         0       0       0       0       0       0       0       0       0       0       0       0       
      +0       0       0       0       0       0       0       0       0       0       0       0       0       0       0       
      +0       0       0       0       0       0
  5369 ;;      Temps:          0       0       0       0       0       0       0       0       0       0       0       0       
      +0       0       0       0       0       0       0       0       0       0       0       0       0       0       0       
      +0       0       0       0       0       0
  5370 ;;      Totals:         0       0       0       0       0       0       0       0       0       0       0       0       
      +0       0       0       0       0       0       0       0       0       0       0       0       0       0       0       
      +0       0       0       0       0       0
  5371 ;;Total ram usage:        0 bytes
  5372 ;; Hardware stack levels used: 1
  5373 ;; This function calls:
  5374 ;;		Nothing
  5375 ;; This function is called by:
  5376 ;;		_I2C1_Open
  5377 ;;		_I2C1_Close
  5378 ;;		_I2C1_DO_BUS_COLLISION
  5379 ;; This function uses a non-reentrant model
  5380 ;;
  5381                           
  5382                           	psect	text67
  5383   0031C8                     __ptext67:
  5384                           	callstack 0
  5385   0031C8                     _I2C1_MasterClearIrq:
  5386                           	callstack 124
  5387   0031C8                     
  5388                           ;mcc_generated_files/i2c1_master.c: 810:     I2C1PIR = 0x00;
  5389   0031C8  0E00               	movlw	0
  5390   0031CA  0102               	movlb	2	; () banked
  5391   0031CC  6F9A               	movwf	154,b	;volatile
  5392   0031CE                     
  5393                           ; BSR set to: 2
  5394   0031CE  0012               	return		;funcret
  5395   0031D0                     __end_of_I2C1_MasterClearIrq:
  5396                           	callstack 0
  5397                           
  5398                           	psect	text68
  5399   000000                     __ptext68:
  5400                           	callstack 0
  5401   000000                     
  5402                           	psect	rparam
  5403   000000                     
  5404                           	psect	idloc
  5405                           
  5406                           ;Config register IDLOC0 @ 0x200000
  5407                           ;	unspecified, using default values
  5408   200000                     	org	2097152
  5409   200000  0FFF               	dw	4095
  5410                           
  5411                           ;Config register IDLOC1 @ 0x200002
  5412                           ;	unspecified, using default values
  5413   200002                     	org	2097154
  5414   200002  0FFF               	dw	4095
  5415                           
  5416                           ;Config register IDLOC2 @ 0x200004
  5417                           ;	unspecified, using default values
  5418   200004                     	org	2097156
  5419   200004  0FFF               	dw	4095
  5420                           
  5421                           ;Config register IDLOC3 @ 0x200006
  5422                           ;	unspecified, using default values
  5423   200006                     	org	2097158
  5424   200006  0FFF               	dw	4095
  5425                           
  5426                           ;Config register IDLOC4 @ 0x200008
  5427                           ;	unspecified, using default values
  5428   200008                     	org	2097160
  5429   200008  0FFF               	dw	4095
  5430                           
  5431                           ;Config register IDLOC5 @ 0x20000A
  5432                           ;	unspecified, using default values
  5433   20000A                     	org	2097162
  5434   20000A  0FFF               	dw	4095
  5435                           
  5436                           ;Config register IDLOC6 @ 0x20000C
  5437                           ;	unspecified, using default values
  5438   20000C                     	org	2097164
  5439   20000C  0FFF               	dw	4095
  5440                           
  5441                           ;Config register IDLOC7 @ 0x20000E
  5442                           ;	unspecified, using default values
  5443   20000E                     	org	2097166
  5444   20000E  0FFF               	dw	4095
  5445                           
  5446                           ;Config register IDLOC8 @ 0x200010
  5447                           ;	unspecified, using default values
  5448   200010                     	org	2097168
  5449   200010  0FFF               	dw	4095
  5450                           
  5451                           ;Config register IDLOC9 @ 0x200012
  5452                           ;	unspecified, using default values
  5453   200012                     	org	2097170
  5454   200012  0FFF               	dw	4095
  5455                           
  5456                           ;Config register IDLOC10 @ 0x200014
  5457                           ;	unspecified, using default values
  5458   200014                     	org	2097172
  5459   200014  0FFF               	dw	4095
  5460                           
  5461                           ;Config register IDLOC11 @ 0x200016
  5462                           ;	unspecified, using default values
  5463   200016                     	org	2097174
  5464   200016  0FFF               	dw	4095
  5465                           
  5466                           ;Config register IDLOC12 @ 0x200018
  5467                           ;	unspecified, using default values
  5468   200018                     	org	2097176
  5469   200018  0FFF               	dw	4095
  5470                           
  5471                           ;Config register IDLOC13 @ 0x20001A
  5472                           ;	unspecified, using default values
  5473   20001A                     	org	2097178
  5474   20001A  0FFF               	dw	4095
  5475                           
  5476                           ;Config register IDLOC14 @ 0x20001C
  5477                           ;	unspecified, using default values
  5478   20001C                     	org	2097180
  5479   20001C  0FFF               	dw	4095
  5480                           
  5481                           ;Config register IDLOC15 @ 0x20001E
  5482                           ;	unspecified, using default values
  5483   20001E                     	org	2097182
  5484   20001E  0FFF               	dw	4095
  5485                           
  5486                           ;Config register IDLOC16 @ 0x200020
  5487                           ;	unspecified, using default values
  5488   200020                     	org	2097184
  5489   200020  0FFF               	dw	4095
  5490                           
  5491                           ;Config register IDLOC17 @ 0x200022
  5492                           ;	unspecified, using default values
  5493   200022                     	org	2097186
  5494   200022  0FFF               	dw	4095
  5495                           
  5496                           ;Config register IDLOC18 @ 0x200024
  5497                           ;	unspecified, using default values
  5498   200024                     	org	2097188
  5499   200024  0FFF               	dw	4095
  5500                           
  5501                           ;Config register IDLOC19 @ 0x200026
  5502                           ;	unspecified, using default values
  5503   200026                     	org	2097190
  5504   200026  0FFF               	dw	4095
  5505                           
  5506                           ;Config register IDLOC20 @ 0x200028
  5507                           ;	unspecified, using default values
  5508   200028                     	org	2097192
  5509   200028  0FFF               	dw	4095
  5510                           
  5511                           ;Config register IDLOC21 @ 0x20002A
  5512                           ;	unspecified, using default values
  5513   20002A                     	org	2097194
  5514   20002A  0FFF               	dw	4095
  5515                           
  5516                           ;Config register IDLOC22 @ 0x20002C
  5517                           ;	unspecified, using default values
  5518   20002C                     	org	2097196
  5519   20002C  0FFF               	dw	4095
  5520                           
  5521                           ;Config register IDLOC23 @ 0x20002E
  5522                           ;	unspecified, using default values
  5523   20002E                     	org	2097198
  5524   20002E  0FFF               	dw	4095
  5525                           
  5526                           ;Config register IDLOC24 @ 0x200030
  5527                           ;	unspecified, using default values
  5528   200030                     	org	2097200
  5529   200030  0FFF               	dw	4095
  5530                           
  5531                           ;Config register IDLOC25 @ 0x200032
  5532                           ;	unspecified, using default values
  5533   200032                     	org	2097202
  5534   200032  0FFF               	dw	4095
  5535                           
  5536                           ;Config register IDLOC26 @ 0x200034
  5537                           ;	unspecified, using default values
  5538   200034                     	org	2097204
  5539   200034  0FFF               	dw	4095
  5540                           
  5541                           ;Config register IDLOC27 @ 0x200036
  5542                           ;	unspecified, using default values
  5543   200036                     	org	2097206
  5544   200036  0FFF               	dw	4095
  5545                           
  5546                           ;Config register IDLOC28 @ 0x200038
  5547                           ;	unspecified, using default values
  5548   200038                     	org	2097208
  5549   200038  0FFF               	dw	4095
  5550                           
  5551                           ;Config register IDLOC29 @ 0x20003A
  5552                           ;	unspecified, using default values
  5553   20003A                     	org	2097210
  5554   20003A  0FFF               	dw	4095
  5555                           
  5556                           ;Config register IDLOC30 @ 0x20003C
  5557                           ;	unspecified, using default values
  5558   20003C                     	org	2097212
  5559   20003C  0FFF               	dw	4095
  5560                           
  5561                           ;Config register IDLOC31 @ 0x20003E
  5562                           ;	unspecified, using default values
  5563   20003E                     	org	2097214
  5564   20003E  0FFF               	dw	4095
  5565                           
  5566                           	psect	config
  5567                           
  5568                           ;Config register CONFIG1 @ 0x300000
  5569                           ;	External Oscillator Selection
  5570                           ;	FEXTOSC = OFF, Oscillator not enabled
  5571                           ;	Reset Oscillator Selection
  5572                           ;	RSTOSC = HFINTOSC_1MHZ, HFINTOSC with HFFRQ = 4 MHz and CDIV = 4:1
  5573   300000                     	org	3145728
  5574   300000  EC                 	db	236
  5575                           
  5576                           ;Config register CONFIG2 @ 0x300001
  5577                           ;	Clock out Enable bit
  5578                           ;	CLKOUTEN = OFF, CLKOUT function is disabled
  5579                           ;	PRLOCKED One-Way Set Enable bit
  5580                           ;	PR1WAY = ON, PRLOCKED bit can be cleared and set only once
  5581                           ;	Clock Switch Enable bit
  5582                           ;	CSWEN = ON, Writing to NOSC and NDIV is allowed
  5583                           ;	Fail-Safe Clock Monitor Enable bit
  5584                           ;	FCMEN = ON, Fail-Safe Clock Monitor enabled
  5585   300001                     	org	3145729
  5586   300001  FF                 	db	255
  5587                           
  5588                           ;Config register CONFIG3 @ 0x300002
  5589                           ;	MCLR Enable bit
  5590                           ;	MCLRE = EXTMCLR, If LVP = 0, MCLR pin is MCLR; If LVP = 1, RE3 pin function is MCLR
  5591                           ;	Power-up timer selection bits
  5592                           ;	PWRTS = PWRT_OFF, PWRT is disabled
  5593                           ;	Multi-vector enable bit
  5594                           ;	MVECEN = OFF, Interrupt contoller does not use vector table to prioritze interrupts
  5595                           ;	IVTLOCK bit One-way set enable bit
  5596                           ;	IVT1WAY = ON, IVTLOCKED bit can be cleared and set only once
  5597                           ;	Low Power BOR Enable bit
  5598                           ;	LPBOREN = OFF, Low-Power BOR disabled
  5599                           ;	Brown-out Reset Enable bits
  5600                           ;	BOREN = SBORDIS, Brown-out Reset enabled , SBOREN bit is ignored
  5601   300002                     	org	3145730
  5602   300002  F7                 	db	247
  5603                           
  5604                           ;Config register CONFIG4 @ 0x300003
  5605                           ;	Brown-out Reset Voltage Selection bits
  5606                           ;	BORV = VBOR_1P9, Brown-out Reset Voltage (VBOR) set to 1.9V
  5607                           ;	ZCD Disable bit
  5608                           ;	ZCD = OFF, ZCD module is disabled. ZCD can be enabled by setting the ZCDSEN bit of ZCD
      +                          CON
  5609                           ;	PPSLOCK bit One-Way Set Enable bit
  5610                           ;	PPS1WAY = ON, PPSLOCKED bit can be cleared and set only once; PPS registers remain loc
      +                          ked after one clear/set cycle
  5611                           ;	Stack Full/Underflow Reset Enable bit
  5612                           ;	STVREN = ON, Stack full/underflow will cause Reset
  5613                           ;	Low Voltage Programming Enable bit
  5614                           ;	LVP = ON, Low voltage programming enabled. MCLR/VPP pin function is MCLR. MCLRE config
      +                          uration bit is ignored
  5615                           ;	Extended Instruction Set Enable bit
  5616                           ;	XINST = OFF, Extended Instruction Set and Indexed Addressing Mode disabled
  5617   300003                     	org	3145731
  5618   300003  FF                 	db	255
  5619                           
  5620                           ;Config register CONFIG5 @ 0x300004
  5621                           ;	WDT Period selection bits
  5622                           ;	WDTCPS = WDTCPS_31, Divider ratio 1:65536; software control of WDTPS
  5623                           ;	WDT operating mode
  5624                           ;	WDTE = OFF, WDT Disabled; SWDTEN is ignored
  5625   300004                     	org	3145732
  5626   300004  9F                 	db	159
  5627                           
  5628                           ;Config register CONFIG6 @ 0x300005
  5629                           ;	WDT Window Select bits
  5630                           ;	WDTCWS = WDTCWS_7, window always open (100%); software control; keyed access not requi
      +                          red
  5631                           ;	WDT input clock selector
  5632                           ;	WDTCCS = SC, Software Control
  5633   300005                     	org	3145733
  5634   300005  FF                 	db	255
  5635                           
  5636                           ;Config register CONFIG7 @ 0x300006
  5637                           ;	Boot Block Size selection bits
  5638                           ;	BBSIZE = BBSIZE_512, Boot Block size is 512 words
  5639                           ;	Boot Block enable bit
  5640                           ;	BBEN = OFF, Boot block disabled
  5641                           ;	Storage Area Flash enable bit
  5642                           ;	SAFEN = OFF, SAF disabled
  5643                           ;	Background Debugger
  5644                           ;	DEBUG = OFF, Background Debugger disabled
  5645   300006                     	org	3145734
  5646   300006  FF                 	db	255
  5647                           
  5648                           ;Config register CONFIG8 @ 0x300007
  5649                           ;	Boot Block Write Protection bit
  5650                           ;	WRTB = OFF, Boot Block not Write protected
  5651                           ;	Configuration Register Write Protection bit
  5652                           ;	WRTC = OFF, Configuration registers not Write protected
  5653                           ;	Data EEPROM Write Protection bit
  5654                           ;	WRTD = OFF, Data EEPROM not Write protected
  5655                           ;	SAF Write protection bit
  5656                           ;	WRTSAF = OFF, SAF not Write Protected
  5657                           ;	Application Block write protection bit
  5658                           ;	WRTAPP = OFF, Application Block not write protected
  5659   300007                     	org	3145735
  5660   300007  FF                 	db	255
  5661                           
  5662                           ; Padding undefined space
  5663   300008                     	org	3145736
  5664   300008  FF                 	db	255
  5665                           
  5666                           ;Config register CONFIG10 @ 0x300009
  5667                           ;	PFM and Data EEPROM Code Protection bit
  5668                           ;	CP = OFF, PFM and Data EEPROM code protection disabled
  5669   300009                     	org	3145737
  5670   300009  FF                 	db	255
  5671                           tosu	equ	0x4FF
  5672                           tosh	equ	0x4FE
  5673                           tosl	equ	0x4FD
  5674                           stkptr	equ	0x4FC
  5675                           pclatu	equ	0x4FB
  5676                           pclath	equ	0x4FA
  5677                           pcl	equ	0x4F9
  5678                           tblptru	equ	0x4F8
  5679                           tblptrh	equ	0x4F7
  5680                           tblptrl	equ	0x4F6
  5681                           tablat	equ	0x4F5
  5682                           prodh	equ	0x4F4
  5683                           prodl	equ	0x4F3
  5684                           indf0	equ	0x4EF
  5685                           postinc0	equ	0x4EE
  5686                           postdec0	equ	0x4ED
  5687                           preinc0	equ	0x4EC
  5688                           plusw0	equ	0x4EB
  5689                           fsr0h	equ	0x4EA
  5690                           fsr0l	equ	0x4E9
  5691                           wreg	equ	0x4E8
  5692                           indf1	equ	0x4E7
  5693                           postinc1	equ	0x4E6
  5694                           postdec1	equ	0x4E5
  5695                           preinc1	equ	0x4E4
  5696                           plusw1	equ	0x4E3
  5697                           fsr1h	equ	0x4E2
  5698                           fsr1l	equ	0x4E1
  5699                           bsr	equ	0x4E0
  5700                           indf2	equ	0x4DF
  5701                           postinc2	equ	0x4DE
  5702                           postdec2	equ	0x4DD
  5703                           preinc2	equ	0x4DC
  5704                           plusw2	equ	0x4DB
  5705                           fsr2h	equ	0x4DA
  5706                           fsr2l	equ	0x4D9
  5707                           status	equ	0x4D8

Data Sizes:
    Strings     0
    Constant    57
    Data        1
    BSS         42
    Persistent  0
    Stack       0

Auto Spaces:
    Space          Size  Autos    Used
    COMRAM           95     28      71
    BANK5           160      0       0
    BANK6           256      0       0
    BANK7           256      0       0
    BANK8           256      0       0
    BANK9           256      0       0
    BANK10          256      0       0
    BANK11          256      0       0
    BANK12          256      0       0
    BANK13          256      0       0
    BANK14          256      0       0
    BANK15          256      0       0
    BANK16          256      0       0
    BANK17          256      0       0
    BANK18          256      0       0
    BANK19          256      0       0
    BANK20          256      0       0
    BANK21          256      0       0
    BANK22          256      0       0
    BANK23          256      0       0
    BANK24          256      0       0
    BANK25          256      0       0
    BANK26          256      0       0
    BANK27          256      0       0
    BANK28          256      0       0
    BANK29          256      0       0
    BANK30          256      0       0
    BANK31          256      0       0
    BANK32          256      0       0
    BANK33          256      0       0
    BANK34          256      0       0
    BANK35          256      0       0
    BANK36          256      0       0

Pointer List with Targets:

    I2C1_Read1ByteRegister@returnValue.data	PTR unsigned char  size(2) Largest target is 0

    I2C1_Read2ByteRegister@returnValue.data	PTR unsigned char  size(2) Largest target is 0

    I2C1_Write1ByteRegister@data.data	PTR unsigned char  size(2) Largest target is 0

    I2C1_Write2ByteRegister@data.data	PTR unsigned char  size(2) Largest target is 0

    I2C1_DO_TX$1715$0	PTR void  size(2) Largest target is 5
		 -> I2C1_ReadDataBlock@bufferBlock(COMRAM[4]), I2C1_Write2ByteRegister@data(COMRAM[2]), I2C1_Write1ByteRegister@data(COMRAM[1]), I2C1_Read2ByteRegister@returnValue(COMRAM[2]), 
		 -> NULL(NULL[0]), I2C1_Read1ByteRegister@returnValue(COMRAM[1]), 

    I2C1_DO_TX_EMPTY$1721$0	PTR void  size(2) Largest target is 5
		 -> I2C1_ReadDataBlock@bufferBlock(COMRAM[4]), I2C1_Write2ByteRegister@data(COMRAM[2]), I2C1_Write1ByteRegister@data(COMRAM[1]), I2C1_Read2ByteRegister@returnValue(COMRAM[2]), 
		 -> NULL(NULL[0]), I2C1_Read1ByteRegister@returnValue(COMRAM[1]), 

    I2C1_DO_RX_EMPTY$1727$0	PTR void  size(2) Largest target is 5
		 -> I2C1_ReadDataBlock@bufferBlock(COMRAM[4]), I2C1_Write2ByteRegister@data(COMRAM[2]), I2C1_Write1ByteRegister@data(COMRAM[1]), I2C1_Read2ByteRegister@returnValue(COMRAM[2]), 
		 -> NULL(NULL[0]), I2C1_Read1ByteRegister@returnValue(COMRAM[1]), 

    I2C1_DO_RX_EMPTY$1732	PTR void  size(2) Largest target is 5
		 -> I2C1_ReadDataBlock@bufferBlock(COMRAM[4]), I2C1_Write2ByteRegister@data(COMRAM[2]), I2C1_Write1ByteRegister@data(COMRAM[1]), I2C1_Read2ByteRegister@returnValue(COMRAM[2]), 
		 -> NULL(NULL[0]), I2C1_Read1ByteRegister@returnValue(COMRAM[1]), 

    I2C1_DO_RX_EMPTY$1727	PTR FTN(PTR void ,)enum E360 size(3) Largest target is 1
		 -> I2C1_CallbackReturnReset(), I2C1_CallbackReturnStop(), Absolute function(), rdBlkRegCompleteHandler(), 
		 -> wr2RegCompleteHandler(), wr1RegCompleteHandler(), rd2RegCompleteHandler(), rd1RegCompleteHandler(), 

    I2C1_DO_TX_EMPTY$1726	PTR void  size(2) Largest target is 5
		 -> I2C1_ReadDataBlock@bufferBlock(COMRAM[4]), I2C1_Write2ByteRegister@data(COMRAM[2]), I2C1_Write1ByteRegister@data(COMRAM[1]), I2C1_Read2ByteRegister@returnValue(COMRAM[2]), 
		 -> NULL(NULL[0]), I2C1_Read1ByteRegister@returnValue(COMRAM[1]), 

    I2C1_DO_TX_EMPTY$1721	PTR FTN(PTR void ,)enum E360 size(3) Largest target is 1
		 -> I2C1_CallbackReturnReset(), I2C1_CallbackReturnStop(), Absolute function(), rdBlkRegCompleteHandler(), 
		 -> wr2RegCompleteHandler(), wr1RegCompleteHandler(), rd2RegCompleteHandler(), rd1RegCompleteHandler(), 

    I2C1_DO_TX$1720	PTR void  size(2) Largest target is 5
		 -> I2C1_ReadDataBlock@bufferBlock(COMRAM[4]), I2C1_Write2ByteRegister@data(COMRAM[2]), I2C1_Write1ByteRegister@data(COMRAM[1]), I2C1_Read2ByteRegister@returnValue(COMRAM[2]), 
		 -> NULL(NULL[0]), I2C1_Read1ByteRegister@returnValue(COMRAM[1]), 

    I2C1_DO_TX$1715	PTR FTN(PTR void ,)enum E360 size(3) Largest target is 1
		 -> I2C1_CallbackReturnReset(), I2C1_CallbackReturnStop(), Absolute function(), rdBlkRegCompleteHandler(), 
		 -> wr2RegCompleteHandler(), wr1RegCompleteHandler(), rd2RegCompleteHandler(), rd1RegCompleteHandler(), 

    I2C1_MasterFsm$1714	const PTR FTN()enum E17079 size(3) Largest target is 1
		 -> I2C1_DO_BUS_ERROR(), I2C1_DO_BUS_COLLISION(), I2C1_DO_ADDRESS_NACK(), I2C1_DO_RESET(), 
		 -> I2C1_DO_RX_NACK_RESTART(), I2C1_DO_RX_NACK_STOP(), I2C1_DO_TX_ACK(), I2C1_DO_RX_ACK(), 
		 -> I2C1_DO_SEND_STOP(), I2C1_DO_SEND_RESTART(), I2C1_DO_SEND_RESTART_WRITE(), I2C1_DO_SEND_RESTART_READ(), 
		 -> I2C1_DO_RX_EMPTY(), I2C1_DO_TX_EMPTY(), I2C1_DO_RX(), I2C1_DO_TX(), 
		 -> I2C1_DO_SEND_ADR_WRITE(), I2C1_DO_SEND_ADR_READ(), I2C1_DO_IDLE(), 

    I2C1_CallbackReturnStop@funPtr	PTR void  size(2) Largest target is 5
		 -> I2C1_ReadDataBlock@bufferBlock(COMRAM[4]), I2C1_Write2ByteRegister@data(COMRAM[2]), I2C1_Write1ByteRegister@data(COMRAM[1]), I2C1_Read2ByteRegister@returnValue(COMRAM[2]), 
		 -> NULL(NULL[0]), I2C1_Read1ByteRegister@returnValue(COMRAM[1]), 

    I2C1_CallbackReturnReset@funPtr	PTR void  size(2) Largest target is 5
		 -> I2C1_ReadDataBlock@bufferBlock(COMRAM[4]), I2C1_Write2ByteRegister@data(COMRAM[2]), I2C1_Write1ByteRegister@data(COMRAM[1]), I2C1_Read2ByteRegister@returnValue(COMRAM[2]), 
		 -> NULL(NULL[0]), I2C1_Read1ByteRegister@returnValue(COMRAM[1]), 

    cb$0	PTR void  size(2) Largest target is 5
		 -> I2C1_ReadDataBlock@bufferBlock(COMRAM[4]), I2C1_Write2ByteRegister@data(COMRAM[2]), I2C1_Write1ByteRegister@data(COMRAM[1]), I2C1_Read2ByteRegister@returnValue(COMRAM[2]), 
		 -> NULL(NULL[0]), I2C1_Read1ByteRegister@returnValue(COMRAM[1]), 

    Absolute function$0	PTR void  size(2) Largest target is 5
		 -> I2C1_ReadDataBlock@bufferBlock(COMRAM[4]), I2C1_Write2ByteRegister@data(COMRAM[2]), I2C1_Write1ByteRegister@data(COMRAM[1]), I2C1_Read2ByteRegister@returnValue(COMRAM[2]), 
		 -> NULL(NULL[0]), I2C1_Read1ByteRegister@returnValue(COMRAM[1]), 

    cb$0	PTR void  size(2) Largest target is 5
		 -> I2C1_ReadDataBlock@bufferBlock(COMRAM[4]), I2C1_Write2ByteRegister@data(COMRAM[2]), I2C1_Write1ByteRegister@data(COMRAM[1]), I2C1_Read2ByteRegister@returnValue(COMRAM[2]), 
		 -> NULL(NULL[0]), I2C1_Read1ByteRegister@returnValue(COMRAM[1]), 

    S296$0$0	PTR void  size(2) Largest target is 5
		 -> I2C1_ReadDataBlock@bufferBlock(COMRAM[4]), I2C1_Write2ByteRegister@data(COMRAM[2]), I2C1_Write1ByteRegister@data(COMRAM[1]), I2C1_Read2ByteRegister@returnValue(COMRAM[2]), 
		 -> NULL(NULL[0]), I2C1_Read1ByteRegister@returnValue(COMRAM[1]), 

    I2C1_SetCallback@ptr	PTR void  size(2) Largest target is 5
		 -> I2C1_ReadDataBlock@bufferBlock(COMRAM[4]), I2C1_Write2ByteRegister@data(COMRAM[2]), I2C1_Write1ByteRegister@data(COMRAM[1]), I2C1_Read2ByteRegister@returnValue(COMRAM[2]), 
		 -> NULL(NULL[0]), I2C1_Read1ByteRegister@returnValue(COMRAM[1]), 

    I2C1_SetCallback@cb	PTR FTN(PTR void ,)enum E360 size(3) Largest target is 1
		 -> Absolute function(), rdBlkRegCompleteHandler(), wr2RegCompleteHandler(), wr1RegCompleteHandler(), 
		 -> rd2RegCompleteHandler(), rd1RegCompleteHandler(), 

    I2C1_SetAddressNackCallback@ptr	PTR void  size(2) Largest target is 0
		 -> NULL(NULL[0]), 

    I2C1_SetAddressNackCallback@cb	PTR FTN(PTR void ,)enum E360 size(3) Largest target is 1
		 -> Absolute function(), 

    I2C1_SetDataCompleteCallback@ptr	PTR void  size(2) Largest target is 5
		 -> I2C1_ReadDataBlock@bufferBlock(COMRAM[4]), I2C1_Write2ByteRegister@data(COMRAM[2]), I2C1_Write1ByteRegister@data(COMRAM[1]), I2C1_Read2ByteRegister@returnValue(COMRAM[2]), 
		 -> NULL(NULL[0]), I2C1_Read1ByteRegister@returnValue(COMRAM[1]), 

    I2C1_SetDataCompleteCallback@cb	PTR FTN(PTR void ,)enum E360 size(3) Largest target is 1
		 -> Absolute function(), rdBlkRegCompleteHandler(), wr2RegCompleteHandler(), wr1RegCompleteHandler(), 
		 -> rd2RegCompleteHandler(), rd1RegCompleteHandler(), 

    I2C1_SetBuffer@buffer	PTR void  size(2) Largest target is 9471
		 -> I2C1_Read1ByteRegister@returnValue.data(COMRAM[3]), I2C1_Read2ByteRegister@returnValue.data(COMRAM[3]), I2C1_Write1ByteRegister@data.data(COMRAM[3]), I2C1_Write2ByteRegister@data.data(COMRAM[3]), 
		 -> RAM(DATA[9471]), I2C1_ReadDataBlock@reg(COMRAM[1]), I2C1_ReadDataBlock@bufferBlock(COMRAM[4]), bufferBlock.data(COMRAM[3]), 
		 -> I2C1_Write2ByteRegister@reg(COMRAM[1]), I2C1_Write2ByteRegister@data(COMRAM[2]), I2C1_Write1ByteRegister@reg(COMRAM[1]), I2C1_Write1ByteRegister@data(COMRAM[1]), 
		 -> I2C1_Read2ByteRegister@reg(COMRAM[1]), I2C1_Read2ByteRegister@returnValue(COMRAM[2]), NULL(NULL[0]), I2C1_Read1ByteRegister@reg(COMRAM[1]), 
		 -> I2C1_Read1ByteRegister@returnValue(COMRAM[1]), 

    S296$data_ptr	PTR unsigned char  size(2) Largest target is 9471
		 -> RAM(DATA[9471]), I2C1_ReadDataBlock@reg(COMRAM[1]), I2C1_ReadDataBlock@bufferBlock(COMRAM[4]), I2C1_Write2ByteRegister@reg(COMRAM[1]), 
		 -> I2C1_Write2ByteRegister@data(COMRAM[2]), I2C1_Write1ByteRegister@reg(COMRAM[1]), I2C1_Write1ByteRegister@data(COMRAM[1]), I2C1_Read2ByteRegister@reg(COMRAM[1]), 
		 -> I2C1_Read2ByteRegister@returnValue(COMRAM[2]), NULL(NULL[0]), I2C1_Read1ByteRegister@reg(COMRAM[1]), I2C1_Read1ByteRegister@returnValue(COMRAM[1]), 

    I2C1_Status.data_ptr	PTR unsigned char  size(2) Largest target is 9471
		 -> I2C1_Read1ByteRegister@returnValue.data(COMRAM[3]), I2C1_Read2ByteRegister@returnValue.data(COMRAM[3]), I2C1_Write1ByteRegister@data.data(COMRAM[3]), I2C1_Write2ByteRegister@data.data(COMRAM[3]), 
		 -> RAM(DATA[9471]), I2C1_ReadDataBlock@reg(COMRAM[1]), I2C1_ReadDataBlock@bufferBlock(COMRAM[4]), bufferBlock.data(COMRAM[3]), 
		 -> I2C1_Write2ByteRegister@reg(COMRAM[1]), I2C1_Write2ByteRegister@data(COMRAM[2]), I2C1_Write1ByteRegister@reg(COMRAM[1]), I2C1_Write1ByteRegister@data(COMRAM[1]), 
		 -> I2C1_Read2ByteRegister@reg(COMRAM[1]), I2C1_Read2ByteRegister@returnValue(COMRAM[2]), NULL(NULL[0]), I2C1_Read1ByteRegister@reg(COMRAM[1]), 
		 -> I2C1_Read1ByteRegister@returnValue(COMRAM[1]), 

    S296$callbackPayload	PTR void [6] size(2) Largest target is 5
		 -> I2C1_ReadDataBlock@bufferBlock(COMRAM[4]), I2C1_Write2ByteRegister@data(COMRAM[2]), I2C1_Write1ByteRegister@data(COMRAM[1]), I2C1_Read2ByteRegister@returnValue(COMRAM[2]), 
		 -> NULL(NULL[0]), I2C1_Read1ByteRegister@returnValue(COMRAM[1]), 

    I2C1_Status.callbackPayload	PTR void [6] size(2) Largest target is 5
		 -> I2C1_ReadDataBlock@bufferBlock(COMRAM[4]), I2C1_Write2ByteRegister@data(COMRAM[2]), I2C1_Write1ByteRegister@data(COMRAM[1]), I2C1_Read2ByteRegister@returnValue(COMRAM[2]), 
		 -> NULL(NULL[0]), I2C1_Read1ByteRegister@returnValue(COMRAM[1]), 

    S296$callbackTable	PTR FTN(PTR void ,)enum E360[6] size(3) Largest target is 1
		 -> I2C1_CallbackReturnReset(), I2C1_CallbackReturnStop(), Absolute function(), rdBlkRegCompleteHandler(), 
		 -> wr2RegCompleteHandler(), wr1RegCompleteHandler(), rd2RegCompleteHandler(), rd1RegCompleteHandler(), 

    I2C1_Status.callbackTable	PTR FTN(PTR void ,)enum E360[6] size(3) Largest target is 1
		 -> I2C1_CallbackReturnReset(), I2C1_CallbackReturnStop(), Absolute function(), rdBlkRegCompleteHandler(), 
		 -> wr2RegCompleteHandler(), wr1RegCompleteHandler(), rd2RegCompleteHandler(), rd1RegCompleteHandler(), 

    i2c1_fsmStateTable	const PTR FTN()enum E17079[19] size(3) Largest target is 1
		 -> I2C1_DO_BUS_ERROR(), I2C1_DO_BUS_COLLISION(), I2C1_DO_ADDRESS_NACK(), I2C1_DO_RESET(), 
		 -> I2C1_DO_RX_NACK_RESTART(), I2C1_DO_RX_NACK_STOP(), I2C1_DO_TX_ACK(), I2C1_DO_RX_ACK(), 
		 -> I2C1_DO_SEND_STOP(), I2C1_DO_SEND_RESTART(), I2C1_DO_SEND_RESTART_WRITE(), I2C1_DO_SEND_RESTART_READ(), 
		 -> I2C1_DO_RX_EMPTY(), I2C1_DO_TX_EMPTY(), I2C1_DO_RX(), I2C1_DO_TX(), 
		 -> I2C1_DO_SEND_ADR_WRITE(), I2C1_DO_SEND_ADR_READ(), I2C1_DO_IDLE(), 

    rdBlkRegCompleteHandler@ptr.data	PTR unsigned char  size(2) Largest target is 0

    rdBlkRegCompleteHandler@ptr	PTR void  size(2) Largest target is 5
		 -> I2C1_ReadDataBlock@bufferBlock(COMRAM[4]), I2C1_Write2ByteRegister@data(COMRAM[2]), I2C1_Write1ByteRegister@data(COMRAM[1]), I2C1_Read2ByteRegister@returnValue(COMRAM[2]), 
		 -> NULL(NULL[0]), I2C1_Read1ByteRegister@returnValue(COMRAM[1]), 

    wr2RegCompleteHandler@ptr	PTR void  size(2) Largest target is 5
		 -> I2C1_ReadDataBlock@bufferBlock(COMRAM[4]), I2C1_Write2ByteRegister@data(COMRAM[2]), I2C1_Write1ByteRegister@data(COMRAM[1]), I2C1_Read2ByteRegister@returnValue(COMRAM[2]), 
		 -> NULL(NULL[0]), I2C1_Read1ByteRegister@returnValue(COMRAM[1]), 

    wr1RegCompleteHandler@ptr	PTR void  size(2) Largest target is 5
		 -> I2C1_ReadDataBlock@bufferBlock(COMRAM[4]), I2C1_Write2ByteRegister@data(COMRAM[2]), I2C1_Write1ByteRegister@data(COMRAM[1]), I2C1_Read2ByteRegister@returnValue(COMRAM[2]), 
		 -> NULL(NULL[0]), I2C1_Read1ByteRegister@returnValue(COMRAM[1]), 

    rd2RegCompleteHandler@ptr	PTR void  size(2) Largest target is 5
		 -> I2C1_ReadDataBlock@bufferBlock(COMRAM[4]), I2C1_Write2ByteRegister@data(COMRAM[2]), I2C1_Write1ByteRegister@data(COMRAM[1]), I2C1_Read2ByteRegister@returnValue(COMRAM[2]), 
		 -> NULL(NULL[0]), I2C1_Read1ByteRegister@returnValue(COMRAM[1]), 

    rd1RegCompleteHandler@ptr	PTR void  size(2) Largest target is 5
		 -> I2C1_ReadDataBlock@bufferBlock(COMRAM[4]), I2C1_Write2ByteRegister@data(COMRAM[2]), I2C1_Write1ByteRegister@data(COMRAM[1]), I2C1_Read2ByteRegister@returnValue(COMRAM[2]), 
		 -> NULL(NULL[0]), I2C1_Read1ByteRegister@returnValue(COMRAM[1]), 

    S96$data	PTR unsigned char  size(2) Largest target is 0

    bufferBlock.data	PTR unsigned char  size(2) Largest target is 0

    I2C1_WriteNBytes@data	PTR unsigned char  size(2) Largest target is 9471
		 -> RAM(DATA[9471]), 


Critical Paths under _main in COMRAM

    _main->_I2C1_WriteNBytes
    _I2C1_SetAddressNackCallback->_I2C1_SetCallback
    _I2C1_MasterWrite->_I2C1_MasterOperation
    _I2C1_MasterFsm->_I2C1_DO_TX
    _I2C1_DO_TX->_I2C1_CallbackReturnReset
    _I2C1_DO_TX->_I2C1_CallbackReturnStop
    _I2C1_DO_TX->_rd1RegCompleteHandler
    _I2C1_DO_TX->_rd2RegCompleteHandler
    _I2C1_DO_TX->_rdBlkRegCompleteHandler
    _I2C1_DO_TX->_wr1RegCompleteHandler
    _I2C1_DO_TX->_wr2RegCompleteHandler
    _I2C1_DO_TX_EMPTY->_I2C1_CallbackReturnReset
    _I2C1_DO_TX_EMPTY->_I2C1_CallbackReturnStop
    _I2C1_DO_TX_EMPTY->_rd1RegCompleteHandler
    _I2C1_DO_TX_EMPTY->_rd2RegCompleteHandler
    _I2C1_DO_TX_EMPTY->_rdBlkRegCompleteHandler
    _I2C1_DO_TX_EMPTY->_wr1RegCompleteHandler
    _I2C1_DO_TX_EMPTY->_wr2RegCompleteHandler
    _I2C1_DO_SEND_STOP->_I2C1_MasterSendTxData
    _I2C1_DO_SEND_STOP->_I2C1_MasterSetCounter
    _I2C1_DO_RX->_I2C1_DO_RX_EMPTY
    _I2C1_DO_BUS_COLLISION->_I2C1_CallbackReturnReset
    _I2C1_DO_BUS_COLLISION->_I2C1_CallbackReturnStop
    _I2C1_DO_BUS_COLLISION->_rd1RegCompleteHandler
    _I2C1_DO_BUS_COLLISION->_rd2RegCompleteHandler
    _I2C1_DO_BUS_COLLISION->_rdBlkRegCompleteHandler
    _I2C1_DO_BUS_COLLISION->_wr1RegCompleteHandler
    _I2C1_DO_BUS_COLLISION->_wr2RegCompleteHandler
    _I2C1_DO_SEND_RESTART_READ->_I2C1_MasterSetCounter
    _I2C1_DO_RX_EMPTY->_I2C1_CallbackReturnReset
    _I2C1_DO_RX_EMPTY->_I2C1_CallbackReturnStop
    _I2C1_DO_RX_EMPTY->_rd1RegCompleteHandler
    _I2C1_DO_RX_EMPTY->_rd2RegCompleteHandler
    _I2C1_DO_RX_EMPTY->_rdBlkRegCompleteHandler
    _I2C1_DO_RX_EMPTY->_wr1RegCompleteHandler
    _I2C1_DO_RX_EMPTY->_wr2RegCompleteHandler
    _I2C1_DO_ADDRESS_NACK->_I2C1_CallbackReturnReset
    _I2C1_DO_ADDRESS_NACK->_I2C1_CallbackReturnStop
    _I2C1_DO_ADDRESS_NACK->_rd1RegCompleteHandler
    _I2C1_DO_ADDRESS_NACK->_rd2RegCompleteHandler
    _I2C1_DO_ADDRESS_NACK->_rdBlkRegCompleteHandler
    _I2C1_DO_ADDRESS_NACK->_wr1RegCompleteHandler
    _I2C1_DO_ADDRESS_NACK->_wr2RegCompleteHandler
    _wr2RegCompleteHandler->_I2C1_SetDataCompleteCallback
    _wr1RegCompleteHandler->_I2C1_SetDataCompleteCallback
    _rdBlkRegCompleteHandler->_I2C1_SetDataCompleteCallback
    _rd2RegCompleteHandler->_I2C1_SetDataCompleteCallback
    _rd1RegCompleteHandler->_I2C1_SetDataCompleteCallback
    _I2C1_SetDataCompleteCallback->_I2C1_SetCallback

Critical Paths under _main in BANK5

    None.

Critical Paths under _main in BANK6

    None.

Critical Paths under _main in BANK7

    None.

Critical Paths under _main in BANK8

    None.

Critical Paths under _main in BANK9

    None.

Critical Paths under _main in BANK10

    None.

Critical Paths under _main in BANK11

    None.

Critical Paths under _main in BANK12

    None.

Critical Paths under _main in BANK13

    None.

Critical Paths under _main in BANK14

    None.

Critical Paths under _main in BANK15

    None.

Critical Paths under _main in BANK16

    None.

Critical Paths under _main in BANK17

    None.

Critical Paths under _main in BANK18

    None.

Critical Paths under _main in BANK19

    None.

Critical Paths under _main in BANK20

    None.

Critical Paths under _main in BANK21

    None.

Critical Paths under _main in BANK22

    None.

Critical Paths under _main in BANK23

    None.

Critical Paths under _main in BANK24

    None.

Critical Paths under _main in BANK25

    None.

Critical Paths under _main in BANK26

    None.

Critical Paths under _main in BANK27

    None.

Critical Paths under _main in BANK28

    None.

Critical Paths under _main in BANK29

    None.

Critical Paths under _main in BANK30

    None.

Critical Paths under _main in BANK31

    None.

Critical Paths under _main in BANK32

    None.

Critical Paths under _main in BANK33

    None.

Critical Paths under _main in BANK34

    None.

Critical Paths under _main in BANK35

    None.

Critical Paths under _main in BANK36

    None.

Call Graph Tables:

 ---------------------------------------------------------------------------------
 (Depth) Function   	        Calls       Base Space   Used Autos Params    Refs
 ---------------------------------------------------------------------------------
 (0) _main                                                 2     2      0  270277
                                             26 COMRAM     2     2      0
                    _I2C1_Initialize
                          _I2C1_Open
                   _I2C1_WriteNBytes
                  _SYSTEM_Initialize
 ---------------------------------------------------------------------------------
 (1) _SYSTEM_Initialize                                    0     0      0       0
                    _I2C1_Initialize
              _OSCILLATOR_Initialize
             _PIN_MANAGER_Initialize
                     _PMD_Initialize
 ---------------------------------------------------------------------------------
 (2) _PMD_Initialize                                       0     0      0       0
 ---------------------------------------------------------------------------------
 (2) _PIN_MANAGER_Initialize                               0     0      0       0
 ---------------------------------------------------------------------------------
 (2) _OSCILLATOR_Initialize                                0     0      0       0
 ---------------------------------------------------------------------------------
 (2) _I2C1_Initialize                                      0     0      0       0
 ---------------------------------------------------------------------------------
 (1) _I2C1_WriteNBytes                                     5     1      4  270186
                                             21 COMRAM     5     1      4
                         _I2C1_Close
                   _I2C1_MasterWrite
                          _I2C1_Open
        _I2C1_SetAddressNackCallback
                     _I2C1_SetBuffer
 ---------------------------------------------------------------------------------
 (2) _I2C1_SetAddressNackCallback                          5     0      5    1870
                                              6 COMRAM     5     0      5
                   _I2C1_SetCallback
 ---------------------------------------------------------------------------------
 (2) _I2C1_Open                                            2     2      0      46
                                              0 COMRAM     2     2      0
                _I2C1_MasterClearIrq
                    _I2C1_MasterOpen
 ---------------------------------------------------------------------------------
 (3) _I2C1_MasterOpen                                      0     0      0       0
 ---------------------------------------------------------------------------------
 (2) _I2C1_MasterWrite                                     0     0      0  266169
               _I2C1_MasterOperation
 ---------------------------------------------------------------------------------
 (3) _I2C1_MasterOperation                                 2     2      0  266169
                                             19 COMRAM     2     2      0
              _I2C1_DO_SEND_ADR_READ
             _I2C1_DO_SEND_ADR_WRITE
              _I2C1_MasterSetCounter
                        _I2C1_Poller
 ---------------------------------------------------------------------------------
 (4) _I2C1_Poller                                          0     0      0  243908
                     _I2C1_MasterFsm
            _I2C1_MasterWaitForEvent
 ---------------------------------------------------------------------------------
 (5) _I2C1_MasterWaitForEvent                              0     0      0       0
 ---------------------------------------------------------------------------------
 (5) _I2C1_MasterFsm                                       0     0      0  243908
           _I2C1_ClearInterruptFlags
               _I2C1_DO_ADDRESS_NACK *
              _I2C1_DO_BUS_COLLISION *
                  _I2C1_DO_BUS_ERROR *
                       _I2C1_DO_IDLE *
                      _I2C1_DO_RESET *
                         _I2C1_DO_RX *
                     _I2C1_DO_RX_ACK *
                   _I2C1_DO_RX_EMPTY *
            _I2C1_DO_RX_NACK_RESTART *
               _I2C1_DO_RX_NACK_STOP *
              _I2C1_DO_SEND_ADR_READ *
             _I2C1_DO_SEND_ADR_WRITE *
               _I2C1_DO_SEND_RESTART *
          _I2C1_DO_SEND_RESTART_READ *
         _I2C1_DO_SEND_RESTART_WRITE *
                  _I2C1_DO_SEND_STOP *
                         _I2C1_DO_TX *
                     _I2C1_DO_TX_ACK *
                   _I2C1_DO_TX_EMPTY *
                  _I2C1_MasterIsNack
 ---------------------------------------------------------------------------------
 (6) _I2C1_DO_TX_ACK                                       0     0      0       0
                 _I2C1_MasterSendAck
 ---------------------------------------------------------------------------------
 (6) _I2C1_DO_TX                                           6     6      0   66561
                                             13 COMRAM     6     6      0
                   Absolute function *
           _I2C1_CallbackReturnReset *
            _I2C1_CallbackReturnStop *
          _I2C1_DO_SEND_RESTART_READ
         _I2C1_DO_SEND_RESTART_WRITE
                   _I2C1_DO_TX_EMPTY
                  _I2C1_MasterIsNack
            _I2C1_MasterIsTxBufEmpty
              _I2C1_MasterSendTxData
              _rd1RegCompleteHandler *
              _rd2RegCompleteHandler *
            _rdBlkRegCompleteHandler *
              _wr1RegCompleteHandler *
              _wr2RegCompleteHandler *
 ---------------------------------------------------------------------------------
 (7) _I2C1_MasterIsTxBufEmpty                              0     0      0       0
 ---------------------------------------------------------------------------------
 (6) _I2C1_MasterIsNack                                    0     0      0       0
 ---------------------------------------------------------------------------------
 (6) _I2C1_DO_TX_EMPTY                                     2     2      0   22149
                                             13 COMRAM     2     2      0
                   Absolute function *
           _I2C1_CallbackReturnReset *
            _I2C1_CallbackReturnStop *
          _I2C1_MasterDisableRestart
           _I2C1_MasterEnableRestart
              _I2C1_MasterSetCounter
              _rd1RegCompleteHandler *
              _rd2RegCompleteHandler *
            _rdBlkRegCompleteHandler *
              _wr1RegCompleteHandler *
              _wr2RegCompleteHandler *
 ---------------------------------------------------------------------------------
 (6) _I2C1_DO_SEND_STOP                                    0     0      0      44
              _I2C1_MasterGetCounter
              _I2C1_MasterSendTxData
              _I2C1_MasterSetCounter
                    _I2C1_MasterStop
 ---------------------------------------------------------------------------------
 (7) _I2C1_MasterGetCounter                                0     0      0       0
 ---------------------------------------------------------------------------------
 (6) _I2C1_DO_SEND_ADR_WRITE                               0     0      0      22
              _I2C1_MasterSendTxData
 ---------------------------------------------------------------------------------
 (6) _I2C1_DO_RX_NACK_STOP                                 0     0      0       0
                       _I2C1_DO_IDLE
                _I2C1_MasterSendNack
                    _I2C1_MasterStop
 ---------------------------------------------------------------------------------
 (7) _I2C1_MasterStop                                      0     0      0       0
 ---------------------------------------------------------------------------------
 (7) _I2C1_DO_IDLE                                         0     0      0       0
 ---------------------------------------------------------------------------------
 (6) _I2C1_DO_RX_NACK_RESTART                              0     0      0       0
                _I2C1_MasterSendNack
 ---------------------------------------------------------------------------------
 (7) _I2C1_MasterSendNack                                  0     0      0       0
 ---------------------------------------------------------------------------------
 (6) _I2C1_DO_RX_ACK                                       0     0      0       0
                 _I2C1_MasterSendAck
 ---------------------------------------------------------------------------------
 (7) _I2C1_MasterSendAck                                   0     0      0       0
 ---------------------------------------------------------------------------------
 (6) _I2C1_DO_RX                                           3     3      0   22172
                                             15 COMRAM     3     3      0
                   _I2C1_DO_RX_EMPTY
               _I2C1_MasterGetRxData
             _I2C1_MasterIsRxBufFull
 ---------------------------------------------------------------------------------
 (7) _I2C1_MasterIsRxBufFull                               0     0      0       0
 ---------------------------------------------------------------------------------
 (7) _I2C1_MasterGetRxData                                 0     0      0       0
 ---------------------------------------------------------------------------------
 (6) _I2C1_DO_BUS_ERROR                                    0     0      0       0
                _I2C1_MasterResetBus
 ---------------------------------------------------------------------------------
 (6) _I2C1_DO_BUS_COLLISION                                2     2      0   44320
                                             13 COMRAM     2     2      0
                   Absolute function *
           _I2C1_CallbackReturnReset *
            _I2C1_CallbackReturnStop *
                      _I2C1_DO_RESET
          _I2C1_DO_SEND_RESTART_READ
         _I2C1_DO_SEND_RESTART_WRITE
                _I2C1_MasterClearIrq
              _rd1RegCompleteHandler *
              _rd2RegCompleteHandler *
            _rdBlkRegCompleteHandler *
              _wr1RegCompleteHandler *
              _wr2RegCompleteHandler *
 ---------------------------------------------------------------------------------
 (7) _I2C1_DO_SEND_RESTART_WRITE                           0     0      0       0
 ---------------------------------------------------------------------------------
 (7) _I2C1_DO_SEND_RESTART_READ                            0     0      0   22193
              _I2C1_DO_SEND_ADR_READ
              _I2C1_MasterSetCounter
 ---------------------------------------------------------------------------------
 (8) _I2C1_DO_SEND_ADR_READ                                0     0      0   22171
                   _I2C1_DO_RX_EMPTY
              _I2C1_MasterSendTxData
 ---------------------------------------------------------------------------------
 (7) _I2C1_MasterSendTxData                                1     1      0      22
                                              0 COMRAM     1     1      0
 ---------------------------------------------------------------------------------
 (9) _I2C1_DO_RX_EMPTY                                     2     2      0   22149
                                             13 COMRAM     2     2      0
                   Absolute function *
           _I2C1_CallbackReturnReset *
            _I2C1_CallbackReturnStop *
          _I2C1_MasterDisableRestart
           _I2C1_MasterEnableRestart
              _I2C1_MasterSetCounter
              _rd1RegCompleteHandler *
              _rd2RegCompleteHandler *
            _rdBlkRegCompleteHandler *
              _wr1RegCompleteHandler *
              _wr2RegCompleteHandler *
 ---------------------------------------------------------------------------------
 (7) _I2C1_MasterSetCounter                                1     1      0      22
                                              0 COMRAM     1     1      0
 ---------------------------------------------------------------------------------
 (7) _I2C1_MasterEnableRestart                             0     0      0       0
 ---------------------------------------------------------------------------------
 (7) _I2C1_MasterDisableRestart                            0     0      0       0
 ---------------------------------------------------------------------------------
 (6) _I2C1_DO_RESET                                        0     0      0       0
                _I2C1_MasterResetBus
 ---------------------------------------------------------------------------------
 (7) _I2C1_MasterResetBus                                  0     0      0       0
 ---------------------------------------------------------------------------------
 (6) _I2C1_DO_ADDRESS_NACK                                 2     2      0   22127
                                             13 COMRAM     2     2      0
                   Absolute function *
           _I2C1_CallbackReturnReset *
            _I2C1_CallbackReturnStop *
               _I2C1_DO_SEND_RESTART
              _rd1RegCompleteHandler *
              _rd2RegCompleteHandler *
            _rdBlkRegCompleteHandler *
              _wr1RegCompleteHandler *
              _wr2RegCompleteHandler *
 ---------------------------------------------------------------------------------
 (7) _wr2RegCompleteHandler                                2     0      2    4368
                                             11 COMRAM     2     0      2
                     _I2C1_SetBuffer
       _I2C1_SetDataCompleteCallback
 ---------------------------------------------------------------------------------
 (7) _wr1RegCompleteHandler                                2     0      2    4368
                                             11 COMRAM     2     0      2
                     _I2C1_SetBuffer
       _I2C1_SetDataCompleteCallback
 ---------------------------------------------------------------------------------
 (7) _rdBlkRegCompleteHandler                              2     0      2    4390
                                             11 COMRAM     2     0      2
                     _I2C1_SetBuffer
       _I2C1_SetDataCompleteCallback
 ---------------------------------------------------------------------------------
 (7) _rd2RegCompleteHandler                                2     0      2    4368
                                             11 COMRAM     2     0      2
                     _I2C1_SetBuffer
       _I2C1_SetDataCompleteCallback
 ---------------------------------------------------------------------------------
 (7) _rd1RegCompleteHandler                                2     0      2    4368
                                             11 COMRAM     2     0      2
                     _I2C1_SetBuffer
       _I2C1_SetDataCompleteCallback
 ---------------------------------------------------------------------------------
 (8) _I2C1_SetDataCompleteCallback                         5     0      5    2478
                                              6 COMRAM     5     0      5
                   _I2C1_SetCallback
 ---------------------------------------------------------------------------------
 (3) _I2C1_SetCallback                                     6     1      5     914
                                              0 COMRAM     6     1      5
 ---------------------------------------------------------------------------------
 (2) _I2C1_SetBuffer                                       4     0      4    1868
                                              0 COMRAM     4     0      4
 ---------------------------------------------------------------------------------
 (6) _I2C1_DO_SEND_RESTART                                 0     0      0       0
 ---------------------------------------------------------------------------------
 (7) _I2C1_CallbackReturnStop                              2     0      2       0
                                             11 COMRAM     2     0      2
 ---------------------------------------------------------------------------------
 (7) _I2C1_CallbackReturnReset                             2     0      2     265
                                             11 COMRAM     2     0      2
 ---------------------------------------------------------------------------------
 (7) Absolute function(Fake)                               2     0      2       0
 ---------------------------------------------------------------------------------
 (6) _I2C1_ClearInterruptFlags                             0     0      0       0
          _I2C1_MasterClearCountFlag
           _I2C1_MasterClearNackFlag
           _I2C1_MasterClearStopFlag
          _I2C1_MasterIsCountFlagSet
           _I2C1_MasterIsNackFlagSet
           _I2C1_MasterIsStopFlagSet
 ---------------------------------------------------------------------------------
 (7) _I2C1_MasterIsStopFlagSet                             0     0      0       0
 ---------------------------------------------------------------------------------
 (7) _I2C1_MasterIsNackFlagSet                             0     0      0       0
 ---------------------------------------------------------------------------------
 (7) _I2C1_MasterIsCountFlagSet                            0     0      0       0
 ---------------------------------------------------------------------------------
 (7) _I2C1_MasterClearStopFlag                             0     0      0       0
 ---------------------------------------------------------------------------------
 (7) _I2C1_MasterClearNackFlag                             0     0      0       0
 ---------------------------------------------------------------------------------
 (7) _I2C1_MasterClearCountFlag                            0     0      0       0
 ---------------------------------------------------------------------------------
 (2) _I2C1_Close                                           1     1      0      15
                                              0 COMRAM     1     1      0
                _I2C1_MasterClearIrq
                   _I2C1_MasterClose
              _I2C1_MasterDisableIrq
 ---------------------------------------------------------------------------------
 (3) _I2C1_MasterDisableIrq                                0     0      0       0
 ---------------------------------------------------------------------------------
 (3) _I2C1_MasterClose                                     0     0      0       0
 ---------------------------------------------------------------------------------
 (3) _I2C1_MasterClearIrq                                  0     0      0       0
 ---------------------------------------------------------------------------------
 Estimated maximum stack depth 9
 ---------------------------------------------------------------------------------

 Call Graph Graphs:

 _main (ROOT)
   _I2C1_Initialize
   _I2C1_Open
     _I2C1_MasterClearIrq
     _I2C1_MasterOpen
   _I2C1_WriteNBytes
     _I2C1_Close
       _I2C1_MasterClearIrq
       _I2C1_MasterClose
       _I2C1_MasterDisableIrq
     _I2C1_MasterWrite
       _I2C1_MasterOperation
         _I2C1_DO_SEND_ADR_READ
           _I2C1_DO_RX_EMPTY
             Absolute function(Fake) *
             _I2C1_CallbackReturnReset *
             _I2C1_CallbackReturnStop *
             _I2C1_MasterDisableRestart *
             _I2C1_MasterEnableRestart *
             _I2C1_MasterSetCounter *
             _rd1RegCompleteHandler *
               _I2C1_SetBuffer
               _I2C1_SetDataCompleteCallback
                 _I2C1_SetCallback
             _rd2RegCompleteHandler *
               _I2C1_SetBuffer
               _I2C1_SetDataCompleteCallback
             _rdBlkRegCompleteHandler *
               _I2C1_SetBuffer
               _I2C1_SetDataCompleteCallback
             _wr1RegCompleteHandler *
               _I2C1_SetBuffer
               _I2C1_SetDataCompleteCallback
             _wr2RegCompleteHandler *
               _I2C1_SetBuffer
               _I2C1_SetDataCompleteCallback
           _I2C1_MasterSendTxData
         _I2C1_DO_SEND_ADR_WRITE
           _I2C1_MasterSendTxData
         _I2C1_MasterSetCounter
         _I2C1_Poller
           _I2C1_MasterFsm
             _I2C1_ClearInterruptFlags
               _I2C1_MasterClearCountFlag
               _I2C1_MasterClearNackFlag
               _I2C1_MasterClearStopFlag
               _I2C1_MasterIsCountFlagSet
               _I2C1_MasterIsNackFlagSet
               _I2C1_MasterIsStopFlagSet
             _I2C1_DO_ADDRESS_NACK *
               Absolute function(Fake) *
               _I2C1_CallbackReturnReset *
               _I2C1_CallbackReturnStop *
               _I2C1_DO_SEND_RESTART *
               _rd1RegCompleteHandler *
               _rd2RegCompleteHandler *
               _rdBlkRegCompleteHandler *
               _wr1RegCompleteHandler *
               _wr2RegCompleteHandler *
             _I2C1_DO_BUS_COLLISION *
               Absolute function(Fake) *
               _I2C1_CallbackReturnReset *
               _I2C1_CallbackReturnStop *
               _I2C1_DO_RESET *
                 _I2C1_MasterResetBus
               _I2C1_DO_SEND_RESTART_READ *
                 _I2C1_DO_SEND_ADR_READ
                 _I2C1_MasterSetCounter
               _I2C1_DO_SEND_RESTART_WRITE *
               _I2C1_MasterClearIrq *
               _rd1RegCompleteHandler *
               _rd2RegCompleteHandler *
               _rdBlkRegCompleteHandler *
               _wr1RegCompleteHandler *
               _wr2RegCompleteHandler *
             _I2C1_DO_BUS_ERROR *
               _I2C1_MasterResetBus
             _I2C1_DO_IDLE *
             _I2C1_DO_RESET *
             _I2C1_DO_RX *
               _I2C1_DO_RX_EMPTY
               _I2C1_MasterGetRxData
               _I2C1_MasterIsRxBufFull
             _I2C1_DO_RX_ACK *
               _I2C1_MasterSendAck
             _I2C1_DO_RX_EMPTY *
             _I2C1_DO_RX_NACK_RESTART *
               _I2C1_MasterSendNack
             _I2C1_DO_RX_NACK_STOP *
               _I2C1_DO_IDLE
               _I2C1_MasterSendNack
               _I2C1_MasterStop
             _I2C1_DO_SEND_ADR_READ *
             _I2C1_DO_SEND_ADR_WRITE *
             _I2C1_DO_SEND_RESTART *
             _I2C1_DO_SEND_RESTART_READ *
             _I2C1_DO_SEND_RESTART_WRITE *
             _I2C1_DO_SEND_STOP *
               _I2C1_MasterGetCounter
               _I2C1_MasterSendTxData
               _I2C1_MasterSetCounter
               _I2C1_MasterStop
             _I2C1_DO_TX *
               Absolute function(Fake) *
               _I2C1_CallbackReturnReset *
               _I2C1_CallbackReturnStop *
               _I2C1_DO_SEND_RESTART_READ *
               _I2C1_DO_SEND_RESTART_WRITE *
               _I2C1_DO_TX_EMPTY *
                 Absolute function(Fake) *
                 _I2C1_CallbackReturnReset *
                 _I2C1_CallbackReturnStop *
                 _I2C1_MasterDisableRestart *
                 _I2C1_MasterEnableRestart *
                 _I2C1_MasterSetCounter *
                 _rd1RegCompleteHandler *
                 _rd2RegCompleteHandler *
                 _rdBlkRegCompleteHandler *
                 _wr1RegCompleteHandler *
                 _wr2RegCompleteHandler *
               _I2C1_MasterIsNack *
               _I2C1_MasterIsTxBufEmpty *
               _I2C1_MasterSendTxData *
               _rd1RegCompleteHandler *
               _rd2RegCompleteHandler *
               _rdBlkRegCompleteHandler *
               _wr1RegCompleteHandler *
               _wr2RegCompleteHandler *
             _I2C1_DO_TX_ACK *
               _I2C1_MasterSendAck
             _I2C1_DO_TX_EMPTY *
             _I2C1_MasterIsNack *
           _I2C1_MasterWaitForEvent
     _I2C1_Open
     _I2C1_SetAddressNackCallback
       _I2C1_SetCallback
     _I2C1_SetBuffer
   _SYSTEM_Initialize
     _I2C1_Initialize
     _OSCILLATOR_Initialize
     _PIN_MANAGER_Initialize
     _PMD_Initialize

 Address spaces:
Name               Size   Autos  Total    Cost      Usage
BIGRAM            1FFF      0       0      69        0.0%
EEDATA             400      0       0       0        0.0%
BITBIGSFRhhhhhl    163      0       0      80        0.0%
BITBIGSFRhhhlll    160      0       0      86        0.0%
BITBIGSFR_1        100      0       0      68        0.0%
BITBANK36          100      0       0      66        0.0%
BANK36             100      0       0      67        0.0%
BITBANK35          100      0       0      64        0.0%
BANK35             100      0       0      65        0.0%
BITBANK34          100      0       0      62        0.0%
BANK34             100      0       0      63        0.0%
BITBANK33          100      0       0      60        0.0%
BANK33             100      0       0      61        0.0%
BITBANK32          100      0       0      58        0.0%
BANK32             100      0       0      59        0.0%
BITBANK31          100      0       0      56        0.0%
BANK31             100      0       0      57        0.0%
BITBANK30          100      0       0      54        0.0%
BANK30             100      0       0      55        0.0%
BITBANK29          100      0       0      52        0.0%
BANK29             100      0       0      53        0.0%
BITBANK28          100      0       0      50        0.0%
BANK28             100      0       0      51        0.0%
BITBANK27          100      0       0      48        0.0%
BANK27             100      0       0      49        0.0%
BITBANK26          100      0       0      46        0.0%
BANK26             100      0       0      47        0.0%
BITBANK25          100      0       0      44        0.0%
BANK25             100      0       0      45        0.0%
BITBANK24          100      0       0      42        0.0%
BANK24             100      0       0      43        0.0%
BITBANK23          100      0       0      40        0.0%
BANK23             100      0       0      41        0.0%
BITBANK22          100      0       0      38        0.0%
BANK22             100      0       0      39        0.0%
BITBANK21          100      0       0      36        0.0%
BANK21             100      0       0      37        0.0%
BITBANK20          100      0       0      34        0.0%
BANK20             100      0       0      35        0.0%
BITBANK19          100      0       0      32        0.0%
BANK19             100      0       0      33        0.0%
BITBANK18          100      0       0      30        0.0%
BANK18             100      0       0      31        0.0%
BITBANK17          100      0       0      28        0.0%
BANK17             100      0       0      29        0.0%
BITBANK16          100      0       0      26        0.0%
BANK16             100      0       0      27        0.0%
BITBANK15          100      0       0      24        0.0%
BANK15             100      0       0      25        0.0%
BITBANK14          100      0       0      22        0.0%
BANK14             100      0       0      23        0.0%
BITBANK13          100      0       0      20        0.0%
BANK13             100      0       0      21        0.0%
BITBANK12          100      0       0      18        0.0%
BANK12             100      0       0      19        0.0%
BITBANK11          100      0       0      16        0.0%
BANK11             100      0       0      17        0.0%
BITBANK10          100      0       0      14        0.0%
BANK10             100      0       0      15        0.0%
BITBANK9           100      0       0      12        0.0%
BANK9              100      0       0      13        0.0%
BITBANK8           100      0       0      10        0.0%
BANK8              100      0       0      11        0.0%
BITBANK7           100      0       0       8        0.0%
BANK7              100      0       0       9        0.0%
BITBANK6           100      0       0       6        0.0%
BANK6              100      0       0       7        0.0%
BITBANK5            A0      0       0       4        0.0%
BANK5               A0      0       0       5        0.0%
BITBIGSFRhhhhhl     78      0       0      74        0.0%
BITBIGSFRll         60      0       0      91        0.0%
BITCOMRAM           5F      0       0       0        0.0%
COMRAM              5F     1C      47       1       74.7%
BITBIGSFRhhhlll     5A      0       0      85        0.0%
BITBIGSFRlhh        43      0       0      89        0.0%
BITBIGSFRhhhhhh     34      0       0      70        0.0%
BITBIGSFRhhhlll     14      0       0      84        0.0%
BITBIGSFRhhhhhh      F      0       0      73        0.0%
BITBIGSFRhhhhhh      8      0       0      72        0.0%
BITBIGSFRhhhlh       6      0       0      82        0.0%
BITBIGSFRhhhhhl      3      0       0      79        0.0%
BITBIGSFRhhhhhl      3      0       0      75        0.0%
BITBIGSFRhhhhhl      3      0       0      78        0.0%
BITBIGSFRhhhhhl      3      0       0      77        0.0%
BITBIGSFRhhhhhl      3      0       0      76        0.0%
BITBIGSFRhhhhhh      2      0       0      71        0.0%
BITBIGSFRhhhllh      1      0       0      83        0.0%
BITBIGSFRhhhhll      1      0       0      81        0.0%
BITBIGSFRlhl         1      0       0      90        0.0%
BITBIGSFRhhlh        1      0       0      87        0.0%
BITBIGSFRhl          1      0       0      88        0.0%
BIGSFR_1             0      0       0     200        0.0%
BIGSFR               0      0       0     200        0.0%
BITSFR_6             0      0       0     200        0.0%
SFR_6                0      0       0     200        0.0%
BITSFR_5             0      0       0     200        0.0%
SFR_5                0      0       0     200        0.0%
BITSFR_4             0      0       0     200        0.0%
SFR_4                0      0       0     200        0.0%
BITSFR_3             0      0       0     200        0.0%
SFR_3                0      0       0     200        0.0%
BITSFR_2             0      0       0     200        0.0%
SFR_2                0      0       0     200        0.0%
BITSFR_1             0      0       0     200        0.0%
SFR_1                0      0       0     200        0.0%
BITSFR               0      0       0     200        0.0%
SFR                  0      0       0     200        0.0%
STACK                0      0       0       2        0.0%
NULL                 0      0       0       0        0.0%
ABS                  0      0      47      92        0.0%
DATA                 0      0      47       3        0.0%
CODE                 0      0       0       0        0.0%


Microchip Technology PIC18 Macro Assembler V2.40 build 20220703182018 
Symbol Table                                                                                   Wed Jan 25 17:06:31 2023

                                  l90 2EA8                                    l93 2E78  
                                  l69 2CDC                                    l96 2E48  
                                  l99 2ED8                                    u70 3118  
                                  u71 3112                                    u80 30EC  
                                  u81 30E6                                    u90 3102  
                                  u91 30FC                                    u76 311A  
                                  u86 30EE                                    u96 3104  
                                 l102 2E18                                   l300 28AA  
                                 l141 3140                                   l310 2DD4  
                                 l304 2F56                                   l144 3026  
                                 l402 2AD6                                   l323 300A  
                                 l411 2948                                   l147 2FC6  
                                 l420 3176                                   l316 319E  
                                 l332 3042                                   l501 3196  
                                 l326 307A                                   l510 31DA  
                                 l430 2F7E                                   l343 2A5C  
                                 l423 3212                                   l504 31F2  
                                 l361 2D88                                   l513 30C2  
                                 l433 31AE                                   l353 2C20  
                                 l426 320E                                   l442 31A6  
                                 l531 30EE                                   l507 31F8  
                                 l371 312E                                   l451 2BB6  
                                 l540 31FE                                   l516 31E6  
                                 l436 31B6                                   l364 318C  
                                 l525 30D8                                   l445 315C  
                                 l349 305E                                   l534 311A  
                                 l470 321A                                   l543 320A  
                                 l519 31E0                                   l439 316A  
                                 l560 31CE                                   l528 30AC  
                                 l368 2F2C                                   l464 314E  
                                 l296 2FE8                                   l537 3104  
                                 l473 3216                                   l377 275A  
                                 l546 3204                                   l394 29D8  
                                 l458 2B4A                                   l395 2990  
                                 l571 2D36                                   l563 2CDE  
                                 l483 2F02                                   l492 31BE  
                                 l564 2CF0                                   l557 3096  
                                 l486 3182                                   l566 2D02  
                                 l495 31D4                                   l567 2D16  
                                 l568 2D28                                   l489 31EC  
                                 l498 31C6                                   l674 2808  
                                 u120 30D6                                   u121 30D0  
                                 u130 2D4C                                   u131 2D48  
                                 u140 2D68                                   u300 2D24  
                                 u141 2D64                                   u301 2D20  
                                 u150 2D84                                   u126 30D8  
                                 u310 2D36                                   u151 2D80  
                                 u311 2D32                                   u400 2F40  
                                 u401 2F3C                                   u270 2CEC  
                                 u271 2CE8                                   u600 29F0  
                                 u280 2CFE                                   u360 2EEA  
                                 u601 29EC                                   u281 2CFA  
                                 u361 2EE6                                   u610 2FF8  
                                 u290 2D12                                   u611 2FF4  
                                 u291 2D0E                                   u700 26DC  
                                 u620 28E4                                   u701 26D8  
                                 u621 28E0                                   u710 26F0  
                                 u711 26EC                                   u640 2F1E  
                                 u720 2730                                   u800 2BE4  
                                 u641 2F1A                                   u721 272C  
                                 u801 2BE0                                   u650 30C0  
                                 u730 295E                                   u651 30BA  
                                 u731 295A                                   u660 30AA  
                                 u740 2978                                   u820 305E  
                                 u661 30A4                                   u741 2974  
                                 u821 305A                                   u750 29A8  
                                 u638 28FC                                   u830 2D9E  
                                 u751 29A4                                   u639 2910  
                                 u831 2D9A                                   u656 30C2  
                                 u680 2650                                   u760 2F70  
                                 u840 2DBA                                   u681 264C  
                                 u761 2F6C                                   u841 2DB6  
                                 u666 30AC                                   u818 2C04  
                                 u850 281E                                   u819 2C1E  
                                 u851 281A                                   u860 2C98  
                                 u861 2C94                                   u678 2A92  
                                 u790 2BD0                                   u870 2CDC  
                                 u679 2AA6                                   u791 2BCC  
                                 u871 2CD8                                   u698 267C  
                                 u778 2B7A                                   u699 2690  
                                 u779 2B8E                                   u788 2B0E  
                                 u789 2B22           ??_I2C1_MasterClearCountFlag 052B  
               ?_I2C1_MasterOperation 052B                ?_I2C1_MasterSetCounter 052B  
                                 prod 0004F3                                   tosl 0004FD  
                                 wreg 0004E8                ?_I2C1_MasterSendTxData 052B  
                _I2C1_DO_RX_NACK_STOP 315E             ?_I2C1_MasterEnableRestart 052B  
            fp__I2C1_DO_SEND_ADR_READ 0000               fp__I2C1_DO_SEND_RESTART 0000  
                I2C1_SetBuffer@buffer 052B            ??_I2C1_MasterIsStopFlagSet 052B  
             ??_rd2RegCompleteHandler 0538                                  l2301 28B2  
                                l1503 3106                                  l2231 29F0  
                                l2303 28B6                                  l1513 31FA  
                                l2241 3000                                  l2233 2A28  
                                l1521 3184                                  l2321 28E4  
                                l2313 28C6                                  l1507 3206  
                                l1515 30F0                                  l1611 2D38  
                                l2243 3008                                  l2235 3060  
                                l1523 3186                                  l2411 265C  
                                l2403 263C                                  l2323 28E8  
                                l2315 28CC                                  l2307 28BC  
                                l1509 30DA                                  l1621 2D84  
                                l1613 2D4C                                  l2237 2FEA  
                                l2229 29DC                                  l2245 2E7A  
                                l2253 2E4A                                  l2261 2E1A  
                                l1525 318A                                  l2341 2F1E  
                                l2421 266A                                  l2309 28C0  
                                l2501 2B5A                                  l1519 3200  
                                l1615 2D54                                  l2239 2FF8  
                                l2271 2EBE                                  l2247 2E8E  
                                l2255 2E5E                                  l2263 2E2E  
                                l2335 31BA                                  l2343 2F22  
                                l2431 2714                                  l2415 2664  
                                l2407 2654                                  l2423 26C8  
                                l2319 28D2                                  l2511 2B68  
                                l1617 2D68                                  l2273 2ED6  
                                l2249 2EA6                                  l2257 2E76  
                                l2265 2E46                                  l2281 2E16  
                                l2345 2F2A                                  l2337 2F04  
                                l2441 274C                                  l2433 2718  
                                l2425 26DC                                  l2329 28EE  
                                l2353 316C                                  l2505 2B62  
                                l2521 2AE4                                  l2601 2836  
                                l1619 2D70                                  l2291 3218  
                                l1571 30C4                                  l2363 3098  
                                l1723 31B0                                  l2339 2F0C  
                                l2443 2752                                  l2435 2730  
                                l2427 26F0                                  l2371 2A68  
                                l2355 3172                                  l1731 3166  
                                l2611 2860                                  l2603 2838  
                                l2269 2EAA                                  l2277 2DD6  
                                l2285 31C2                                  l2349 30AE  
                                l1725 31B4                                  l2437 2740  
                                l2429 2708                                  l2381 2A7A  
                                l1717 31A8                                  l2525 2AEC  
                                l2517 2AD8                                  l2541 2BB8  
                                l2621 2894                                  l2613 286C  
                                l2605 2844                                  l2279 2DFE  
                                l2295 3214                                  l1495 318E  
                                l2287 31EE                                  l1575 31E8  
                                l1591 31DC                                  l1583 31D6  
                                l2439 2748                                  l2463 2964  
                                l2383 2A7E                                  l2375 2A6E  
                                l2367 2A5E                                  l2359 3210  
                                l1719 31AC                                  l1735 31A0  
                                l2535 2AFC                                  l2519 2ADC  
                                l2543 2BBC                                  l2551 3044  
                                l1823 2EDA                                  l2623 289C  
                                l2615 2874                                  l2607 284C  
                                l1497 31C8                                  l1833 307C  
                                l1921 2F2E                                  l2289 31F4  
                                l1585 31D0                                  l2449 2758  
                                l2481 29D2                                  l2465 2978  
                                l2457 294A                                  l2377 2A74  
                                l2369 2A64                                  l1729 315E  
                                l1737 31A4                                  l1593 3150  
                                l2529 2AF4                                  l2545 2BD0  
                                l2553 3048                                  l2561 2D90  
                                l1825 2EEA                                  l2625 28A0  
                                l2617 2880                                  l2609 2858  
                                l2633 3028                                  l2641 2C82  
                                l1835 3178                                  l1931 2F4C  
                                l1923 2F32                                  l2395 311C  
                                l2483 29D6                                  l2467 29A8  
                                l2459 295E                                  l2299 28AC  
                                l1579 320C                                  l2491 2F70  
                                l1595 3154                                  l2547 2BE4  
                                l2555 304C                                  l2571 2DBA  
                                l2563 2D9E                                  l2635 3198  
                                l1827 2EF6                                  l2627 28A4  
                                l2619 2888                                  l2643 2C98  
                                l1837 317C                                  l1933 2F50  
                                l1925 2F40                                  l1589 31E2  
                                l2397 3124                                  l2469 29B6  
                                l2477 29BE                                  l2389 2A84  
                                l2493 2F7C                                  l1597 3156  
                                l2549 2BE8                                  l2557 3050  
                                l2573 2DBE                                  l2565 2DA0  
                                l2581 2DD2                                  l1829 2F00  
                                l2629 28A8                                  l2645 2CAC  
                                l1941 2FC8                                  l2741 2C22  
                                l1839 3180                                  l1927 2F44  
                                l1935 2F54                                  l2399 312C  
                                l2479 29C4                                  l2487 2F58  
                                l1599 315A                                  l1791 314C  
                                l2575 2DC6                                  l2567 2DA4  
                                l2559 2D8C                                  l2591 2822  
                                l2647 2CC4                                  l2639 2C82  
                                l1943 2FE6                                  l1951 277A  
                                l2751 2C62                                  l2743 2C2A  
                                l1929 2F48                                  l2489 2F5C  
                                l2497 2B4C                                  l1785 3142  
                                l2577 2DCA                                  l2569 2DAA  
                                l2593 2824                                  l2585 280C  
                                l2649 2CC8                                  l1961 2792  
                                l1953 277C                                  l2745 2C32  
                                l2499 2B54                                  l1787 3146  
                                l2579 2DCE                                  l2595 2826  
                                l2587 2810                                  l1971 27E0  
                                l1963 2794                                  l1955 2782  
                                l1947 275C                                  l1939 2FA4  
                                l2747 2C42                                  l2861 26A2  
                                l2853 2B34                                  l1789 3148  
                                l2597 282A                                  l2589 281E  
                                l1981 27EE                                  l1973 27E6  
                                l1965 27DA                                  l1957 2784  
                                l1949 2778                                  l2749 2C52  
                                l2855 2BA0                                  l2599 282E  
                                l1983 27F4                                  l1975 27E8  
                                l1967 27DC                                  l1959 278C  
                                l2857 2922                                  l1985 300C  
                                l1977 27EA                                  l1969 27DE  
                                l2859 2AB8                                  l1979 27EC  
                                l1999 3130                                  u1000 2C42  
                                u1001 2C3E                                  u1010 2C62  
                                u1011 2C5E                                  u1027 2C48  
                                _LATA 0004BE                                  _LATB 0004BF  
                                _LATC 0004C0                                  _LATD 0004C1  
                                _LATE 0004C2                                  _LATF 0004C3  
                                _PMD0 000060                                  _PMD1 000061  
                                _PMD3 000063                                  _PMD4 000064  
                                _PMD5 000065                                  _PMD6 000066  
                                _PMD7 000067                                  _PMD8 000068  
                                _WPUA 000401                                  _WPUB 000409  
                                _WPUC 000411                                  _WPUD 000419  
                                _WPUE 000421                                  _WPUF 000429  
             ??_wr2RegCompleteHandler 0538                      ??_I2C1_MasterFsm 053E  
                                _Send 0547             ??_I2C1_CallbackReturnStop 0538  
                                _main 2C22                                  fsr2h 0004DA  
                                indf2 0004DF                                  fsr2l 0004D9  
                                prodh 0004F4                                  prodl 0004F3  
                                start FFFC                      ??_I2C1_SetBuffer 052F  
                        ___param_bank 000000         I2C1_CallbackReturnStop@funPtr 0536  
       __end_of_OSCILLATOR_Initialize 3028                     __end_of_I2C1_Open 28AC  
                               ?_main 052B            __end_of_i2c1_fsmStateTable 263A  
                               _OSCEN 0000B3                                 _TRISA 0004C6  
                               _TRISB 0004C7                                 _TRISC 0004C8  
                               _TRISD 0004C9                                 _TRISE 0004CA  
                               _TRISF 0004CB                ??_I2C1_MasterGetRxData 052B  
               ?_I2C1_DO_RX_NACK_STOP 052B            ??_I2C1_CallbackReturnReset 0538  
                   ??_I2C1_MasterOpen 052B                     ??_I2C1_MasterStop 052B  
                   ??_I2C1_Initialize 052B             ?_I2C1_MasterIsNackFlagSet 052B  
    __end_of_I2C1_MasterClearNackFlag 3206                                 pclath 0004FA  
                               tablat 0004F5                                 status 0004D8  
                        ??_I2C1_DO_RX 053A                          ??_I2C1_DO_TX 0538  
           _I2C1_MasterClearCountFlag 3206                ??_I2C1_DO_ADDRESS_NACK 0538  
                        ??_I2C1_Close 052B              fp__rd1RegCompleteHandler 0000  
                     __initialization 2F80                          __end_of_main 2C80  
            fp__wr1RegCompleteHandler 0000            ?_I2C1_MasterDisableRestart 052B  
        I2C1_MasterSetCounter@counter 052B      __end_of_I2C1_MasterClearStopFlag 3200  
        fp__I2C1_DO_SEND_RESTART_READ 0000                ??_I2C1_MasterOperation 053E  
                              ??_main 0545                         __activetblptr 000003  
                  __end_of_I2C1_DO_RX 29DA                    __end_of_I2C1_DO_TX 275C  
                  __end_of_I2C1_Close 2F58              __end_of_I2C1_WriteNBytes 2CDE  
                              _ACTCON 0000AC                                _ANSELA 000400  
                              _ANSELB 000408                                _ANSELC 000410  
                              _ANSELD 000418                                _ANSELE 000420  
                              _ANSELF 000428                                _RB1I2C 000289  
                              _RB2I2C 000288                                _RC3I2C 000287  
                              _RC4I2C 000286                                _RC3PPS 000214  
                              _RC4PPS 000215                                _ODCONA 000402  
                              _ODCONB 00040A                                _ODCONC 000412  
                              _ODCOND 00041A                                _ODCONE 000422  
                              _ODCONF 00042A                                _INLVLA 000404  
                              _INLVLB 00040C                                _INLVLC 000414  
                              _INLVLD 00041C                                _INLVLE 000424  
                              _INLVLF 00042C               ??_I2C1_MasterGetCounter 052B  
                              _OSCFRQ 0000B1                     ?_I2C1_MasterClose 052B  
                    _I2C1_DO_RX_EMPTY 28AC               ??_I2C1_MasterDisableIrq 052B  
                   ?_I2C1_MasterWrite 052B              ?_I2C1_MasterWaitForEvent 052B  
                  ??_I2C1_MasterClose 052B                      _I2C1_DO_TX_EMPTY 2A5E  
                  ??_I2C1_MasterWrite 0540     __end_of_I2C1_MasterDisableRestart 31FA  
                              clear_0 2F98                                isa$std 000001  
            ??_I2C1_DO_SEND_ADR_WRITE 052B                     ?_I2C1_SetCallback 052B  
              ??_I2C1_DO_RX_NACK_STOP 052B               ??_I2C1_DO_BUS_COLLISION 0538  
               _I2C1_DO_SEND_ADR_READ 2F04                        _PMD_Initialize 2FA4  
                        __pdataCOMRAM 0547         ?_I2C1_SetDataCompleteCallback 0531  
                  ??_I2C1_SetCallback 0530                          __mediumconst 0000  
                              tblptrh 0004F7                                tblptrl 0004F6  
                              tblptru 0004F8               _I2C1_DO_RX_NACK_RESTART 31A0  
          fp__I2C1_DO_RX_NACK_RESTART 0000                   I2C1_WriteNBytes@len 0542  
                   _SYSTEM_Initialize 3130        I2C1_SetDataCompleteCallback@cb 0531  
                          __accesstop 0560               __end_of__initialization 2F9E  
     I2C1_MasterOperation@returnValue 053F                    ?_SYSTEM_Initialize 052B  
                       ___rparam_used 000001              _I2C1_MasterClearNackFlag 3200  
                       ??_I2C1_Poller 053E               _rdBlkRegCompleteHandler 2DD6  
          fp__rdBlkRegCompleteHandler 0000                        __pcstackCOMRAM 052B  
                 ??_SYSTEM_Initialize 052B      __end_of_I2C1_MasterEnableRestart 31F4  
             ??_I2C1_MasterSetCounter 052B                __end_of_PMD_Initialize 2FC8  
        ??_I2C1_DO_SEND_RESTART_WRITE 052B               ??_I2C1_MasterSendTxData 052B  
          ?_I2C1_MasterIsCountFlagSet 052B              _I2C1_MasterClearStopFlag 31FA  
               __end_of_I2C1_DO_RESET 315E                     _I2C1_DO_BUS_ERROR 3142  
           __end_of_SYSTEM_Initialize 3142             ?_I2C1_ClearInterruptFlags 052B  
                  ?_I2C1_DO_BUS_ERROR 052B       __end_of_I2C1_MasterWaitForEvent 2D38  
       __end_of_rd2RegCompleteHandler 2E7A                  I2C1_Open@returnValue 052C  
       __end_of_wr2RegCompleteHandler 2EDA                 _rd1RegCompleteHandler 2E7A  
                 ??_I2C1_DO_BUS_ERROR 052B                     _I2C1_DO_SEND_STOP 2F58  
               _wr1RegCompleteHandler 2E1A              rd1RegCompleteHandler@ptr 0536  
                       fp__I2C1_DO_RX 0000                         fp__I2C1_DO_TX 0000  
                     fp__I2C1_DO_IDLE 0000               fp__I2C1_DO_ADDRESS_NACK 0000  
                  ?_I2C1_DO_SEND_STOP 052B                               _I2C1CLK 00029C  
                             _I2C1CNT 00028D                               _I2C1ERR 000297  
                             _I2C1PIE 00029B                               _I2C1PIR 00029A  
                             _I2C1RXB 00028B                               _I2C1TXB 00028C  
    __end_of_I2C1_MasterIsNackFlagSet 3106                       _I2C1_MasterOpen 2EDA  
             _I2C1_MasterIsTxBufEmpty 3098                       _I2C1_MasterStop 31D6  
                     _I2C1_Initialize 2FC8                   __end_of_I2C1_Poller 3060  
                   fp__I2C1_DO_RX_ACK 0000                     fp__I2C1_DO_TX_ACK 0000  
                     ?_PMD_Initialize 052B                ?_I2C1_DO_SEND_ADR_READ 052B  
                 ??_I2C1_DO_SEND_STOP 052C             __end_of_I2C1_DO_BUS_ERROR 3150  
                   _I2C1_MasterIsNack 30AE     __end_of_I2C1_MasterIsCountFlagSet 311C  
                             _OSCCON1 0000AD                               _OSCCON3 0000AF  
                           _I2C1_Open 280A             ??_I2C1_DO_RX_NACK_RESTART 052B  
                             _OSCTUNE 0000B0                               _SLRCONA 000403  
                             _SLRCONB 00040B                               _SLRCONC 000413  
                             _SLRCOND 00041B                               _SLRCONE 000423  
                             _SLRCONF 00042B                 I2C1_DO_RX@retFsmState 053C  
                  ?_I2C1_MasterIsNack 052B            ?_I2C1_DO_SEND_RESTART_READ 052B  
      ??_I2C1_SetDataCompleteCallback 0536                    _i2c1_fsmStateTable 2601  
                 ??_I2C1_MasterIsNack 052B             __end_of_I2C1_DO_SEND_STOP 2F80  
           ??_rdBlkRegCompleteHandler 0538                    I2C1_SetCallback@cb 052B  
                             __Hparam 0000                               __Lparam 0000  
                 fp__I2C1_DO_RX_EMPTY 0000                   fp__I2C1_DO_TX_EMPTY 0000  
           ?_I2C1_MasterIsStopFlagSet 052B           ??_I2C1_MasterDisableRestart 052B  
                        __psmallconst 2600                               __pcinit 2F80  
                       ?_I2C1_DO_IDLE 052B                               __ramtop 2600  
                             __ptext0 2C22                               __ptext1 3130  
                             __ptext2 2FA4                               __ptext3 275C  
                             __ptext4 300C                               __ptext5 2FC8  
                             __ptext6 2C80                               __ptext7 3028  
                             __ptext8 280A                               __ptext9 2EDA  
            _I2C1_MasterEnableRestart 31EE             __end_of_I2C1_MasterIsNack 30C4  
        ?_I2C1_SetAddressNackCallback 0531              __end_of_I2C1_DO_RX_EMPTY 294A  
               _OSCILLATOR_Initialize 300C                           _I2C1ERRbits 000297  
            __end_of_I2C1_DO_TX_EMPTY 2AD8              ??_I2C1_MasterIsRxBufFull 052B  
            ??_PIN_MANAGER_Initialize 052B                           _I2C1PIEbits 00029B  
            wr1RegCompleteHandler@ptr 0536                            ?_I2C1_Open 052B  
                         _I2C1PIRbits 00029A               fp__I2C1_DO_RX_NACK_STOP 0000  
            ?_I2C1_CallbackReturnStop 0536                     ?_I2C1_WriteNBytes 0540  
   __end_of_I2C1_DO_SEND_RESTART_READ 3178                  end_of_initialization 2F9E  
          __end_of_I2C1_MasterSendAck 31E8                   _I2C1_MasterClearIrq 31C8  
                  ??_I2C1_WriteNBytes 0544                ?_rd1RegCompleteHandler 0536  
              _I2C1_DO_SEND_ADR_WRITE 311C         __end_of_I2C1_MasterGetCounter 31D6  
        __end_of_I2C1_DO_SEND_RESTART 3210               __end_of_I2C1_MasterOpen 2F04  
              ?_wr1RegCompleteHandler 0536               __end_of_I2C1_MasterStop 31DC  
             __end_of_I2C1_Initialize 2FEA                           _I2C1_Poller 3044  
           ?_I2C1_CallbackReturnReset 0536         __end_of_I2C1_MasterDisableIrq 3098  
                         _I2C1_Status 0501             ??_I2C1_MasterIsTxBufEmpty 052B  
            fp__rd2RegCompleteHandler 0000                               postdec2 0004DD  
            fp__wr2RegCompleteHandler 0000                               postinc0 0004EE  
                             postinc2 0004DE                   _I2C1_MasterSendNack 31DC  
 __end_of_I2C1_SetAddressNackCallback 3044           _I2C1_SetAddressNackCallback 3028  
                ?_I2C1_MasterClearIrq 052B                        ??_I2C1_DO_IDLE 052B  
                 _I2C1_MasterResetBus 318E    __end_of_I2C1_DO_SEND_RESTART_WRITE 3214  
          _I2C1_DO_SEND_RESTART_WRITE 3210       __end_of_rdBlkRegCompleteHandler 2E1A  
            _I2C1_MasterIsNackFlagSet 30F0                  I2C1_WriteNBytes@data 0540  
       ??_I2C1_SetAddressNackCallback 0536         __end_of_I2C1_DO_BUS_COLLISION 2B4C  
     I2C1_SetDataCompleteCallback@ptr 0534        I2C1_CallbackReturnReset@funPtr 0536  
          ??_I2C1_MasterClearNackFlag 052B                  ?_I2C1_MasterSendNack 052B  
           _I2C1_MasterDisableRestart 31F4                  ?_I2C1_MasterResetBus 052B  
          rdBlkRegCompleteHandler@ptr 0536                            main@status 0546  
                      _I2C1_DO_TX$837 053A                 ??_I2C1_MasterClearIrq 052B  
                    I2C1_DO_TX@dataTx 053C            ??_I2C1_MasterClearStopFlag 052B  
                      _I2C1_DO_RX_ACK 31A8                        _I2C1_DO_TX_ACK 31B0  
                       __pidataCOMRAM 321C      __end_of_I2C1_ClearInterruptFlags 2D8A  
              ?_OSCILLATOR_Initialize 052B       __end_of_I2C1_CallbackReturnStop 321C  
       __end_of_I2C1_MasterSetCounter 31C8         __end_of_I2C1_MasterSendTxData 31C0  
         ??_I2C1_MasterIsCountFlagSet 052B                   start_initialization 2F80  
                         ??_I2C1_Open 052B                 ??_I2C1_MasterSendNack 052B  
               ??_I2C1_MasterResetBus 052B              I2C1_SetBuffer@bufferSize 052D  
                    ?_I2C1_MasterOpen 052B                      ?_I2C1_MasterStop 052B  
                    ?_I2C1_Initialize 052B                      ??_PMD_Initialize 052B  
              __end_of_I2C1_DO_RX_ACK 31B0                __end_of_I2C1_DO_TX_ACK 31B8  
             ??_I2C1_DO_SEND_ADR_READ 052B                      I2C1_Open@address 052B  
                         __pbssCOMRAM 0501                  _I2C1_DO_SEND_RESTART 320C  
         ??_I2C1_DO_SEND_RESTART_READ 052C                 I2C1_DO_TX@retFsmState 053D  
    __end_of_I2C1_MasterIsStopFlagSet 30F0              fp__I2C1_DO_BUS_COLLISION 0000  
                __end_of_I2C1_DO_IDLE 318E         I2C1_SetAddressNackCallback@cb 0531  
           _I2C1_MasterIsCountFlagSet 3106                 _rd2RegCompleteHandler 2E4A  
           fp__I2C1_DO_SEND_ADR_WRITE 0000                _I2C1_MasterIsRxBufFull 30C4  
              _PIN_MANAGER_Initialize 275C                 _wr2RegCompleteHandler 2EAA  
          ??_I2C1_MasterEnableRestart 052B              rd2RegCompleteHandler@ptr 0536  
                      _I2C1_MasterFsm 2BB8                      fp__I2C1_DO_RESET 0000  
                     ?_I2C1_DO_RX_ACK 052B                       ?_I2C1_DO_TX_ACK 052B  
                            _I2C1CON0 000294                              _I2C1CON1 000295  
                            _I2C1CON2 000296               _I2C1_MasterWaitForEvent 2CDE  
                    _I2C1_MasterClose 3178                        _I2C1_SetBuffer 2FEA  
                    _I2C1_MasterWrite 3198                           __smallconst 2600  
               ?_I2C1_DO_SEND_RESTART 052B                     ?_I2C1_DO_RX_EMPTY 052B  
            _I2C1_ClearInterruptFlags 2D38                     ?_I2C1_DO_TX_EMPTY 052B  
                  ??_I2C1_DO_RX_EMPTY 0538      __end_of_I2C1_CallbackReturnReset 3218  
                  ??_I2C1_DO_TX_EMPTY 0538               ??_rd1RegCompleteHandler 0538  
             ?_I2C1_DO_SEND_ADR_WRITE 052B             I2C1_MasterSendTxData@data 052B  
                          _I2C1SDAPPS 000270                            _I2C1SCLPPS 000271  
             ??_wr1RegCompleteHandler 0538                      _I2C1_SetCallback 29DA  
                          _I2C1_DO_RX 294A                            _I2C1_DO_TX 263C  
                            _PIE7bits 0004A5                            _I2C1_Close 2F2E  
                        ?_I2C1_Poller 052B                __end_of_I2C1_MasterFsm 2C22  
                fp__I2C1_DO_BUS_ERROR 0000          __end_of_I2C1_MasterGetRxData 31EE  
                       _I2C1STAT1bits 000299                              _PIR7bits 0004B5  
          ??_I2C1_MasterIsNackFlagSet 052B                    _I2C1_MasterSendAck 31E2  
           _I2C1_DO_SEND_RESTART_READ 316C                __end_of_I2C1_SetBuffer 300C  
__end_of_I2C1_SetDataCompleteCallback 307C          _I2C1_SetDataCompleteCallback 3060  
         ?_I2C1_DO_SEND_RESTART_WRITE 052B                   ?_I2C1_MasterSendAck 052B  
            ?_I2C1_DO_RX_NACK_RESTART 052B                  fp__I2C1_DO_SEND_STOP 0000  
          ?_I2C1_MasterClearCountFlag 052B          __end_of_I2C1_DO_ADDRESS_NACK 2BB8  
            wr2RegCompleteHandler@ptr 0536        __end_of_I2C1_DO_SEND_ADR_WRITE 3130  
                       _I2C1_DO_RESET 3150                 I2C1_Close@returnValue 052B  
            ?_rdBlkRegCompleteHandler 0536                   I2C1_SetCallback@idx 0530  
                 I2C1_SetCallback@ptr 052E                  ??_I2C1_MasterSendAck 052B  
              ?_rd2RegCompleteHandler 0536          __end_of_I2C1_MasterOperation 2DD6  
              ?_wr2RegCompleteHandler 0536              _I2C1_MasterIsStopFlagSet 30DA  
                            __Hrparam 0000                       ?_I2C1_MasterFsm 052B  
               _I2C1_MasterGetCounter 31D0                              __Lrparam 0000  
           ??_I2C1_MasterWaitForEvent 052B                 _I2C1_MasterDisableIrq 307C  
             ??_OSCILLATOR_Initialize 052B                       ?_I2C1_SetBuffer 052B  
              ??_I2C1_DO_SEND_RESTART 052B     __end_of_I2C1_MasterClearCountFlag 320C  
                        _I2C1CON0bits 000294                          _I2C1CON1bits 000295  
                      ?_I2C1_DO_RESET 052B                              __ptext10 3198  
                            __ptext11 2D8A                              __ptext20 315E  
                            __ptext12 3044                              __ptext21 31A8  
                            __ptext13 2CDE                              __ptext30 311C  
                            __ptext22 2F58                              __ptext14 2BB8  
                            __ptext31 2F04                              __ptext23 320C  
                            __ptext15 3142                              __ptext40 30C4  
                            __ptext32 3184                              __ptext24 3210  
                            __ptext16 2AD8                              __ptext41 31E8  
                            __ptext33 31B0                              __ptext25 316C  
                            __ptext17 2B4C                              __ptext50 2E1A  
                            __ptext42 31B8                              __ptext34 3098  
                            __ptext26 28AC                              __ptext18 3150  
                            __ptext51 2E4A                              __ptext43 31C0  
                            __ptext35 30AE                              __ptext27 2A5E  
                            __ptext19 31A0                              __ptext60 3106  
                            __ptext52 2E7A                              __ptext44 31EE  
                            __ptext36 31D0                              __ptext28 294A  
                            __ptext61 31FA                              __ptext53 2EAA  
                            __ptext45 31F4                              __ptext37 31D6  
                            __ptext29 263C                              __ptext62 3200  
                            __ptext54 3060                              __ptext46 318E  
                            __ptext38 31DC                              __ptext63 3206  
                            __ptext55 29DA                              __ptext47 3214  
                            __ptext39 31E2                              __ptext64 2F2E  
                            __ptext56 2FEA                              __ptext48 3218  
                            __ptext65 307C                              __ptext57 2D38  
                            __ptext49 2DD6                              __ptext66 3178  
                            __ptext58 30DA                              __ptext67 31C8  
                            __ptext59 30F0                              __ptext68 0000  
               _I2C1_DO_BUS_COLLISION 2AD8              _I2C1_CallbackReturnReset 3214  
         fp__I2C1_CallbackReturnReset 0000              ?_I2C1_MasterIsTxBufEmpty 052B  
                         ?_I2C1_DO_RX 052B                           ?_I2C1_DO_TX 052B  
         __end_of_I2C1_MasterClearIrq 31D0          __end_of_I2C1_DO_RX_NACK_STOP 316C  
                         ?_I2C1_Close 052B                              isa$xinst 000000  
           ?_I2C1_MasterClearNackFlag 052B       __end_of_I2C1_DO_RX_NACK_RESTART 31A8  
            I2C1_MasterOperation@read 053E         __end_of_I2C1_DO_SEND_ADR_READ 2F2E  
                        _I2C1_DO_IDLE 3184           __end_of_I2C1_MasterSendNack 31E2  
         __end_of_I2C1_MasterResetBus 3198         fp__I2C1_DO_SEND_RESTART_WRITE 0000  
      I2C1_SetAddressNackCallback@ptr 0534                 _I2C1_MasterSetCounter 31C0  
                _I2C1_MasterGetRxData 31E8                 _I2C1_MasterSendTxData 31B8  
           ?_I2C1_MasterClearStopFlag 052B              __end_of_I2C1_MasterClose 3184  
             ?_I2C1_MasterIsRxBufFull 052B               ?_PIN_MANAGER_Initialize 052B  
            __end_of_I2C1_MasterWrite 31A0               I2C1_WriteNBytes@address 0544  
                    ??_I2C1_DO_RX_ACK 052B                      ??_I2C1_DO_TX_ACK 052B  
              ?_I2C1_MasterGetCounter 052B               _I2C1_CallbackReturnStop 3218  
          fp__I2C1_CallbackReturnStop 0000                  _I2C1_DO_ADDRESS_NACK 2B4C  
              ?_I2C1_MasterDisableIrq 052B                      _I2C1_WriteNBytes 2C80  
          ??_I2C1_ClearInterruptFlags 052B              __end_of_I2C1_SetCallback 2A5E  
                     ??_I2C1_DO_RESET 052B                  _I2C1_MasterOperation 2D8A  
               ?_I2C1_MasterGetRxData 052B                ?_I2C1_DO_BUS_COLLISION 052B  
     __end_of_I2C1_MasterIsTxBufEmpty 30AE        __end_of_I2C1_MasterIsRxBufFull 30DA  
      __end_of_PIN_MANAGER_Initialize 280A         __end_of_rd1RegCompleteHandler 2EAA  
       __end_of_wr1RegCompleteHandler 2E4A                 ?_I2C1_DO_ADDRESS_NACK 052B  
