

Microchip MPLAB XC8 Assembler V2.40 build 20220703182018 
                                                                                               Fri Jan 06 14:59:05 2023

Microchip MPLAB XC8 C Compiler v2.40 (Free license) build 20220703182018 Og1 
     1                           	processor	18F57Q43
     2                           	fnconf	rparam,??,?,0
     3                           	pagewidth 120
     4                           	opt	flic
     5                           	psect	idataCOMRAM,global,class=CODE,delta=1,noexec
     6                           	psect	nvCOMRAM,global,class=COMRAM,space=1,delta=1,lowdata,noexec
     7                           	psect	cinit,global,reloc=2,class=CODE,delta=1
     8                           	psect	bssCOMRAM,global,class=COMRAM,space=1,delta=1,lowdata,noexec
     9                           	psect	dataCOMRAM,global,class=COMRAM,space=1,delta=1,lowdata,noexec
    10                           	psect	cstackCOMRAM,global,class=COMRAM,space=1,delta=1,lowdata,noexec
    11                           	psect	text0,global,reloc=2,class=CODE,delta=1
    12                           	psect	text1,global,reloc=2,class=CODE,delta=1
    13                           	psect	text2,global,reloc=2,class=CODE,delta=1
    14                           	psect	text3,global,reloc=2,class=CODE,delta=1
    15                           	psect	text4,global,reloc=2,class=CODE,delta=1
    16                           	psect	text5,global,reloc=2,class=CODE,delta=1
    17                           	psect	text6,global,reloc=2,class=CODE,delta=1
    18                           	psect	text7,global,reloc=2,class=CODE,delta=1
    19                           	psect	text8,global,reloc=2,class=CODE,delta=1
    20                           	psect	text9,global,reloc=2,class=CODE,delta=1
    21                           	psect	text10,global,reloc=2,class=CODE,delta=1
    22                           	psect	text11,global,reloc=2,class=CODE,delta=1
    23                           	psect	text12,global,reloc=2,class=CODE,delta=1
    24                           	psect	text13,global,reloc=2,class=CODE,delta=1
    25                           	psect	text14,global,reloc=2,class=CODE,delta=1
    26                           	psect	text15,global,reloc=2,class=CODE,delta=1
    27                           	psect	text16,global,reloc=2,class=CODE,delta=1
    28                           	psect	text17,global,reloc=2,class=CODE,delta=1
    29                           	psect	text18,global,reloc=2,class=CODE,delta=1
    30                           	psect	text19,global,reloc=2,class=CODE,delta=1
    31                           	psect	intsave_regs,global,class=BIGRAM,space=1,delta=1,noexec
    32                           	psect	text20,global,reloc=2,class=CODE,delta=1
    33                           	psect	rparam,global,class=COMRAM,space=1,delta=1,noexec
    34                           	psect	idloc,global,abs,ovrld,class=IDLOC,space=5,delta=1,noexec
    35                           	psect	config,global,abs,ovrld,class=CONFIG,space=4,delta=1,noexec
    36   000000                     
    37                           ; Generated 17/06/2022 GMT
    38                           ; 
    39                           ; Copyright © 2022, Microchip Technology Inc. and its subsidiaries ("Microchip")
    40                           ; All rights reserved.
    41                           ; 
    42                           ; This software is developed by Microchip Technology Inc. and its subsidiaries ("Microch
      +                          ip").
    43                           ; 
    44                           ; Redistribution and use in source and binary forms, with or without modification, are
    45                           ; permitted provided that the following conditions are met:
    46                           ; 
    47                           ;     1. Redistributions of source code must retain the above copyright notice, this lis
      +                          t of
    48                           ;        conditions and the following disclaimer.
    49                           ; 
    50                           ;     2. Redistributions in binary form must reproduce the above copyright notice, this 
      +                          list
    51                           ;        of conditions and the following disclaimer in the documentation and/or other
    52                           ;        materials provided with the distribution. Publication is not required when
    53                           ;        this file is used in an embedded application.
    54                           ; 
    55                           ;     3. Microchip's name may not be used to endorse or promote products derived from th
      +                          is
    56                           ;        software without specific prior written permission.
    57                           ; 
    58                           ; THIS SOFTWARE IS PROVIDED BY MICROCHIP "AS IS" AND ANY EXPRESS OR IMPLIED WARRANTIES,
    59                           ; INCLUDING, BUT NOT LIMITED TO, THE IMPLIED WARRANTIES OF MERCHANTABILITY AND FITNESS F
      +                          OR
    60                           ; PURPOSE ARE DISCLAIMED.  IN NO EVENT SHALL MICROCHIP BE LIABLE FOR ANY DIRECT, INDIREC
      +                          T,
    61                           ; INCIDENTAL, SPECIAL, EXEMPLARY, OR CONSEQUENTIAL DAMAGES (INCLUDING BUT NOT LIMITED TO
    62                           ; PROCUREMENT OF SUBSTITUTE GOODS OR SERVICES; LOSS OF USE, DATA OR PROFITS; OR BUSINESS
    63                           ; INTERRUPTION) HOWSOEVER CAUSED AND ON ANY THEORY OF LIABILITY, WHETHER IN CONTRACT, ST
      +                          RICT
    64                           ; LIABILITY, OR TORT (INCLUDING NEGLIGENCE OR OTHERWISE) ARISING IN ANY WAY OUT OF THE U
      +                          SE OF
    65                           ; THIS SOFTWARE, EVEN IF ADVISED OF THE POSSIBILITY OF SUCH DAMAGE.
    66                           ; 
    67                           ; 
    68                           ; Code-generator required, PIC18F57Q43 Definitions
    69                           ; 
    70                           ; SFR Addresses
    71   000000                     
    72 ;; Function _UART5_DefaultFramingErrorHandler is unused but had its address taken
    73   000000                     
    74 ;; Function _UART5_DefaultOverrunErrorHandler is unused but had its address taken
    75   000000                     
    76 ;; Function _UART5_DefaultErrorHandler is unused but had its address taken
    77   000000                     
    78                           	psect	idataCOMRAM
    79   01FC5B                     __pidataCOMRAM:
    80                           	callstack 0
    81                           
    82                           ;initializer for main@F17071
    83   01FC5B  48                 	db	72
    84   01FC5C  69                 	db	105
    85   01FC5D  20                 	db	32
    86   01FC5E  49                 	db	73
    87   01FC5F  27                 	db	39
    88   01FC60  6D                 	db	109
    89   01FC61  20                 	db	32
    90   01FC62  4D                 	db	77
    91   01FC63  61                 	db	97
    92   01FC64  73                 	db	115
    93   01FC65  74                 	db	116
    94   01FC66  65                 	db	101
    95   01FC67  72                 	db	114
    96   01FC68  0A                 	db	10
    97   01FC69  00                 	db	0
    98   000000                     _TRISD	set	1225
    99   000000                     _TRISC	set	1224
   100   000000                     _TRISB	set	1223
   101   000000                     _LATC	set	1216
   102   000000                     _LATB	set	1215
   103   000000                     _OSCTUNE	set	176
   104   000000                     _OSCFRQ	set	177
   105   000000                     _OSCEN	set	179
   106                           
   107                           	psect	nvCOMRAM
   108   000517                     __pnvCOMRAM:
   109                           	callstack 0
   110   000517                     _UART5_ErrorHandler:
   111                           	callstack 0
   112   000517                     	ds	3
   113   00051A                     _UART5_OverrunErrorHandler:
   114                           	callstack 0
   115   00051A                     	ds	3
   116   00051D                     _UART5_FramingErrorHandler:
   117                           	callstack 0
   118   00051D                     	ds	3
   119   000520                     _UART1_ErrorHandler:
   120                           	callstack 0
   121   000520                     	ds	3
   122   000523                     _UART1_OverrunErrorHandler:
   123                           	callstack 0
   124   000523                     	ds	3
   125   000526                     _UART1_FramingErrorHandler:
   126                           	callstack 0
   127   000526                     	ds	3
   128   000000                     _U5ERRIRbits	set	766
   129   000000                     _U5CON0bits	set	759
   130   000000                     _U1ERRIRbits	set	690
   131   000000                     _U1CON0bits	set	683
   132   000000                     _PMD0	set	96
   133   000000                     _ACTCON	set	172
   134   000000                     _OSCCON1	set	173
   135   000000                     _U1RXB	set	673
   136   000000                     _U1P1L	set	677
   137   000000                     _U5RXB	set	749
   138   000000                     _U5P1L	set	753
   139   000000                     _ANSELA	set	1024
   140   000000                     _ANSELB	set	1032
   141   000000                     _ANSELC	set	1040
   142   000000                     _ANSELD	set	1048
   143   000000                     _PIR4bits	set	1202
   144   000000                     _U1ERRIE	set	691
   145   000000                     _U1ERRIR	set	690
   146   000000                     _U1UIR	set	689
   147   000000                     _U1FIFO	set	688
   148   000000                     _U1BRGH	set	687
   149   000000                     _U1BRGL	set	686
   150   000000                     _U1CON2	set	685
   151   000000                     _U1CON1	set	684
   152   000000                     _U1CON0	set	683
   153   000000                     _U1P3H	set	682
   154   000000                     _U1P3L	set	681
   155   000000                     _U1P2H	set	680
   156   000000                     _U1P2L	set	679
   157   000000                     _U1P1H	set	678
   158   000000                     _PIR13bits	set	1211
   159   000000                     _LATA	set	1214
   160   000000                     _LATD	set	1217
   161   000000                     _LATE	set	1218
   162   000000                     _U1TXB	set	675
   163   000000                     _OSCCON3	set	175
   164   000000                     _RC2PPS	set	531
   165   000000                     _U5RXPPS	set	634
   166   000000                     _RC4I2C	set	646
   167   000000                     _RC3I2C	set	647
   168   000000                     _RB2I2C	set	648
   169   000000                     _RB1I2C	set	649
   170   000000                     _PMD3	set	99
   171   000000                     _PMD1	set	97
   172   000000                     _PMD8	set	104
   173   000000                     _PMD7	set	103
   174   000000                     _PMD6	set	102
   175   000000                     _PMD5	set	101
   176   000000                     _PMD4	set	100
   177   000000                     _TRISA	set	1222
   178   000000                     _TRISE	set	1226
   179   000000                     _LATF	set	1219
   180   000000                     _TRISF	set	1227
   181   000000                     _INLVLD	set	1052
   182   000000                     _SLRCOND	set	1051
   183   000000                     _ODCOND	set	1050
   184   000000                     _WPUD	set	1049
   185   000000                     _ANSELE	set	1056
   186   000000                     _INLVLC	set	1044
   187   000000                     _SLRCONC	set	1043
   188   000000                     _ODCONC	set	1042
   189   000000                     _WPUC	set	1041
   190   000000                     _INLVLB	set	1036
   191   000000                     _SLRCONB	set	1035
   192   000000                     _ODCONB	set	1034
   193   000000                     _WPUB	set	1033
   194   000000                     _INLVLE	set	1060
   195   000000                     _SLRCONE	set	1059
   196   000000                     _ODCONE	set	1058
   197   000000                     _WPUE	set	1057
   198   000000                     _ANSELF	set	1064
   199   000000                     _INLVLF	set	1068
   200   000000                     _SLRCONF	set	1067
   201   000000                     _ODCONF	set	1066
   202   000000                     _WPUF	set	1065
   203   000000                     _INLVLA	set	1028
   204   000000                     _SLRCONA	set	1027
   205   000000                     _ODCONA	set	1026
   206   000000                     _WPUA	set	1025
   207   000000                     _RF0PPS	set	553
   208   000000                     _U1RXPPS	set	626
   209   000000                     _U5P2L	set	755
   210   000000                     _U5P3L	set	757
   211   000000                     _U5CON0	set	759
   212   000000                     _U5ERRIE	set	767
   213   000000                     _U5ERRIR	set	766
   214   000000                     _U5UIR	set	765
   215   000000                     _U5FIFO	set	764
   216   000000                     _U5BRGH	set	763
   217   000000                     _U5BRGL	set	762
   218   000000                     _U5CON2	set	761
   219   000000                     _U5CON1	set	760
   220   000000                     _U5TXB	set	751
   221                           
   222                           ; #config settings
   223                           
   224                           	psect	cinit
   225   01FD00                     __pcinit:
   226                           	callstack 0
   227   01FD00                     start_initialization:
   228                           	callstack 0
   229   01FD00                     __initialization:
   230                           	callstack 0
   231                           
   232                           ; Initialize objects allocated to COMRAM (15 bytes)
   233                           ; load TBLPTR registers with __pidataCOMRAM
   234   01FD00  0E5B               	movlw	low __pidataCOMRAM
   235   01FD02  6EF6               	movwf	tblptrl,c
   236   01FD04  0EFC               	movlw	high __pidataCOMRAM
   237   01FD06  6EF7               	movwf	tblptrh,c
   238   01FD08  0E01               	movlw	low (__pidataCOMRAM shr (0+16))
   239   01FD0A  6EF8               	movwf	tblptru,c
   240   01FD0C  EE01  F129         	lfsr	0,__pdataCOMRAM
   241   01FD10  EE10 F00F          	lfsr	1,15
   242   01FD14                     copy_data0:
   243   01FD14  0009               	tblrd		*+
   244   01FD16  C4F5 F4EE          	movff	tablat,postinc0
   245   01FD1A  50E5               	movf	postdec1,w,c
   246   01FD1C  50E1               	movf	fsr1l,w,c
   247   01FD1E  E1FA               	bnz	copy_data0
   248                           
   249                           ; Clear objects allocated to COMRAM (2 bytes)
   250   01FD20  6A39               	clrf	(__pbssCOMRAM+1)& (0+255),c
   251   01FD22  6A38               	clrf	__pbssCOMRAM& (0+255),c
   252   01FD24                     end_of_initialization:
   253                           	callstack 0
   254   01FD24                     __end_of__initialization:
   255                           	callstack 0
   256   01FD24  0100               	movlb	0
   257   01FD26  EF50  F0FF         	goto	_main	;jump to C main() function
   258                           
   259                           	psect	bssCOMRAM
   260   000538                     __pbssCOMRAM:
   261                           	callstack 0
   262   000538                     _uart5RxLastError:
   263                           	callstack 0
   264   000538                     	ds	1
   265   000539                     _uart1RxLastError:
   266                           	callstack 0
   267   000539                     	ds	1
   268                           
   269                           	psect	dataCOMRAM
   270   000529                     __pdataCOMRAM:
   271                           	callstack 0
   272   000529                     main@F17071:
   273                           	callstack 0
   274   000529                     	ds	15
   275                           
   276                           	psect	cstackCOMRAM
   277   000501                     __pcstackCOMRAM:
   278                           	callstack 0
   279   000501                     UART1_Write@txData:
   280                           	callstack 0
   281   000501                     UART5_Write@txData:
   282                           	callstack 0
   283   000501                     UART1_SetFramingErrorHandler@interruptHandler:
   284                           	callstack 0
   285   000501                     UART1_SetOverrunErrorHandler@interruptHandler:
   286                           	callstack 0
   287   000501                     UART1_SetErrorHandler@interruptHandler:
   288                           	callstack 0
   289   000501                     UART5_SetFramingErrorHandler@interruptHandler:
   290                           	callstack 0
   291   000501                     UART5_SetOverrunErrorHandler@interruptHandler:
   292                           	callstack 0
   293   000501                     UART5_SetErrorHandler@interruptHandler:
   294                           	callstack 0
   295                           
   296                           ; 3 bytes @ 0x0
   297   000501                     	ds	3
   298   000504                     
   299                           ; 1 bytes @ 0x3
   300   000504                     	ds	1
   301   000505                     main@Send_Data:
   302                           	callstack 0
   303                           
   304                           ; 15 bytes @ 0x4
   305   000505                     	ds	15
   306   000514                     main@value:
   307                           	callstack 0
   308                           
   309                           ; 1 bytes @ 0x13
   310   000514                     	ds	1
   311   000515                     main@i:
   312                           	callstack 0
   313                           
   314                           ; 2 bytes @ 0x14
   315   000515                     	ds	2
   316                           
   317 ;;
   318 ;;Main: autosize = 0, tempsize = 1, incstack = 0, save=0
   319 ;;
   320 ;; *************** function _main *****************
   321 ;; Defined at:
   322 ;;		line 49 in file "main.c"
   323 ;; Parameters:    Size  Location     Type
   324 ;;		None
   325 ;; Auto vars:     Size  Location     Type
   326 ;;  i               2   20[COMRAM] int 
   327 ;;  Send_Data      15    4[COMRAM] unsigned char [15]
   328 ;;  value           1   19[COMRAM] unsigned char 
   329 ;; Return value:  Size  Location     Type
   330 ;;                  1    wreg      void 
   331 ;; Registers used:
   332 ;;		wreg, fsr1l, fsr1h, fsr2l, fsr2h, status,2, status,0, pcl, pclath, pclatu, tosl, cstack
   333 ;; Tracked objects:
   334 ;;		On entry : 0/0
   335 ;;		On exit  : 0/0
   336 ;;		Unchanged: 0/0
   337 ;; Data sizes:     COMRAM   BANK5   BANK6   BANK7   BANK8   BANK9  BANK10  BANK11  BANK12  BANK13  BANK14  BANK15  BANK1
      +6  BANK17  BANK18  BANK19  BANK20  BANK21  BANK22  BANK23  BANK24  BANK25  BANK26  BANK27  BANK28  BANK29  BANK30  BANK3
      +1  BANK32  BANK33  BANK34  BANK35  BANK36
   338 ;;      Params:         0       0       0       0       0       0       0       0       0       0       0       0       
      +0       0       0       0       0       0       0       0       0       0       0       0       0       0       0       
      +0       0       0       0       0       0
   339 ;;      Locals:        18       0       0       0       0       0       0       0       0       0       0       0       
      +0       0       0       0       0       0       0       0       0       0       0       0       0       0       0       
      +0       0       0       0       0       0
   340 ;;      Temps:          1       0       0       0       0       0       0       0       0       0       0       0       
      +0       0       0       0       0       0       0       0       0       0       0       0       0       0       0       
      +0       0       0       0       0       0
   341 ;;      Totals:        19       0       0       0       0       0       0       0       0       0       0       0       
      +0       0       0       0       0       0       0       0       0       0       0       0       0       0       0       
      +0       0       0       0       0       0
   342 ;;Total ram usage:       19 bytes
   343 ;; Hardware stack levels required when called: 3
   344 ;; This function calls:
   345 ;;		_SYSTEM_Initialize
   346 ;;		_UART1_Initialize
   347 ;;		_UART1_Read
   348 ;;		_UART1_Write
   349 ;;		_UART1_is_rx_ready
   350 ;;		_UART5_Initialize
   351 ;;		_UART5_Write
   352 ;; This function is called by:
   353 ;;		Startup code after reset
   354 ;; This function uses a non-reentrant model
   355 ;;
   356                           
   357                           	psect	text0
   358   01FEA0                     __ptext0:
   359                           	callstack 0
   360   01FEA0                     _main:
   361                           	callstack 124
   362   01FEA0                     
   363                           ;main.c: 52:     SYSTEM_Initialize();
   364   01FEA0  EC3F  F0FE         	call	_SYSTEM_Initialize	;wreg free
   365                           
   366                           ;main.c: 53:     UART1_Initialize();
   367   01FEA4  ECC9  F0FE         	call	_UART1_Initialize	;wreg free
   368                           
   369                           ;main.c: 54:     UART5_Initialize();
   370   01FEA8  EC95  F0FE         	call	_UART5_Initialize	;wreg free
   371   01FEAC                     
   372                           ;main.c: 64:     char Send_Data[] = "Hi I'm Master\n";
   373   01FEAC  EE21  F129         	lfsr	2,main@F17071
   374   01FEB0  EE11  F105         	lfsr	1,main@Send_Data
   375   01FEB4  0E0E               	movlw	14
   376   01FEB6                     u271:
   377   01FEB6  C4DB F4E3          	movff	plusw2,plusw1
   378   01FEBA  06E8               	decf	wreg,f,c
   379   01FEBC  E2FC               	bc	u271
   380   01FEBE                     l1317:
   381                           
   382                           ;main.c: 67:     {;main.c: 68:         for(int i=0;i<sizeof(Send_Data);i++)
   383   01FEBE  0E00               	movlw	0
   384   01FEC0  6E16               	movwf	(main@i+1)^(0+1280),c
   385   01FEC2  0E00               	movlw	0
   386   01FEC4  6E15               	movwf	main@i^(0+1280),c
   387   01FEC6                     l1323:
   388                           
   389                           ;main.c: 69:         {;main.c: 70:             UART1_Write(Send_Data[i]);
   390   01FEC6  0E05               	movlw	low main@Send_Data
   391   01FEC8  2415               	addwf	main@i^(0+1280),w,c
   392   01FECA  6ED9               	movwf	fsr2l,c
   393   01FECC  0E05               	movlw	high main@Send_Data
   394   01FECE  2016               	addwfc	(main@i+1)^(0+1280),w,c
   395   01FED0  6EDA               	movwf	fsr2h,c
   396   01FED2  50DF               	movf	indf2,w,c
   397   01FED4  EC4A  F0FE         	call	_UART1_Write
   398   01FED8                     
   399                           ;main.c: 72:             if(Send_Data[i]=='\n')
   400   01FED8  0E05               	movlw	low main@Send_Data
   401   01FEDA  2415               	addwf	main@i^(0+1280),w,c
   402   01FEDC  6ED9               	movwf	fsr2l,c
   403   01FEDE  0E05               	movlw	high main@Send_Data
   404   01FEE0  2016               	addwfc	(main@i+1)^(0+1280),w,c
   405   01FEE2  6EDA               	movwf	fsr2h,c
   406   01FEE4  0E0A               	movlw	10
   407   01FEE6  18DE               	xorwf	postinc2,w,c
   408   01FEE8  A4D8               	btfss	status,2,c
   409   01FEEA  EF79  F0FF         	goto	u281
   410   01FEEE  EF7B  F0FF         	goto	u280
   411   01FEF2                     u281:
   412   01FEF2  EF94  F0FF         	goto	l1335
   413   01FEF6                     u280:
   414   01FEF6                     
   415                           ;main.c: 73:             {;main.c: 74:                 if(UART1_is_rx_ready())
   416   01FEF6  EC35  F0FE         	call	_UART1_is_rx_ready	;wreg free
   417   01FEFA  0900               	iorlw	0
   418   01FEFC  B4D8               	btfsc	status,2,c
   419   01FEFE  EF83  F0FF         	goto	u291
   420   01FF02  EF85  F0FF         	goto	u290
   421   01FF06                     u291:
   422   01FF06  EF94  F0FF         	goto	l1335
   423   01FF0A                     u290:
   424   01FF0A                     l1329:
   425                           
   426                           ;main.c: 77:                         value = UART1_Read();
   427   01FF0A  EC03  F0FF         	call	_UART1_Read	;wreg free
   428   01FF0E  6E14               	movwf	main@value^(0+1280),c
   429   01FF10                     
   430                           ;main.c: 78:                         UART5_Write(value);
   431   01FF10  5014               	movf	main@value^(0+1280),w,c
   432   01FF12  EC55  F0FE         	call	_UART5_Write
   433   01FF16                     
   434                           ;main.c: 79:                     }while(value != '\n');
   435   01FF16  0E0A               	movlw	10
   436   01FF18  1814               	xorwf	main@value^(0+1280),w,c
   437   01FF1A  A4D8               	btfss	status,2,c
   438   01FF1C  EF92  F0FF         	goto	u301
   439   01FF20  EF94  F0FF         	goto	u300
   440   01FF24                     u301:
   441   01FF24  EF85  F0FF         	goto	l1329
   442   01FF28                     u300:
   443   01FF28                     l1335:
   444                           
   445                           ;main.c: 82:         }
   446   01FF28  4A15               	infsnz	main@i^(0+1280),f,c
   447   01FF2A  2A16               	incf	(main@i+1)^(0+1280),f,c
   448   01FF2C  5016               	movf	(main@i+1)^(0+1280),w,c
   449   01FF2E  E109               	bnz	u310
   450   01FF30  0E0F               	movlw	15
   451   01FF32  5C15               	subwf	main@i^(0+1280),w,c
   452   01FF34  A0D8               	btfss	status,0,c
   453   01FF36  EF9F  F0FF         	goto	u311
   454   01FF3A  EFA1  F0FF         	goto	u310
   455   01FF3E                     u311:
   456   01FF3E  EF63  F0FF         	goto	l1323
   457   01FF42                     u310:
   458   01FF42  EF5F  F0FF         	goto	l1317
   459   01FF46  EFFE  F0FF         	goto	start
   460   01FF4A                     __end_of_main:
   461                           	callstack 0
   462                           
   463 ;; *************** function _UART5_Write *****************
   464 ;; Defined at:
   465 ;;		line 161 in file "mcc_generated_files/uart5.c"
   466 ;; Parameters:    Size  Location     Type
   467 ;;  txData          1    wreg     unsigned char 
   468 ;; Auto vars:     Size  Location     Type
   469 ;;  txData          1    0[COMRAM] unsigned char 
   470 ;; Return value:  Size  Location     Type
   471 ;;                  1    wreg      void 
   472 ;; Registers used:
   473 ;;		wreg
   474 ;; Tracked objects:
   475 ;;		On entry : 0/0
   476 ;;		On exit  : 0/0
   477 ;;		Unchanged: 0/0
   478 ;; Data sizes:     COMRAM   BANK5   BANK6   BANK7   BANK8   BANK9  BANK10  BANK11  BANK12  BANK13  BANK14  BANK15  BANK1
      +6  BANK17  BANK18  BANK19  BANK20  BANK21  BANK22  BANK23  BANK24  BANK25  BANK26  BANK27  BANK28  BANK29  BANK30  BANK3
      +1  BANK32  BANK33  BANK34  BANK35  BANK36
   479 ;;      Params:         0       0       0       0       0       0       0       0       0       0       0       0       
      +0       0       0       0       0       0       0       0       0       0       0       0       0       0       0       
      +0       0       0       0       0       0
   480 ;;      Locals:         1       0       0       0       0       0       0       0       0       0       0       0       
      +0       0       0       0       0       0       0       0       0       0       0       0       0       0       0       
      +0       0       0       0       0       0
   481 ;;      Temps:          0       0       0       0       0       0       0       0       0       0       0       0       
      +0       0       0       0       0       0       0       0       0       0       0       0       0       0       0       
      +0       0       0       0       0       0
   482 ;;      Totals:         1       0       0       0       0       0       0       0       0       0       0       0       
      +0       0       0       0       0       0       0       0       0       0       0       0       0       0       0       
      +0       0       0       0       0       0
   483 ;;Total ram usage:        1 bytes
   484 ;; Hardware stack levels used: 1
   485 ;; This function calls:
   486 ;;		Nothing
   487 ;; This function is called by:
   488 ;;		_main
   489 ;;		_putch
   490 ;; This function uses a non-reentrant model
   491 ;;
   492                           
   493                           	psect	text1
   494   01FCAA                     __ptext1:
   495                           	callstack 0
   496   01FCAA                     _UART5_Write:
   497                           	callstack 126
   498                           
   499                           ;incstack = 0
   500                           ;UART5_Write@txData stored from wreg
   501   01FCAA  6E01               	movwf	UART5_Write@txData^(0+1280),c
   502   01FCAC                     l346:
   503                           
   504                           ;mcc_generated_files/uart5.c: 163:     while(0 == PIR13bits.U5TXIF)
   505   01FCAC  A2BB               	btfss	187,1,c	;volatile
   506   01FCAE  EF5B  F0FE         	goto	u171
   507   01FCB2  EF5D  F0FE         	goto	u170
   508   01FCB6                     u171:
   509   01FCB6  EF56  F0FE         	goto	l346
   510   01FCBA                     u170:
   511   01FCBA                     
   512                           ;mcc_generated_files/uart5.c: 167:     U5TXB = txData;
   513   01FCBA  C501  F2EF         	movff	UART5_Write@txData,751	;volatile
   514   01FCBE  0012               	return		;funcret
   515   01FCC0                     __end_of_UART5_Write:
   516                           	callstack 0
   517                           
   518 ;; *************** function _UART1_is_rx_ready *****************
   519 ;; Defined at:
   520 ;;		line 126 in file "mcc_generated_files/uart1.c"
   521 ;; Parameters:    Size  Location     Type
   522 ;;		None
   523 ;; Auto vars:     Size  Location     Type
   524 ;;		None
   525 ;; Return value:  Size  Location     Type
   526 ;;                  1    wreg      _Bool 
   527 ;; Registers used:
   528 ;;		wreg
   529 ;; Tracked objects:
   530 ;;		On entry : 0/0
   531 ;;		On exit  : 0/0
   532 ;;		Unchanged: 0/0
   533 ;; Data sizes:     COMRAM   BANK5   BANK6   BANK7   BANK8   BANK9  BANK10  BANK11  BANK12  BANK13  BANK14  BANK15  BANK1
      +6  BANK17  BANK18  BANK19  BANK20  BANK21  BANK22  BANK23  BANK24  BANK25  BANK26  BANK27  BANK28  BANK29  BANK30  BANK3
      +1  BANK32  BANK33  BANK34  BANK35  BANK36
   534 ;;      Params:         0       0       0       0       0       0       0       0       0       0       0       0       
      +0       0       0       0       0       0       0       0       0       0       0       0       0       0       0       
      +0       0       0       0       0       0
   535 ;;      Locals:         0       0       0       0       0       0       0       0       0       0       0       0       
      +0       0       0       0       0       0       0       0       0       0       0       0       0       0       0       
      +0       0       0       0       0       0
   536 ;;      Temps:          0       0       0       0       0       0       0       0       0       0       0       0       
      +0       0       0       0       0       0       0       0       0       0       0       0       0       0       0       
      +0       0       0       0       0       0
   537 ;;      Totals:         0       0       0       0       0       0       0       0       0       0       0       0       
      +0       0       0       0       0       0       0       0       0       0       0       0       0       0       0       
      +0       0       0       0       0       0
   538 ;;Total ram usage:        0 bytes
   539 ;; Hardware stack levels used: 1
   540 ;; This function calls:
   541 ;;		Nothing
   542 ;; This function is called by:
   543 ;;		_main
   544 ;; This function uses a non-reentrant model
   545 ;;
   546                           
   547                           	psect	text2
   548   01FC6A                     __ptext2:
   549                           	callstack 0
   550   01FC6A                     _UART1_is_rx_ready:
   551                           	callstack 126
   552   01FC6A                     
   553                           ;mcc_generated_files/uart1.c: 128:     return (_Bool)(PIR4bits.U1RXIF);
   554   01FC6A  B0B2               	btfsc	178,0,c	;volatile
   555   01FC6C  EF3A  F0FE         	goto	u11
   556   01FC70  EF3D  F0FE         	goto	u10
   557   01FC74                     u11:
   558   01FC74  0E01               	movlw	1
   559   01FC76  EF3E  F0FE         	goto	u16
   560   01FC7A                     u10:
   561   01FC7A  0E00               	movlw	0
   562   01FC7C                     u16:
   563   01FC7C  0012               	return		;funcret
   564   01FC7E                     __end_of_UART1_is_rx_ready:
   565                           	callstack 0
   566                           
   567 ;; *************** function _UART1_Write *****************
   568 ;; Defined at:
   569 ;;		line 170 in file "mcc_generated_files/uart1.c"
   570 ;; Parameters:    Size  Location     Type
   571 ;;  txData          1    wreg     unsigned char 
   572 ;; Auto vars:     Size  Location     Type
   573 ;;  txData          1    0[COMRAM] unsigned char 
   574 ;; Return value:  Size  Location     Type
   575 ;;                  1    wreg      void 
   576 ;; Registers used:
   577 ;;		wreg
   578 ;; Tracked objects:
   579 ;;		On entry : 0/0
   580 ;;		On exit  : 0/0
   581 ;;		Unchanged: 0/0
   582 ;; Data sizes:     COMRAM   BANK5   BANK6   BANK7   BANK8   BANK9  BANK10  BANK11  BANK12  BANK13  BANK14  BANK15  BANK1
      +6  BANK17  BANK18  BANK19  BANK20  BANK21  BANK22  BANK23  BANK24  BANK25  BANK26  BANK27  BANK28  BANK29  BANK30  BANK3
      +1  BANK32  BANK33  BANK34  BANK35  BANK36
   583 ;;      Params:         0       0       0       0       0       0       0       0       0       0       0       0       
      +0       0       0       0       0       0       0       0       0       0       0       0       0       0       0       
      +0       0       0       0       0       0
   584 ;;      Locals:         1       0       0       0       0       0       0       0       0       0       0       0       
      +0       0       0       0       0       0       0       0       0       0       0       0       0       0       0       
      +0       0       0       0       0       0
   585 ;;      Temps:          0       0       0       0       0       0       0       0       0       0       0       0       
      +0       0       0       0       0       0       0       0       0       0       0       0       0       0       0       
      +0       0       0       0       0       0
   586 ;;      Totals:         1       0       0       0       0       0       0       0       0       0       0       0       
      +0       0       0       0       0       0       0       0       0       0       0       0       0       0       0       
      +0       0       0       0       0       0
   587 ;;Total ram usage:        1 bytes
   588 ;; Hardware stack levels used: 1
   589 ;; This function calls:
   590 ;;		Nothing
   591 ;; This function is called by:
   592 ;;		_main
   593 ;; This function uses a non-reentrant model
   594 ;;
   595                           
   596                           	psect	text3
   597   01FC94                     __ptext3:
   598                           	callstack 0
   599   01FC94                     _UART1_Write:
   600                           	callstack 126
   601                           
   602                           ;incstack = 0
   603                           ;UART1_Write@txData stored from wreg
   604   01FC94  6E01               	movwf	UART1_Write@txData^(0+1280),c
   605   01FC96                     l89:
   606                           
   607                           ;mcc_generated_files/uart1.c: 172:     while(0 == PIR4bits.U1TXIF)
   608   01FC96  A2B2               	btfss	178,1,c	;volatile
   609   01FC98  EF50  F0FE         	goto	u91
   610   01FC9C  EF52  F0FE         	goto	u90
   611   01FCA0                     u91:
   612   01FCA0  EF4B  F0FE         	goto	l89
   613   01FCA4                     u90:
   614   01FCA4                     
   615                           ;mcc_generated_files/uart1.c: 176:     U1TXB = txData;
   616   01FCA4  C501  F2A3         	movff	UART1_Write@txData,675	;volatile
   617   01FCA8  0012               	return		;funcret
   618   01FCAA                     __end_of_UART1_Write:
   619                           	callstack 0
   620                           
   621 ;; *************** function _UART1_Read *****************
   622 ;; Defined at:
   623 ;;		line 145 in file "mcc_generated_files/uart1.c"
   624 ;; Parameters:    Size  Location     Type
   625 ;;		None
   626 ;; Auto vars:     Size  Location     Type
   627 ;;		None
   628 ;; Return value:  Size  Location     Type
   629 ;;                  1    wreg      unsigned char 
   630 ;; Registers used:
   631 ;;		wreg, status,2, pcl, pclath, pclatu, tosl, cstack
   632 ;; Tracked objects:
   633 ;;		On entry : 0/0
   634 ;;		On exit  : 0/0
   635 ;;		Unchanged: 0/0
   636 ;; Data sizes:     COMRAM   BANK5   BANK6   BANK7   BANK8   BANK9  BANK10  BANK11  BANK12  BANK13  BANK14  BANK15  BANK1
      +6  BANK17  BANK18  BANK19  BANK20  BANK21  BANK22  BANK23  BANK24  BANK25  BANK26  BANK27  BANK28  BANK29  BANK30  BANK3
      +1  BANK32  BANK33  BANK34  BANK35  BANK36
   637 ;;      Params:         0       0       0       0       0       0       0       0       0       0       0       0       
      +0       0       0       0       0       0       0       0       0       0       0       0       0       0       0       
      +0       0       0       0       0       0
   638 ;;      Locals:         0       0       0       0       0       0       0       0       0       0       0       0       
      +0       0       0       0       0       0       0       0       0       0       0       0       0       0       0       
      +0       0       0       0       0       0
   639 ;;      Temps:          0       0       0       0       0       0       0       0       0       0       0       0       
      +0       0       0       0       0       0       0       0       0       0       0       0       0       0       0       
      +0       0       0       0       0       0
   640 ;;      Totals:         0       0       0       0       0       0       0       0       0       0       0       0       
      +0       0       0       0       0       0       0       0       0       0       0       0       0       0       0       
      +0       0       0       0       0       0
   641 ;;Total ram usage:        0 bytes
   642 ;; Hardware stack levels used: 1
   643 ;; Hardware stack levels required when called: 1
   644 ;; This function calls:
   645 ;;		Absolute function
   646 ;;		_UART1_DefaultErrorHandler
   647 ;;		_UART1_DefaultFramingErrorHandler
   648 ;;		_UART1_DefaultOverrunErrorHandler
   649 ;; This function is called by:
   650 ;;		_main
   651 ;; This function uses a non-reentrant model
   652 ;;
   653                           
   654                           	psect	text4
   655   01FE06                     __ptext4:
   656                           	callstack 0
   657   01FE06                     _UART1_Read:
   658                           	callstack 125
   659   01FE06                     l80:
   660                           
   661                           ;mcc_generated_files/uart1.c: 147:     while(!PIR4bits.U1RXIF)
   662   01FE06  A0B2               	btfss	178,0,c	;volatile
   663   01FE08  EF08  F0FF         	goto	u21
   664   01FE0C  EF0A  F0FF         	goto	u20
   665   01FE10                     u21:
   666   01FE10  EF03  F0FF         	goto	l80
   667   01FE14                     u20:
   668   01FE14                     
   669                           ;mcc_generated_files/uart1.c: 151:     uart1RxLastError.status = 0;
   670   01FE14  0E00               	movlw	0
   671   01FE16  6E39               	movwf	_uart1RxLastError^(0+1280),c	;volatile
   672   01FE18                     
   673                           ;mcc_generated_files/uart1.c: 153:     if(U1ERRIRbits.FERIF){
   674   01FE18  0102               	movlb	2	; () banked
   675   01FE1A  A7B2               	btfss	178,3,b	;volatile
   676   01FE1C  EF12  F0FF         	goto	u31
   677   01FE20  EF14  F0FF         	goto	u30
   678   01FE24                     u31:
   679   01FE24  EF22  F0FF         	goto	l1163
   680   01FE28                     u30:
   681   01FE28                     
   682                           ; BSR set to: 2
   683                           ;mcc_generated_files/uart1.c: 154:         uart1RxLastError.ferr = 1;
   684   01FE28  8239               	bsf	_uart1RxLastError^(0+1280),1,c	;volatile
   685   01FE2A                     
   686                           ; BSR set to: 2
   687                           ;mcc_generated_files/uart1.c: 155:         UART1_FramingErrorHandler();
   688   01FE2A  D802               	call	u48
   689   01FE2C  EF22  F0FF         	goto	u49
   690   01FE30                     u48:
   691   01FE30  0005               	push	
   692   01FE32  6EFA               	movwf	pclath,c
   693   01FE34  5026               	movf	_UART1_FramingErrorHandler^(0+1280),w,c
   694   01FE36  6EFD               	movwf	tosl,c
   695   01FE38  5027               	movf	(_UART1_FramingErrorHandler+1)^(0+1280),w,c
   696   01FE3A  6EFE               	movwf	tosh,c
   697   01FE3C  5028               	movf	(_UART1_FramingErrorHandler+2)^(0+1280),w,c
   698   01FE3E  6EFF               	movwf	tosu,c
   699   01FE40  50FA               	movf	pclath,w,c
   700   01FE42  0012               	return		;indir
   701   01FE44                     u49:
   702   01FE44                     l1163:
   703                           
   704                           ;mcc_generated_files/uart1.c: 158:     if(U1ERRIRbits.RXFOIF){
   705   01FE44  0102               	movlb	2	; () banked
   706   01FE46  A3B2               	btfss	178,1,b	;volatile
   707   01FE48  EF28  F0FF         	goto	u51
   708   01FE4C  EF2A  F0FF         	goto	u50
   709   01FE50                     u51:
   710   01FE50  EF38  F0FF         	goto	l1169
   711   01FE54                     u50:
   712   01FE54                     
   713                           ; BSR set to: 2
   714                           ;mcc_generated_files/uart1.c: 159:         uart1RxLastError.oerr = 1;
   715   01FE54  8439               	bsf	_uart1RxLastError^(0+1280),2,c	;volatile
   716   01FE56                     
   717                           ; BSR set to: 2
   718                           ;mcc_generated_files/uart1.c: 160:         UART1_OverrunErrorHandler();
   719   01FE56  D802               	call	u68
   720   01FE58  EF38  F0FF         	goto	u69
   721   01FE5C                     u68:
   722   01FE5C  0005               	push	
   723   01FE5E  6EFA               	movwf	pclath,c
   724   01FE60  5023               	movf	_UART1_OverrunErrorHandler^(0+1280),w,c
   725   01FE62  6EFD               	movwf	tosl,c
   726   01FE64  5024               	movf	(_UART1_OverrunErrorHandler+1)^(0+1280),w,c
   727   01FE66  6EFE               	movwf	tosh,c
   728   01FE68  5025               	movf	(_UART1_OverrunErrorHandler+2)^(0+1280),w,c
   729   01FE6A  6EFF               	movwf	tosu,c
   730   01FE6C  50FA               	movf	pclath,w,c
   731   01FE6E  0012               	return		;indir
   732   01FE70                     u69:
   733   01FE70                     l1169:
   734                           
   735                           ;mcc_generated_files/uart1.c: 163:     if(uart1RxLastError.status){
   736   01FE70  5039               	movf	_uart1RxLastError^(0+1280),w,c	;volatile
   737   01FE72  B4D8               	btfsc	status,2,c
   738   01FE74  EF3E  F0FF         	goto	u71
   739   01FE78  EF40  F0FF         	goto	u70
   740   01FE7C                     u71:
   741   01FE7C  EF4D  F0FF         	goto	l1173
   742   01FE80                     u70:
   743   01FE80                     
   744                           ;mcc_generated_files/uart1.c: 164:         UART1_ErrorHandler();
   745   01FE80  D802               	call	u88
   746   01FE82  EF4D  F0FF         	goto	u89
   747   01FE86                     u88:
   748   01FE86  0005               	push	
   749   01FE88  6EFA               	movwf	pclath,c
   750   01FE8A  5020               	movf	_UART1_ErrorHandler^(0+1280),w,c
   751   01FE8C  6EFD               	movwf	tosl,c
   752   01FE8E  5021               	movf	(_UART1_ErrorHandler+1)^(0+1280),w,c
   753   01FE90  6EFE               	movwf	tosh,c
   754   01FE92  5022               	movf	(_UART1_ErrorHandler+2)^(0+1280),w,c
   755   01FE94  6EFF               	movwf	tosu,c
   756   01FE96  50FA               	movf	pclath,w,c
   757   01FE98  0012               	return		;indir
   758   01FE9A                     u89:
   759   01FE9A                     l1173:
   760                           
   761                           ;mcc_generated_files/uart1.c: 167:     return U1RXB;
   762   01FE9A  0102               	movlb	2	; () banked
   763   01FE9C  51A1               	movf	161,w,b	;volatile
   764   01FE9E                     
   765                           ; BSR set to: 2
   766   01FE9E  0012               	return		;funcret
   767   01FEA0                     __end_of_UART1_Read:
   768                           	callstack 0
   769                           
   770 ;; *************** function _UART1_DefaultOverrunErrorHandler *****************
   771 ;; Defined at:
   772 ;;		line 185 in file "mcc_generated_files/uart1.c"
   773 ;; Parameters:    Size  Location     Type
   774 ;;		None
   775 ;; Auto vars:     Size  Location     Type
   776 ;;		None
   777 ;; Return value:  Size  Location     Type
   778 ;;                  1    wreg      void 
   779 ;; Registers used:
   780 ;;		None
   781 ;; Tracked objects:
   782 ;;		On entry : 0/0
   783 ;;		On exit  : 0/0
   784 ;;		Unchanged: 0/0
   785 ;; Data sizes:     COMRAM   BANK5   BANK6   BANK7   BANK8   BANK9  BANK10  BANK11  BANK12  BANK13  BANK14  BANK15  BANK1
      +6  BANK17  BANK18  BANK19  BANK20  BANK21  BANK22  BANK23  BANK24  BANK25  BANK26  BANK27  BANK28  BANK29  BANK30  BANK3
      +1  BANK32  BANK33  BANK34  BANK35  BANK36
   786 ;;      Params:         0       0       0       0       0       0       0       0       0       0       0       0       
      +0       0       0       0       0       0       0       0       0       0       0       0       0       0       0       
      +0       0       0       0       0       0
   787 ;;      Locals:         0       0       0       0       0       0       0       0       0       0       0       0       
      +0       0       0       0       0       0       0       0       0       0       0       0       0       0       0       
      +0       0       0       0       0       0
   788 ;;      Temps:          0       0       0       0       0       0       0       0       0       0       0       0       
      +0       0       0       0       0       0       0       0       0       0       0       0       0       0       0       
      +0       0       0       0       0       0
   789 ;;      Totals:         0       0       0       0       0       0       0       0       0       0       0       0       
      +0       0       0       0       0       0       0       0       0       0       0       0       0       0       0       
      +0       0       0       0       0       0
   790 ;;Total ram usage:        0 bytes
   791 ;; Hardware stack levels used: 1
   792 ;; This function calls:
   793 ;;		Nothing
   794 ;; This function is called by:
   795 ;;		_UART1_Initialize
   796 ;;		_UART1_Read
   797 ;; This function uses a non-reentrant model
   798 ;;
   799                           
   800                           	psect	text5
   801   01FC04                     __ptext5:
   802                           	callstack 0
   803   01FC04                     _UART1_DefaultOverrunErrorHandler:
   804                           	callstack 125
   805   01FC04  0012               	return		;funcret
   806   01FC06                     __end_of_UART1_DefaultOverrunErrorHandler:
   807                           	callstack 0
   808                           
   809 ;; *************** function _UART1_DefaultFramingErrorHandler *****************
   810 ;; Defined at:
   811 ;;		line 183 in file "mcc_generated_files/uart1.c"
   812 ;; Parameters:    Size  Location     Type
   813 ;;		None
   814 ;; Auto vars:     Size  Location     Type
   815 ;;		None
   816 ;; Return value:  Size  Location     Type
   817 ;;                  1    wreg      void 
   818 ;; Registers used:
   819 ;;		None
   820 ;; Tracked objects:
   821 ;;		On entry : 0/0
   822 ;;		On exit  : 0/0
   823 ;;		Unchanged: 0/0
   824 ;; Data sizes:     COMRAM   BANK5   BANK6   BANK7   BANK8   BANK9  BANK10  BANK11  BANK12  BANK13  BANK14  BANK15  BANK1
      +6  BANK17  BANK18  BANK19  BANK20  BANK21  BANK22  BANK23  BANK24  BANK25  BANK26  BANK27  BANK28  BANK29  BANK30  BANK3
      +1  BANK32  BANK33  BANK34  BANK35  BANK36
   825 ;;      Params:         0       0       0       0       0       0       0       0       0       0       0       0       
      +0       0       0       0       0       0       0       0       0       0       0       0       0       0       0       
      +0       0       0       0       0       0
   826 ;;      Locals:         0       0       0       0       0       0       0       0       0       0       0       0       
      +0       0       0       0       0       0       0       0       0       0       0       0       0       0       0       
      +0       0       0       0       0       0
   827 ;;      Temps:          0       0       0       0       0       0       0       0       0       0       0       0       
      +0       0       0       0       0       0       0       0       0       0       0       0       0       0       0       
      +0       0       0       0       0       0
   828 ;;      Totals:         0       0       0       0       0       0       0       0       0       0       0       0       
      +0       0       0       0       0       0       0       0       0       0       0       0       0       0       0       
      +0       0       0       0       0       0
   829 ;;Total ram usage:        0 bytes
   830 ;; Hardware stack levels used: 1
   831 ;; This function calls:
   832 ;;		Nothing
   833 ;; This function is called by:
   834 ;;		_UART1_Initialize
   835 ;;		_UART1_Read
   836 ;; This function uses a non-reentrant model
   837 ;;
   838                           
   839                           	psect	text6
   840   01FC02                     __ptext6:
   841                           	callstack 0
   842   01FC02                     _UART1_DefaultFramingErrorHandler:
   843                           	callstack 125
   844   01FC02  0012               	return		;funcret
   845   01FC04                     __end_of_UART1_DefaultFramingErrorHandler:
   846                           	callstack 0
   847                           
   848 ;; *************** function _UART1_DefaultErrorHandler *****************
   849 ;; Defined at:
   850 ;;		line 187 in file "mcc_generated_files/uart1.c"
   851 ;; Parameters:    Size  Location     Type
   852 ;;		None
   853 ;; Auto vars:     Size  Location     Type
   854 ;;		None
   855 ;; Return value:  Size  Location     Type
   856 ;;                  1    wreg      void 
   857 ;; Registers used:
   858 ;;		None
   859 ;; Tracked objects:
   860 ;;		On entry : 0/0
   861 ;;		On exit  : 0/0
   862 ;;		Unchanged: 0/0
   863 ;; Data sizes:     COMRAM   BANK5   BANK6   BANK7   BANK8   BANK9  BANK10  BANK11  BANK12  BANK13  BANK14  BANK15  BANK1
      +6  BANK17  BANK18  BANK19  BANK20  BANK21  BANK22  BANK23  BANK24  BANK25  BANK26  BANK27  BANK28  BANK29  BANK30  BANK3
      +1  BANK32  BANK33  BANK34  BANK35  BANK36
   864 ;;      Params:         0       0       0       0       0       0       0       0       0       0       0       0       
      +0       0       0       0       0       0       0       0       0       0       0       0       0       0       0       
      +0       0       0       0       0       0
   865 ;;      Locals:         0       0       0       0       0       0       0       0       0       0       0       0       
      +0       0       0       0       0       0       0       0       0       0       0       0       0       0       0       
      +0       0       0       0       0       0
   866 ;;      Temps:          0       0       0       0       0       0       0       0       0       0       0       0       
      +0       0       0       0       0       0       0       0       0       0       0       0       0       0       0       
      +0       0       0       0       0       0
   867 ;;      Totals:         0       0       0       0       0       0       0       0       0       0       0       0       
      +0       0       0       0       0       0       0       0       0       0       0       0       0       0       0       
      +0       0       0       0       0       0
   868 ;;Total ram usage:        0 bytes
   869 ;; Hardware stack levels used: 1
   870 ;; This function calls:
   871 ;;		Nothing
   872 ;; This function is called by:
   873 ;;		_UART1_Initialize
   874 ;;		_UART1_Read
   875 ;; This function uses a non-reentrant model
   876 ;;
   877                           
   878                           	psect	text7
   879   01FC00                     __ptext7:
   880                           	callstack 0
   881   01FC00                     _UART1_DefaultErrorHandler:
   882                           	callstack 125
   883   01FC00  0012               	return		;funcret
   884   01FC02                     __end_of_UART1_DefaultErrorHandler:
   885                           	callstack 0
   886                           
   887 ;; *************** function _SYSTEM_Initialize *****************
   888 ;; Defined at:
   889 ;;		line 50 in file "mcc_generated_files/mcc.c"
   890 ;; Parameters:    Size  Location     Type
   891 ;;		None
   892 ;; Auto vars:     Size  Location     Type
   893 ;;		None
   894 ;; Return value:  Size  Location     Type
   895 ;;                  1    wreg      void 
   896 ;; Registers used:
   897 ;;		wreg, status,2, status,0, cstack
   898 ;; Tracked objects:
   899 ;;		On entry : 0/0
   900 ;;		On exit  : 0/0
   901 ;;		Unchanged: 0/0
   902 ;; Data sizes:     COMRAM   BANK5   BANK6   BANK7   BANK8   BANK9  BANK10  BANK11  BANK12  BANK13  BANK14  BANK15  BANK1
      +6  BANK17  BANK18  BANK19  BANK20  BANK21  BANK22  BANK23  BANK24  BANK25  BANK26  BANK27  BANK28  BANK29  BANK30  BANK3
      +1  BANK32  BANK33  BANK34  BANK35  BANK36
   903 ;;      Params:         0       0       0       0       0       0       0       0       0       0       0       0       
      +0       0       0       0       0       0       0       0       0       0       0       0       0       0       0       
      +0       0       0       0       0       0
   904 ;;      Locals:         0       0       0       0       0       0       0       0       0       0       0       0       
      +0       0       0       0       0       0       0       0       0       0       0       0       0       0       0       
      +0       0       0       0       0       0
   905 ;;      Temps:          0       0       0       0       0       0       0       0       0       0       0       0       
      +0       0       0       0       0       0       0       0       0       0       0       0       0       0       0       
      +0       0       0       0       0       0
   906 ;;      Totals:         0       0       0       0       0       0       0       0       0       0       0       0       
      +0       0       0       0       0       0       0       0       0       0       0       0       0       0       0       
      +0       0       0       0       0       0
   907 ;;Total ram usage:        0 bytes
   908 ;; Hardware stack levels used: 1
   909 ;; Hardware stack levels required when called: 2
   910 ;; This function calls:
   911 ;;		_OSCILLATOR_Initialize
   912 ;;		_PIN_MANAGER_Initialize
   913 ;;		_PMD_Initialize
   914 ;;		_UART1_Initialize
   915 ;;		_UART5_Initialize
   916 ;; This function is called by:
   917 ;;		_main
   918 ;; This function uses a non-reentrant model
   919 ;;
   920                           
   921                           	psect	text8
   922   01FC7E                     __ptext8:
   923                           	callstack 0
   924   01FC7E                     _SYSTEM_Initialize:
   925                           	callstack 124
   926   01FC7E                     
   927                           ;mcc_generated_files/mcc.c: 52:     PMD_Initialize();
   928   01FC7E  EC6E  F0FE         	call	_PMD_Initialize	;wreg free
   929                           
   930                           ;mcc_generated_files/mcc.c: 53:     PIN_MANAGER_Initialize();
   931   01FC82  ECA5  F0FF         	call	_PIN_MANAGER_Initialize	;wreg free
   932                           
   933                           ;mcc_generated_files/mcc.c: 54:     OSCILLATOR_Initialize();
   934   01FC86  EC60  F0FE         	call	_OSCILLATOR_Initialize	;wreg free
   935   01FC8A                     
   936                           ;mcc_generated_files/mcc.c: 55:     UART5_Initialize();
   937   01FC8A  EC95  F0FE         	call	_UART5_Initialize	;wreg free
   938   01FC8E                     
   939                           ;mcc_generated_files/mcc.c: 56:     UART1_Initialize();
   940   01FC8E  ECC9  F0FE         	call	_UART1_Initialize	;wreg free
   941   01FC92  0012               	return		;funcret
   942   01FC94                     __end_of_SYSTEM_Initialize:
   943                           	callstack 0
   944                           
   945 ;; *************** function _UART5_Initialize *****************
   946 ;; Defined at:
   947 ;;		line 66 in file "mcc_generated_files/uart5.c"
   948 ;; Parameters:    Size  Location     Type
   949 ;;		None
   950 ;; Auto vars:     Size  Location     Type
   951 ;;		None
   952 ;; Return value:  Size  Location     Type
   953 ;;                  1    wreg      void 
   954 ;; Registers used:
   955 ;;		wreg, status,2, status,0, cstack
   956 ;; Tracked objects:
   957 ;;		On entry : 0/0
   958 ;;		On exit  : 0/0
   959 ;;		Unchanged: 0/0
   960 ;; Data sizes:     COMRAM   BANK5   BANK6   BANK7   BANK8   BANK9  BANK10  BANK11  BANK12  BANK13  BANK14  BANK15  BANK1
      +6  BANK17  BANK18  BANK19  BANK20  BANK21  BANK22  BANK23  BANK24  BANK25  BANK26  BANK27  BANK28  BANK29  BANK30  BANK3
      +1  BANK32  BANK33  BANK34  BANK35  BANK36
   961 ;;      Params:         0       0       0       0       0       0       0       0       0       0       0       0       
      +0       0       0       0       0       0       0       0       0       0       0       0       0       0       0       
      +0       0       0       0       0       0
   962 ;;      Locals:         0       0       0       0       0       0       0       0       0       0       0       0       
      +0       0       0       0       0       0       0       0       0       0       0       0       0       0       0       
      +0       0       0       0       0       0
   963 ;;      Temps:          0       0       0       0       0       0       0       0       0       0       0       0       
      +0       0       0       0       0       0       0       0       0       0       0       0       0       0       0       
      +0       0       0       0       0       0
   964 ;;      Totals:         0       0       0       0       0       0       0       0       0       0       0       0       
      +0       0       0       0       0       0       0       0       0       0       0       0       0       0       0       
      +0       0       0       0       0       0
   965 ;;Total ram usage:        0 bytes
   966 ;; Hardware stack levels used: 1
   967 ;; Hardware stack levels required when called: 1
   968 ;; This function calls:
   969 ;;		_UART5_SetErrorHandler
   970 ;;		_UART5_SetFramingErrorHandler
   971 ;;		_UART5_SetOverrunErrorHandler
   972 ;; This function is called by:
   973 ;;		_SYSTEM_Initialize
   974 ;;		_main
   975 ;; This function uses a non-reentrant model
   976 ;;
   977                           
   978                           	psect	text9
   979   01FD2A                     __ptext9:
   980                           	callstack 0
   981   01FD2A                     _UART5_Initialize:
   982                           	callstack 125
   983   01FD2A                     
   984                           ;mcc_generated_files/uart5.c: 73:     U5P1L = 0x00;
   985   01FD2A  0E00               	movlw	0
   986   01FD2C  0102               	movlb	2	; () banked
   987   01FD2E  6FF1               	movwf	241,b	;volatile
   988                           
   989                           ;mcc_generated_files/uart5.c: 76:     U5P2L = 0x00;
   990   01FD30  0E00               	movlw	0
   991   01FD32  6FF3               	movwf	243,b	;volatile
   992                           
   993                           ;mcc_generated_files/uart5.c: 79:     U5P3L = 0x00;
   994   01FD34  0E00               	movlw	0
   995   01FD36  6FF5               	movwf	245,b	;volatile
   996                           
   997                           ;mcc_generated_files/uart5.c: 82:     U5CON0 = 0xB0;
   998   01FD38  0EB0               	movlw	176
   999   01FD3A  6FF7               	movwf	247,b	;volatile
  1000                           
  1001                           ;mcc_generated_files/uart5.c: 85:     U5CON1 = 0x80;
  1002   01FD3C  0E80               	movlw	128
  1003   01FD3E  6FF8               	movwf	248,b	;volatile
  1004                           
  1005                           ;mcc_generated_files/uart5.c: 88:     U5CON2 = 0x00;
  1006   01FD40  0E00               	movlw	0
  1007   01FD42  6FF9               	movwf	249,b	;volatile
  1008                           
  1009                           ;mcc_generated_files/uart5.c: 91:     U5BRGL = 0x19;
  1010   01FD44  0E19               	movlw	25
  1011   01FD46  6FFA               	movwf	250,b	;volatile
  1012                           
  1013                           ;mcc_generated_files/uart5.c: 94:     U5BRGH = 0x00;
  1014   01FD48  0E00               	movlw	0
  1015   01FD4A  6FFB               	movwf	251,b	;volatile
  1016                           
  1017                           ;mcc_generated_files/uart5.c: 97:     U5FIFO = 0x00;
  1018   01FD4C  0E00               	movlw	0
  1019   01FD4E  6FFC               	movwf	252,b	;volatile
  1020                           
  1021                           ;mcc_generated_files/uart5.c: 100:     U5UIR = 0x00;
  1022   01FD50  0E00               	movlw	0
  1023   01FD52  6FFD               	movwf	253,b	;volatile
  1024                           
  1025                           ;mcc_generated_files/uart5.c: 103:     U5ERRIR = 0x00;
  1026   01FD54  0E00               	movlw	0
  1027   01FD56  6FFE               	movwf	254,b	;volatile
  1028                           
  1029                           ;mcc_generated_files/uart5.c: 106:     U5ERRIE = 0x00;
  1030   01FD58  0E00               	movlw	0
  1031   01FD5A  6FFF               	movwf	255,b	;volatile
  1032   01FD5C                     
  1033                           ; BSR set to: 2
  1034                           ;mcc_generated_files/uart5.c: 109:     UART5_SetFramingErrorHandler(UART5_DefaultFraming
      +                          ErrorHandler);
  1035   01FD5C  0E00               	movlw	0
  1036   01FD5E  6E01               	movwf	UART5_SetFramingErrorHandler@interruptHandler^(0+1280),c
  1037   01FD60  0E00               	movlw	0
  1038   01FD62  6E02               	movwf	(UART5_SetFramingErrorHandler@interruptHandler+1)^(0+1280),c
  1039   01FD64  0E00               	movlw	0
  1040   01FD66  6E03               	movwf	(UART5_SetFramingErrorHandler@interruptHandler+2)^(0+1280),c
  1041   01FD68  EC1F  F0FE         	call	_UART5_SetFramingErrorHandler	;wreg free
  1042   01FD6C                     
  1043                           ;mcc_generated_files/uart5.c: 110:     UART5_SetOverrunErrorHandler(UART5_DefaultOverrun
      +                          ErrorHandler);
  1044   01FD6C  0E00               	movlw	0
  1045   01FD6E  6E01               	movwf	UART5_SetOverrunErrorHandler@interruptHandler^(0+1280),c
  1046   01FD70  0E00               	movlw	0
  1047   01FD72  6E02               	movwf	(UART5_SetOverrunErrorHandler@interruptHandler+1)^(0+1280),c
  1048   01FD74  0E00               	movlw	0
  1049   01FD76  6E03               	movwf	(UART5_SetOverrunErrorHandler@interruptHandler+2)^(0+1280),c
  1050   01FD78  EC26  F0FE         	call	_UART5_SetOverrunErrorHandler	;wreg free
  1051   01FD7C                     
  1052                           ;mcc_generated_files/uart5.c: 111:     UART5_SetErrorHandler(UART5_DefaultErrorHandler);
  1053   01FD7C  0E00               	movlw	0
  1054   01FD7E  6E01               	movwf	UART5_SetErrorHandler@interruptHandler^(0+1280),c
  1055   01FD80  0E00               	movlw	0
  1056   01FD82  6E02               	movwf	(UART5_SetErrorHandler@interruptHandler+1)^(0+1280),c
  1057   01FD84  0E00               	movlw	0
  1058   01FD86  6E03               	movwf	(UART5_SetErrorHandler@interruptHandler+2)^(0+1280),c
  1059   01FD88  EC18  F0FE         	call	_UART5_SetErrorHandler	;wreg free
  1060   01FD8C                     
  1061                           ;mcc_generated_files/uart5.c: 113:     uart5RxLastError.status = 0;
  1062   01FD8C  0E00               	movlw	0
  1063   01FD8E  6E38               	movwf	_uart5RxLastError^(0+1280),c	;volatile
  1064   01FD90  0012               	return		;funcret
  1065   01FD92                     __end_of_UART5_Initialize:
  1066                           	callstack 0
  1067                           
  1068 ;; *************** function _UART5_SetOverrunErrorHandler *****************
  1069 ;; Defined at:
  1070 ;;		line 195 in file "mcc_generated_files/uart5.c"
  1071 ;; Parameters:    Size  Location     Type
  1072 ;;  interruptHan    3    0[COMRAM] PTR FTN()void 
  1073 ;;		 -> UART5_DefaultOverrunErrorHandler(1), 
  1074 ;; Auto vars:     Size  Location     Type
  1075 ;;		None
  1076 ;; Return value:  Size  Location     Type
  1077 ;;                  1    wreg      void 
  1078 ;; Registers used:
  1079 ;;		wreg, status,2, status,0
  1080 ;; Tracked objects:
  1081 ;;		On entry : 0/0
  1082 ;;		On exit  : 0/0
  1083 ;;		Unchanged: 0/0
  1084 ;; Data sizes:     COMRAM   BANK5   BANK6   BANK7   BANK8   BANK9  BANK10  BANK11  BANK12  BANK13  BANK14  BANK15  BANK1
      +6  BANK17  BANK18  BANK19  BANK20  BANK21  BANK22  BANK23  BANK24  BANK25  BANK26  BANK27  BANK28  BANK29  BANK30  BANK3
      +1  BANK32  BANK33  BANK34  BANK35  BANK36
  1085 ;;      Params:         3       0       0       0       0       0       0       0       0       0       0       0       
      +0       0       0       0       0       0       0       0       0       0       0       0       0       0       0       
      +0       0       0       0       0       0
  1086 ;;      Locals:         0       0       0       0       0       0       0       0       0       0       0       0       
      +0       0       0       0       0       0       0       0       0       0       0       0       0       0       0       
      +0       0       0       0       0       0
  1087 ;;      Temps:          0       0       0       0       0       0       0       0       0       0       0       0       
      +0       0       0       0       0       0       0       0       0       0       0       0       0       0       0       
      +0       0       0       0       0       0
  1088 ;;      Totals:         3       0       0       0       0       0       0       0       0       0       0       0       
      +0       0       0       0       0       0       0       0       0       0       0       0       0       0       0       
      +0       0       0       0       0       0
  1089 ;;Total ram usage:        3 bytes
  1090 ;; Hardware stack levels used: 1
  1091 ;; This function calls:
  1092 ;;		Nothing
  1093 ;; This function is called by:
  1094 ;;		_UART5_Initialize
  1095 ;; This function uses a non-reentrant model
  1096 ;;
  1097                           
  1098                           	psect	text10
  1099   01FC4C                     __ptext10:
  1100                           	callstack 0
  1101   01FC4C                     _UART5_SetOverrunErrorHandler:
  1102                           	callstack 125
  1103   01FC4C                     
  1104                           ;mcc_generated_files/uart5.c: 196:     UART5_OverrunErrorHandler = interruptHandler;
  1105   01FC4C  C501  F51A         	movff	UART5_SetOverrunErrorHandler@interruptHandler,_UART5_OverrunErrorHandler
  1106   01FC50  C502  F51B         	movff	UART5_SetOverrunErrorHandler@interruptHandler+1,_UART5_OverrunErrorHandler+1
  1107   01FC54  C503  F51C         	movff	UART5_SetOverrunErrorHandler@interruptHandler+2,_UART5_OverrunErrorHandler+2
  1108   01FC58  0012               	return		;funcret
  1109   01FC5A                     __end_of_UART5_SetOverrunErrorHandler:
  1110                           	callstack 0
  1111                           
  1112 ;; *************** function _UART5_SetFramingErrorHandler *****************
  1113 ;; Defined at:
  1114 ;;		line 191 in file "mcc_generated_files/uart5.c"
  1115 ;; Parameters:    Size  Location     Type
  1116 ;;  interruptHan    3    0[COMRAM] PTR FTN()void 
  1117 ;;		 -> UART5_DefaultFramingErrorHandler(1), 
  1118 ;; Auto vars:     Size  Location     Type
  1119 ;;		None
  1120 ;; Return value:  Size  Location     Type
  1121 ;;                  1    wreg      void 
  1122 ;; Registers used:
  1123 ;;		wreg, status,2, status,0
  1124 ;; Tracked objects:
  1125 ;;		On entry : 0/0
  1126 ;;		On exit  : 0/0
  1127 ;;		Unchanged: 0/0
  1128 ;; Data sizes:     COMRAM   BANK5   BANK6   BANK7   BANK8   BANK9  BANK10  BANK11  BANK12  BANK13  BANK14  BANK15  BANK1
      +6  BANK17  BANK18  BANK19  BANK20  BANK21  BANK22  BANK23  BANK24  BANK25  BANK26  BANK27  BANK28  BANK29  BANK30  BANK3
      +1  BANK32  BANK33  BANK34  BANK35  BANK36
  1129 ;;      Params:         3       0       0       0       0       0       0       0       0       0       0       0       
      +0       0       0       0       0       0       0       0       0       0       0       0       0       0       0       
      +0       0       0       0       0       0
  1130 ;;      Locals:         0       0       0       0       0       0       0       0       0       0       0       0       
      +0       0       0       0       0       0       0       0       0       0       0       0       0       0       0       
      +0       0       0       0       0       0
  1131 ;;      Temps:          0       0       0       0       0       0       0       0       0       0       0       0       
      +0       0       0       0       0       0       0       0       0       0       0       0       0       0       0       
      +0       0       0       0       0       0
  1132 ;;      Totals:         3       0       0       0       0       0       0       0       0       0       0       0       
      +0       0       0       0       0       0       0       0       0       0       0       0       0       0       0       
      +0       0       0       0       0       0
  1133 ;;Total ram usage:        3 bytes
  1134 ;; Hardware stack levels used: 1
  1135 ;; This function calls:
  1136 ;;		Nothing
  1137 ;; This function is called by:
  1138 ;;		_UART5_Initialize
  1139 ;; This function uses a non-reentrant model
  1140 ;;
  1141                           
  1142                           	psect	text11
  1143   01FC3E                     __ptext11:
  1144                           	callstack 0
  1145   01FC3E                     _UART5_SetFramingErrorHandler:
  1146                           	callstack 125
  1147   01FC3E                     
  1148                           ;mcc_generated_files/uart5.c: 192:     UART5_FramingErrorHandler = interruptHandler;
  1149   01FC3E  C501  F51D         	movff	UART5_SetFramingErrorHandler@interruptHandler,_UART5_FramingErrorHandler
  1150   01FC42  C502  F51E         	movff	UART5_SetFramingErrorHandler@interruptHandler+1,_UART5_FramingErrorHandler+1
  1151   01FC46  C503  F51F         	movff	UART5_SetFramingErrorHandler@interruptHandler+2,_UART5_FramingErrorHandler+2
  1152   01FC4A  0012               	return		;funcret
  1153   01FC4C                     __end_of_UART5_SetFramingErrorHandler:
  1154                           	callstack 0
  1155                           
  1156 ;; *************** function _UART5_SetErrorHandler *****************
  1157 ;; Defined at:
  1158 ;;		line 199 in file "mcc_generated_files/uart5.c"
  1159 ;; Parameters:    Size  Location     Type
  1160 ;;  interruptHan    3    0[COMRAM] PTR FTN()void 
  1161 ;;		 -> UART5_DefaultErrorHandler(1), 
  1162 ;; Auto vars:     Size  Location     Type
  1163 ;;		None
  1164 ;; Return value:  Size  Location     Type
  1165 ;;                  1    wreg      void 
  1166 ;; Registers used:
  1167 ;;		wreg, status,2, status,0
  1168 ;; Tracked objects:
  1169 ;;		On entry : 0/0
  1170 ;;		On exit  : 0/0
  1171 ;;		Unchanged: 0/0
  1172 ;; Data sizes:     COMRAM   BANK5   BANK6   BANK7   BANK8   BANK9  BANK10  BANK11  BANK12  BANK13  BANK14  BANK15  BANK1
      +6  BANK17  BANK18  BANK19  BANK20  BANK21  BANK22  BANK23  BANK24  BANK25  BANK26  BANK27  BANK28  BANK29  BANK30  BANK3
      +1  BANK32  BANK33  BANK34  BANK35  BANK36
  1173 ;;      Params:         3       0       0       0       0       0       0       0       0       0       0       0       
      +0       0       0       0       0       0       0       0       0       0       0       0       0       0       0       
      +0       0       0       0       0       0
  1174 ;;      Locals:         0       0       0       0       0       0       0       0       0       0       0       0       
      +0       0       0       0       0       0       0       0       0       0       0       0       0       0       0       
      +0       0       0       0       0       0
  1175 ;;      Temps:          0       0       0       0       0       0       0       0       0       0       0       0       
      +0       0       0       0       0       0       0       0       0       0       0       0       0       0       0       
      +0       0       0       0       0       0
  1176 ;;      Totals:         3       0       0       0       0       0       0       0       0       0       0       0       
      +0       0       0       0       0       0       0       0       0       0       0       0       0       0       0       
      +0       0       0       0       0       0
  1177 ;;Total ram usage:        3 bytes
  1178 ;; Hardware stack levels used: 1
  1179 ;; This function calls:
  1180 ;;		Nothing
  1181 ;; This function is called by:
  1182 ;;		_UART5_Initialize
  1183 ;; This function uses a non-reentrant model
  1184 ;;
  1185                           
  1186                           	psect	text12
  1187   01FC30                     __ptext12:
  1188                           	callstack 0
  1189   01FC30                     _UART5_SetErrorHandler:
  1190                           	callstack 125
  1191   01FC30                     
  1192                           ;mcc_generated_files/uart5.c: 200:     UART5_ErrorHandler = interruptHandler;
  1193   01FC30  C501  F517         	movff	UART5_SetErrorHandler@interruptHandler,_UART5_ErrorHandler
  1194   01FC34  C502  F518         	movff	UART5_SetErrorHandler@interruptHandler+1,_UART5_ErrorHandler+1
  1195   01FC38  C503  F519         	movff	UART5_SetErrorHandler@interruptHandler+2,_UART5_ErrorHandler+2
  1196   01FC3C  0012               	return		;funcret
  1197   01FC3E                     __end_of_UART5_SetErrorHandler:
  1198                           	callstack 0
  1199                           
  1200 ;; *************** function _UART1_Initialize *****************
  1201 ;; Defined at:
  1202 ;;		line 66 in file "mcc_generated_files/uart1.c"
  1203 ;; Parameters:    Size  Location     Type
  1204 ;;		None
  1205 ;; Auto vars:     Size  Location     Type
  1206 ;;		None
  1207 ;; Return value:  Size  Location     Type
  1208 ;;                  1    wreg      void 
  1209 ;; Registers used:
  1210 ;;		wreg, status,2, status,0, cstack
  1211 ;; Tracked objects:
  1212 ;;		On entry : 0/0
  1213 ;;		On exit  : 0/0
  1214 ;;		Unchanged: 0/0
  1215 ;; Data sizes:     COMRAM   BANK5   BANK6   BANK7   BANK8   BANK9  BANK10  BANK11  BANK12  BANK13  BANK14  BANK15  BANK1
      +6  BANK17  BANK18  BANK19  BANK20  BANK21  BANK22  BANK23  BANK24  BANK25  BANK26  BANK27  BANK28  BANK29  BANK30  BANK3
      +1  BANK32  BANK33  BANK34  BANK35  BANK36
  1216 ;;      Params:         0       0       0       0       0       0       0       0       0       0       0       0       
      +0       0       0       0       0       0       0       0       0       0       0       0       0       0       0       
      +0       0       0       0       0       0
  1217 ;;      Locals:         0       0       0       0       0       0       0       0       0       0       0       0       
      +0       0       0       0       0       0       0       0       0       0       0       0       0       0       0       
      +0       0       0       0       0       0
  1218 ;;      Temps:          0       0       0       0       0       0       0       0       0       0       0       0       
      +0       0       0       0       0       0       0       0       0       0       0       0       0       0       0       
      +0       0       0       0       0       0
  1219 ;;      Totals:         0       0       0       0       0       0       0       0       0       0       0       0       
      +0       0       0       0       0       0       0       0       0       0       0       0       0       0       0       
      +0       0       0       0       0       0
  1220 ;;Total ram usage:        0 bytes
  1221 ;; Hardware stack levels used: 1
  1222 ;; Hardware stack levels required when called: 1
  1223 ;; This function calls:
  1224 ;;		_UART1_SetErrorHandler
  1225 ;;		_UART1_SetFramingErrorHandler
  1226 ;;		_UART1_SetOverrunErrorHandler
  1227 ;; This function is called by:
  1228 ;;		_SYSTEM_Initialize
  1229 ;;		_main
  1230 ;; This function uses a non-reentrant model
  1231 ;;
  1232                           
  1233                           	psect	text13
  1234   01FD92                     __ptext13:
  1235                           	callstack 0
  1236   01FD92                     _UART1_Initialize:
  1237                           	callstack 125
  1238   01FD92                     
  1239                           ;mcc_generated_files/uart1.c: 73:     U1P1L = 0x00;
  1240   01FD92  0E00               	movlw	0
  1241   01FD94  0102               	movlb	2	; () banked
  1242   01FD96  6FA5               	movwf	165,b	;volatile
  1243                           
  1244                           ;mcc_generated_files/uart1.c: 76:     U1P1H = 0x00;
  1245   01FD98  0E00               	movlw	0
  1246   01FD9A  6FA6               	movwf	166,b	;volatile
  1247                           
  1248                           ;mcc_generated_files/uart1.c: 79:     U1P2L = 0x00;
  1249   01FD9C  0E00               	movlw	0
  1250   01FD9E  6FA7               	movwf	167,b	;volatile
  1251                           
  1252                           ;mcc_generated_files/uart1.c: 82:     U1P2H = 0x00;
  1253   01FDA0  0E00               	movlw	0
  1254   01FDA2  6FA8               	movwf	168,b	;volatile
  1255                           
  1256                           ;mcc_generated_files/uart1.c: 85:     U1P3L = 0x00;
  1257   01FDA4  0E00               	movlw	0
  1258   01FDA6  6FA9               	movwf	169,b	;volatile
  1259                           
  1260                           ;mcc_generated_files/uart1.c: 88:     U1P3H = 0x00;
  1261   01FDA8  0E00               	movlw	0
  1262   01FDAA  6FAA               	movwf	170,b	;volatile
  1263                           
  1264                           ;mcc_generated_files/uart1.c: 91:     U1CON0 = 0xB0;
  1265   01FDAC  0EB0               	movlw	176
  1266   01FDAE  6FAB               	movwf	171,b	;volatile
  1267                           
  1268                           ;mcc_generated_files/uart1.c: 94:     U1CON1 = 0x80;
  1269   01FDB0  0E80               	movlw	128
  1270   01FDB2  6FAC               	movwf	172,b	;volatile
  1271                           
  1272                           ;mcc_generated_files/uart1.c: 97:     U1CON2 = 0x00;
  1273   01FDB4  0E00               	movlw	0
  1274   01FDB6  6FAD               	movwf	173,b	;volatile
  1275                           
  1276                           ;mcc_generated_files/uart1.c: 100:     U1BRGL = 0x19;
  1277   01FDB8  0E19               	movlw	25
  1278   01FDBA  6FAE               	movwf	174,b	;volatile
  1279                           
  1280                           ;mcc_generated_files/uart1.c: 103:     U1BRGH = 0x00;
  1281   01FDBC  0E00               	movlw	0
  1282   01FDBE  6FAF               	movwf	175,b	;volatile
  1283                           
  1284                           ;mcc_generated_files/uart1.c: 106:     U1FIFO = 0x00;
  1285   01FDC0  0E00               	movlw	0
  1286   01FDC2  6FB0               	movwf	176,b	;volatile
  1287                           
  1288                           ;mcc_generated_files/uart1.c: 109:     U1UIR = 0x00;
  1289   01FDC4  0E00               	movlw	0
  1290   01FDC6  6FB1               	movwf	177,b	;volatile
  1291                           
  1292                           ;mcc_generated_files/uart1.c: 112:     U1ERRIR = 0x00;
  1293   01FDC8  0E00               	movlw	0
  1294   01FDCA  6FB2               	movwf	178,b	;volatile
  1295                           
  1296                           ;mcc_generated_files/uart1.c: 115:     U1ERRIE = 0x00;
  1297   01FDCC  0E00               	movlw	0
  1298   01FDCE  6FB3               	movwf	179,b	;volatile
  1299   01FDD0                     
  1300                           ; BSR set to: 2
  1301                           ;mcc_generated_files/uart1.c: 118:     UART1_SetFramingErrorHandler(UART1_DefaultFraming
      +                          ErrorHandler);
  1302   01FDD0  0E02               	movlw	low _UART1_DefaultFramingErrorHandler
  1303   01FDD2  6E01               	movwf	UART1_SetFramingErrorHandler@interruptHandler^(0+1280),c
  1304   01FDD4  0EFC               	movlw	high _UART1_DefaultFramingErrorHandler
  1305   01FDD6  6E02               	movwf	(UART1_SetFramingErrorHandler@interruptHandler+1)^(0+1280),c
  1306   01FDD8  0E01               	movlw	low (_UART1_DefaultFramingErrorHandler shr (0+16))
  1307   01FDDA  6E03               	movwf	(UART1_SetFramingErrorHandler@interruptHandler+2)^(0+1280),c
  1308   01FDDC  EC0A  F0FE         	call	_UART1_SetFramingErrorHandler	;wreg free
  1309   01FDE0                     
  1310                           ;mcc_generated_files/uart1.c: 119:     UART1_SetOverrunErrorHandler(UART1_DefaultOverrun
      +                          ErrorHandler);
  1311   01FDE0  0E04               	movlw	low _UART1_DefaultOverrunErrorHandler
  1312   01FDE2  6E01               	movwf	UART1_SetOverrunErrorHandler@interruptHandler^(0+1280),c
  1313   01FDE4  0EFC               	movlw	high _UART1_DefaultOverrunErrorHandler
  1314   01FDE6  6E02               	movwf	(UART1_SetOverrunErrorHandler@interruptHandler+1)^(0+1280),c
  1315   01FDE8  0E01               	movlw	low (_UART1_DefaultOverrunErrorHandler shr (0+16))
  1316   01FDEA  6E03               	movwf	(UART1_SetOverrunErrorHandler@interruptHandler+2)^(0+1280),c
  1317   01FDEC  EC11  F0FE         	call	_UART1_SetOverrunErrorHandler	;wreg free
  1318   01FDF0                     
  1319                           ;mcc_generated_files/uart1.c: 120:     UART1_SetErrorHandler(UART1_DefaultErrorHandler);
  1320   01FDF0  0E00               	movlw	low _UART1_DefaultErrorHandler
  1321   01FDF2  6E01               	movwf	UART1_SetErrorHandler@interruptHandler^(0+1280),c
  1322   01FDF4  0EFC               	movlw	high _UART1_DefaultErrorHandler
  1323   01FDF6  6E02               	movwf	(UART1_SetErrorHandler@interruptHandler+1)^(0+1280),c
  1324   01FDF8  0E01               	movlw	low (_UART1_DefaultErrorHandler shr (0+16))
  1325   01FDFA  6E03               	movwf	(UART1_SetErrorHandler@interruptHandler+2)^(0+1280),c
  1326   01FDFC  EC03  F0FE         	call	_UART1_SetErrorHandler	;wreg free
  1327   01FE00                     
  1328                           ;mcc_generated_files/uart1.c: 122:     uart1RxLastError.status = 0;
  1329   01FE00  0E00               	movlw	0
  1330   01FE02  6E39               	movwf	_uart1RxLastError^(0+1280),c	;volatile
  1331   01FE04  0012               	return		;funcret
  1332   01FE06                     __end_of_UART1_Initialize:
  1333                           	callstack 0
  1334                           
  1335 ;; *************** function _UART1_SetOverrunErrorHandler *****************
  1336 ;; Defined at:
  1337 ;;		line 194 in file "mcc_generated_files/uart1.c"
  1338 ;; Parameters:    Size  Location     Type
  1339 ;;  interruptHan    3    0[COMRAM] PTR FTN()void 
  1340 ;;		 -> UART1_DefaultOverrunErrorHandler(1), 
  1341 ;; Auto vars:     Size  Location     Type
  1342 ;;		None
  1343 ;; Return value:  Size  Location     Type
  1344 ;;                  1    wreg      void 
  1345 ;; Registers used:
  1346 ;;		wreg, status,2, status,0
  1347 ;; Tracked objects:
  1348 ;;		On entry : 0/0
  1349 ;;		On exit  : 0/0
  1350 ;;		Unchanged: 0/0
  1351 ;; Data sizes:     COMRAM   BANK5   BANK6   BANK7   BANK8   BANK9  BANK10  BANK11  BANK12  BANK13  BANK14  BANK15  BANK1
      +6  BANK17  BANK18  BANK19  BANK20  BANK21  BANK22  BANK23  BANK24  BANK25  BANK26  BANK27  BANK28  BANK29  BANK30  BANK3
      +1  BANK32  BANK33  BANK34  BANK35  BANK36
  1352 ;;      Params:         3       0       0       0       0       0       0       0       0       0       0       0       
      +0       0       0       0       0       0       0       0       0       0       0       0       0       0       0       
      +0       0       0       0       0       0
  1353 ;;      Locals:         0       0       0       0       0       0       0       0       0       0       0       0       
      +0       0       0       0       0       0       0       0       0       0       0       0       0       0       0       
      +0       0       0       0       0       0
  1354 ;;      Temps:          0       0       0       0       0       0       0       0       0       0       0       0       
      +0       0       0       0       0       0       0       0       0       0       0       0       0       0       0       
      +0       0       0       0       0       0
  1355 ;;      Totals:         3       0       0       0       0       0       0       0       0       0       0       0       
      +0       0       0       0       0       0       0       0       0       0       0       0       0       0       0       
      +0       0       0       0       0       0
  1356 ;;Total ram usage:        3 bytes
  1357 ;; Hardware stack levels used: 1
  1358 ;; This function calls:
  1359 ;;		Nothing
  1360 ;; This function is called by:
  1361 ;;		_UART1_Initialize
  1362 ;; This function uses a non-reentrant model
  1363 ;;
  1364                           
  1365                           	psect	text14
  1366   01FC22                     __ptext14:
  1367                           	callstack 0
  1368   01FC22                     _UART1_SetOverrunErrorHandler:
  1369                           	callstack 125
  1370   01FC22                     
  1371                           ;mcc_generated_files/uart1.c: 195:     UART1_OverrunErrorHandler = interruptHandler;
  1372   01FC22  C501  F523         	movff	UART1_SetOverrunErrorHandler@interruptHandler,_UART1_OverrunErrorHandler
  1373   01FC26  C502  F524         	movff	UART1_SetOverrunErrorHandler@interruptHandler+1,_UART1_OverrunErrorHandler+1
  1374   01FC2A  C503  F525         	movff	UART1_SetOverrunErrorHandler@interruptHandler+2,_UART1_OverrunErrorHandler+2
  1375   01FC2E  0012               	return		;funcret
  1376   01FC30                     __end_of_UART1_SetOverrunErrorHandler:
  1377                           	callstack 0
  1378                           
  1379 ;; *************** function _UART1_SetFramingErrorHandler *****************
  1380 ;; Defined at:
  1381 ;;		line 190 in file "mcc_generated_files/uart1.c"
  1382 ;; Parameters:    Size  Location     Type
  1383 ;;  interruptHan    3    0[COMRAM] PTR FTN()void 
  1384 ;;		 -> UART1_DefaultFramingErrorHandler(1), 
  1385 ;; Auto vars:     Size  Location     Type
  1386 ;;		None
  1387 ;; Return value:  Size  Location     Type
  1388 ;;                  1    wreg      void 
  1389 ;; Registers used:
  1390 ;;		wreg, status,2, status,0
  1391 ;; Tracked objects:
  1392 ;;		On entry : 0/0
  1393 ;;		On exit  : 0/0
  1394 ;;		Unchanged: 0/0
  1395 ;; Data sizes:     COMRAM   BANK5   BANK6   BANK7   BANK8   BANK9  BANK10  BANK11  BANK12  BANK13  BANK14  BANK15  BANK1
      +6  BANK17  BANK18  BANK19  BANK20  BANK21  BANK22  BANK23  BANK24  BANK25  BANK26  BANK27  BANK28  BANK29  BANK30  BANK3
      +1  BANK32  BANK33  BANK34  BANK35  BANK36
  1396 ;;      Params:         3       0       0       0       0       0       0       0       0       0       0       0       
      +0       0       0       0       0       0       0       0       0       0       0       0       0       0       0       
      +0       0       0       0       0       0
  1397 ;;      Locals:         0       0       0       0       0       0       0       0       0       0       0       0       
      +0       0       0       0       0       0       0       0       0       0       0       0       0       0       0       
      +0       0       0       0       0       0
  1398 ;;      Temps:          0       0       0       0       0       0       0       0       0       0       0       0       
      +0       0       0       0       0       0       0       0       0       0       0       0       0       0       0       
      +0       0       0       0       0       0
  1399 ;;      Totals:         3       0       0       0       0       0       0       0       0       0       0       0       
      +0       0       0       0       0       0       0       0       0       0       0       0       0       0       0       
      +0       0       0       0       0       0
  1400 ;;Total ram usage:        3 bytes
  1401 ;; Hardware stack levels used: 1
  1402 ;; This function calls:
  1403 ;;		Nothing
  1404 ;; This function is called by:
  1405 ;;		_UART1_Initialize
  1406 ;; This function uses a non-reentrant model
  1407 ;;
  1408                           
  1409                           	psect	text15
  1410   01FC14                     __ptext15:
  1411                           	callstack 0
  1412   01FC14                     _UART1_SetFramingErrorHandler:
  1413                           	callstack 125
  1414   01FC14                     
  1415                           ;mcc_generated_files/uart1.c: 191:     UART1_FramingErrorHandler = interruptHandler;
  1416   01FC14  C501  F526         	movff	UART1_SetFramingErrorHandler@interruptHandler,_UART1_FramingErrorHandler
  1417   01FC18  C502  F527         	movff	UART1_SetFramingErrorHandler@interruptHandler+1,_UART1_FramingErrorHandler+1
  1418   01FC1C  C503  F528         	movff	UART1_SetFramingErrorHandler@interruptHandler+2,_UART1_FramingErrorHandler+2
  1419   01FC20  0012               	return		;funcret
  1420   01FC22                     __end_of_UART1_SetFramingErrorHandler:
  1421                           	callstack 0
  1422                           
  1423 ;; *************** function _UART1_SetErrorHandler *****************
  1424 ;; Defined at:
  1425 ;;		line 198 in file "mcc_generated_files/uart1.c"
  1426 ;; Parameters:    Size  Location     Type
  1427 ;;  interruptHan    3    0[COMRAM] PTR FTN()void 
  1428 ;;		 -> UART1_DefaultErrorHandler(1), 
  1429 ;; Auto vars:     Size  Location     Type
  1430 ;;		None
  1431 ;; Return value:  Size  Location     Type
  1432 ;;                  1    wreg      void 
  1433 ;; Registers used:
  1434 ;;		wreg, status,2, status,0
  1435 ;; Tracked objects:
  1436 ;;		On entry : 0/0
  1437 ;;		On exit  : 0/0
  1438 ;;		Unchanged: 0/0
  1439 ;; Data sizes:     COMRAM   BANK5   BANK6   BANK7   BANK8   BANK9  BANK10  BANK11  BANK12  BANK13  BANK14  BANK15  BANK1
      +6  BANK17  BANK18  BANK19  BANK20  BANK21  BANK22  BANK23  BANK24  BANK25  BANK26  BANK27  BANK28  BANK29  BANK30  BANK3
      +1  BANK32  BANK33  BANK34  BANK35  BANK36
  1440 ;;      Params:         3       0       0       0       0       0       0       0       0       0       0       0       
      +0       0       0       0       0       0       0       0       0       0       0       0       0       0       0       
      +0       0       0       0       0       0
  1441 ;;      Locals:         0       0       0       0       0       0       0       0       0       0       0       0       
      +0       0       0       0       0       0       0       0       0       0       0       0       0       0       0       
      +0       0       0       0       0       0
  1442 ;;      Temps:          0       0       0       0       0       0       0       0       0       0       0       0       
      +0       0       0       0       0       0       0       0       0       0       0       0       0       0       0       
      +0       0       0       0       0       0
  1443 ;;      Totals:         3       0       0       0       0       0       0       0       0       0       0       0       
      +0       0       0       0       0       0       0       0       0       0       0       0       0       0       0       
      +0       0       0       0       0       0
  1444 ;;Total ram usage:        3 bytes
  1445 ;; Hardware stack levels used: 1
  1446 ;; This function calls:
  1447 ;;		Nothing
  1448 ;; This function is called by:
  1449 ;;		_UART1_Initialize
  1450 ;; This function uses a non-reentrant model
  1451 ;;
  1452                           
  1453                           	psect	text16
  1454   01FC06                     __ptext16:
  1455                           	callstack 0
  1456   01FC06                     _UART1_SetErrorHandler:
  1457                           	callstack 125
  1458   01FC06                     
  1459                           ;mcc_generated_files/uart1.c: 199:     UART1_ErrorHandler = interruptHandler;
  1460   01FC06  C501  F520         	movff	UART1_SetErrorHandler@interruptHandler,_UART1_ErrorHandler
  1461   01FC0A  C502  F521         	movff	UART1_SetErrorHandler@interruptHandler+1,_UART1_ErrorHandler+1
  1462   01FC0E  C503  F522         	movff	UART1_SetErrorHandler@interruptHandler+2,_UART1_ErrorHandler+2
  1463   01FC12  0012               	return		;funcret
  1464   01FC14                     __end_of_UART1_SetErrorHandler:
  1465                           	callstack 0
  1466                           
  1467 ;; *************** function _PMD_Initialize *****************
  1468 ;; Defined at:
  1469 ;;		line 75 in file "mcc_generated_files/mcc.c"
  1470 ;; Parameters:    Size  Location     Type
  1471 ;;		None
  1472 ;; Auto vars:     Size  Location     Type
  1473 ;;		None
  1474 ;; Return value:  Size  Location     Type
  1475 ;;                  1    wreg      void 
  1476 ;; Registers used:
  1477 ;;		wreg, status,2
  1478 ;; Tracked objects:
  1479 ;;		On entry : 0/0
  1480 ;;		On exit  : 0/0
  1481 ;;		Unchanged: 0/0
  1482 ;; Data sizes:     COMRAM   BANK5   BANK6   BANK7   BANK8   BANK9  BANK10  BANK11  BANK12  BANK13  BANK14  BANK15  BANK1
      +6  BANK17  BANK18  BANK19  BANK20  BANK21  BANK22  BANK23  BANK24  BANK25  BANK26  BANK27  BANK28  BANK29  BANK30  BANK3
      +1  BANK32  BANK33  BANK34  BANK35  BANK36
  1483 ;;      Params:         0       0       0       0       0       0       0       0       0       0       0       0       
      +0       0       0       0       0       0       0       0       0       0       0       0       0       0       0       
      +0       0       0       0       0       0
  1484 ;;      Locals:         0       0       0       0       0       0       0       0       0       0       0       0       
      +0       0       0       0       0       0       0       0       0       0       0       0       0       0       0       
      +0       0       0       0       0       0
  1485 ;;      Temps:          0       0       0       0       0       0       0       0       0       0       0       0       
      +0       0       0       0       0       0       0       0       0       0       0       0       0       0       0       
      +0       0       0       0       0       0
  1486 ;;      Totals:         0       0       0       0       0       0       0       0       0       0       0       0       
      +0       0       0       0       0       0       0       0       0       0       0       0       0       0       0       
      +0       0       0       0       0       0
  1487 ;;Total ram usage:        0 bytes
  1488 ;; Hardware stack levels used: 1
  1489 ;; This function calls:
  1490 ;;		Nothing
  1491 ;; This function is called by:
  1492 ;;		_SYSTEM_Initialize
  1493 ;; This function uses a non-reentrant model
  1494 ;;
  1495                           
  1496                           	psect	text17
  1497   01FCDC                     __ptext17:
  1498                           	callstack 0
  1499   01FCDC                     _PMD_Initialize:
  1500                           	callstack 125
  1501   01FCDC                     
  1502                           ;mcc_generated_files/mcc.c: 78:     PMD0 = 0x00;
  1503   01FCDC  0E00               	movlw	0
  1504   01FCDE  0100               	movlb	0	; () banked
  1505   01FCE0  6F60               	movwf	96,b	;volatile
  1506                           
  1507                           ;mcc_generated_files/mcc.c: 80:     PMD1 = 0x00;
  1508   01FCE2  0E00               	movlw	0
  1509   01FCE4  6F61               	movwf	97,b	;volatile
  1510                           
  1511                           ;mcc_generated_files/mcc.c: 82:     PMD3 = 0x00;
  1512   01FCE6  0E00               	movlw	0
  1513   01FCE8  6F63               	movwf	99,b	;volatile
  1514                           
  1515                           ;mcc_generated_files/mcc.c: 84:     PMD4 = 0x00;
  1516   01FCEA  0E00               	movlw	0
  1517   01FCEC  6F64               	movwf	100,b	;volatile
  1518                           
  1519                           ;mcc_generated_files/mcc.c: 86:     PMD5 = 0x00;
  1520   01FCEE  0E00               	movlw	0
  1521   01FCF0  6F65               	movwf	101,b	;volatile
  1522                           
  1523                           ;mcc_generated_files/mcc.c: 88:     PMD6 = 0x00;
  1524   01FCF2  0E00               	movlw	0
  1525   01FCF4  6F66               	movwf	102,b	;volatile
  1526                           
  1527                           ;mcc_generated_files/mcc.c: 90:     PMD7 = 0x00;
  1528   01FCF6  0E00               	movlw	0
  1529   01FCF8  6F67               	movwf	103,b	;volatile
  1530                           
  1531                           ;mcc_generated_files/mcc.c: 92:     PMD8 = 0x00;
  1532   01FCFA  0E00               	movlw	0
  1533   01FCFC  6F68               	movwf	104,b	;volatile
  1534   01FCFE                     
  1535                           ; BSR set to: 0
  1536   01FCFE  0012               	return		;funcret
  1537   01FD00                     __end_of_PMD_Initialize:
  1538                           	callstack 0
  1539                           
  1540 ;; *************** function _PIN_MANAGER_Initialize *****************
  1541 ;; Defined at:
  1542 ;;		line 55 in file "mcc_generated_files/pin_manager.c"
  1543 ;; Parameters:    Size  Location     Type
  1544 ;;		None
  1545 ;; Auto vars:     Size  Location     Type
  1546 ;;		None
  1547 ;; Return value:  Size  Location     Type
  1548 ;;                  1    wreg      void 
  1549 ;; Registers used:
  1550 ;;		wreg, status,2
  1551 ;; Tracked objects:
  1552 ;;		On entry : 0/0
  1553 ;;		On exit  : 0/0
  1554 ;;		Unchanged: 0/0
  1555 ;; Data sizes:     COMRAM   BANK5   BANK6   BANK7   BANK8   BANK9  BANK10  BANK11  BANK12  BANK13  BANK14  BANK15  BANK1
      +6  BANK17  BANK18  BANK19  BANK20  BANK21  BANK22  BANK23  BANK24  BANK25  BANK26  BANK27  BANK28  BANK29  BANK30  BANK3
      +1  BANK32  BANK33  BANK34  BANK35  BANK36
  1556 ;;      Params:         0       0       0       0       0       0       0       0       0       0       0       0       
      +0       0       0       0       0       0       0       0       0       0       0       0       0       0       0       
      +0       0       0       0       0       0
  1557 ;;      Locals:         0       0       0       0       0       0       0       0       0       0       0       0       
      +0       0       0       0       0       0       0       0       0       0       0       0       0       0       0       
      +0       0       0       0       0       0
  1558 ;;      Temps:          0       0       0       0       0       0       0       0       0       0       0       0       
      +0       0       0       0       0       0       0       0       0       0       0       0       0       0       0       
      +0       0       0       0       0       0
  1559 ;;      Totals:         0       0       0       0       0       0       0       0       0       0       0       0       
      +0       0       0       0       0       0       0       0       0       0       0       0       0       0       0       
      +0       0       0       0       0       0
  1560 ;;Total ram usage:        0 bytes
  1561 ;; Hardware stack levels used: 1
  1562 ;; This function calls:
  1563 ;;		Nothing
  1564 ;; This function is called by:
  1565 ;;		_SYSTEM_Initialize
  1566 ;; This function uses a non-reentrant model
  1567 ;;
  1568                           
  1569                           	psect	text18
  1570   01FF4A                     __ptext18:
  1571                           	callstack 0
  1572   01FF4A                     _PIN_MANAGER_Initialize:
  1573                           	callstack 125
  1574   01FF4A                     
  1575                           ;mcc_generated_files/pin_manager.c: 60:     LATE = 0x00;
  1576   01FF4A  0E00               	movlw	0
  1577   01FF4C  6EC2               	movwf	194,c	;volatile
  1578                           
  1579                           ;mcc_generated_files/pin_manager.c: 61:     LATD = 0x00;
  1580   01FF4E  0E00               	movlw	0
  1581   01FF50  6EC1               	movwf	193,c	;volatile
  1582                           
  1583                           ;mcc_generated_files/pin_manager.c: 62:     LATA = 0x00;
  1584   01FF52  0E00               	movlw	0
  1585   01FF54  6EBE               	movwf	190,c	;volatile
  1586                           
  1587                           ;mcc_generated_files/pin_manager.c: 63:     LATF = 0x00;
  1588   01FF56  0E00               	movlw	0
  1589   01FF58  6EC3               	movwf	195,c	;volatile
  1590                           
  1591                           ;mcc_generated_files/pin_manager.c: 64:     LATB = 0x00;
  1592   01FF5A  0E00               	movlw	0
  1593   01FF5C  6EBF               	movwf	191,c	;volatile
  1594                           
  1595                           ;mcc_generated_files/pin_manager.c: 65:     LATC = 0x00;
  1596   01FF5E  0E00               	movlw	0
  1597   01FF60  6EC0               	movwf	192,c	;volatile
  1598                           
  1599                           ;mcc_generated_files/pin_manager.c: 70:     TRISE = 0x07;
  1600   01FF62  0E07               	movlw	7
  1601   01FF64  6ECA               	movwf	202,c	;volatile
  1602                           
  1603                           ;mcc_generated_files/pin_manager.c: 71:     TRISF = 0xFE;
  1604   01FF66  0EFE               	movlw	254
  1605   01FF68  6ECB               	movwf	203,c	;volatile
  1606   01FF6A                     
  1607                           ;mcc_generated_files/pin_manager.c: 72:     TRISA = 0xFF;
  1608   01FF6A  68C6               	setf	198,c	;volatile
  1609   01FF6C                     
  1610                           ;mcc_generated_files/pin_manager.c: 73:     TRISB = 0xFF;
  1611   01FF6C  68C7               	setf	199,c	;volatile
  1612                           
  1613                           ;mcc_generated_files/pin_manager.c: 74:     TRISC = 0xFB;
  1614   01FF6E  0EFB               	movlw	251
  1615   01FF70  6EC8               	movwf	200,c	;volatile
  1616   01FF72                     
  1617                           ;mcc_generated_files/pin_manager.c: 75:     TRISD = 0xFF;
  1618   01FF72  68C9               	setf	201,c	;volatile
  1619   01FF74                     
  1620                           ;mcc_generated_files/pin_manager.c: 80:     ANSELD = 0xFF;
  1621   01FF74  0104               	movlb	4	; () banked
  1622   01FF76  6918               	setf	24,b	;volatile
  1623                           
  1624                           ;mcc_generated_files/pin_manager.c: 81:     ANSELC = 0xF3;
  1625   01FF78  0EF3               	movlw	243
  1626   01FF7A  6F10               	movwf	16,b	;volatile
  1627   01FF7C                     
  1628                           ; BSR set to: 4
  1629                           ;mcc_generated_files/pin_manager.c: 82:     ANSELB = 0xFF;
  1630   01FF7C  6908               	setf	8,b	;volatile
  1631                           
  1632                           ;mcc_generated_files/pin_manager.c: 83:     ANSELE = 0x07;
  1633   01FF7E  0E07               	movlw	7
  1634   01FF80  6F20               	movwf	32,b	;volatile
  1635                           
  1636                           ;mcc_generated_files/pin_manager.c: 84:     ANSELF = 0xFC;
  1637   01FF82  0EFC               	movlw	252
  1638   01FF84  6F28               	movwf	40,b	;volatile
  1639   01FF86                     
  1640                           ; BSR set to: 4
  1641                           ;mcc_generated_files/pin_manager.c: 85:     ANSELA = 0xFF;
  1642   01FF86  6900               	setf	0,b	;volatile
  1643                           
  1644                           ;mcc_generated_files/pin_manager.c: 90:     WPUD = 0x00;
  1645   01FF88  0E00               	movlw	0
  1646   01FF8A  6F19               	movwf	25,b	;volatile
  1647                           
  1648                           ;mcc_generated_files/pin_manager.c: 91:     WPUF = 0x00;
  1649   01FF8C  0E00               	movlw	0
  1650   01FF8E  6F29               	movwf	41,b	;volatile
  1651                           
  1652                           ;mcc_generated_files/pin_manager.c: 92:     WPUE = 0x00;
  1653   01FF90  0E00               	movlw	0
  1654   01FF92  6F21               	movwf	33,b	;volatile
  1655                           
  1656                           ;mcc_generated_files/pin_manager.c: 93:     WPUB = 0x00;
  1657   01FF94  0E00               	movlw	0
  1658   01FF96  6F09               	movwf	9,b	;volatile
  1659                           
  1660                           ;mcc_generated_files/pin_manager.c: 94:     WPUA = 0x00;
  1661   01FF98  0E00               	movlw	0
  1662   01FF9A  6F01               	movwf	1,b	;volatile
  1663                           
  1664                           ;mcc_generated_files/pin_manager.c: 95:     WPUC = 0x00;
  1665   01FF9C  0E00               	movlw	0
  1666   01FF9E  6F11               	movwf	17,b	;volatile
  1667                           
  1668                           ;mcc_generated_files/pin_manager.c: 100:     RB1I2C = 0x00;
  1669   01FFA0  0E00               	movlw	0
  1670   01FFA2  0102               	movlb	2	; () banked
  1671   01FFA4  6F89               	movwf	137,b	;volatile
  1672                           
  1673                           ;mcc_generated_files/pin_manager.c: 101:     RB2I2C = 0x00;
  1674   01FFA6  0E00               	movlw	0
  1675   01FFA8  6F88               	movwf	136,b	;volatile
  1676                           
  1677                           ;mcc_generated_files/pin_manager.c: 102:     RC3I2C = 0x00;
  1678   01FFAA  0E00               	movlw	0
  1679   01FFAC  6F87               	movwf	135,b	;volatile
  1680                           
  1681                           ;mcc_generated_files/pin_manager.c: 103:     RC4I2C = 0x00;
  1682   01FFAE  0E00               	movlw	0
  1683   01FFB0  6F86               	movwf	134,b	;volatile
  1684                           
  1685                           ;mcc_generated_files/pin_manager.c: 108:     ODCONE = 0x00;
  1686   01FFB2  0E00               	movlw	0
  1687   01FFB4  0104               	movlb	4	; () banked
  1688   01FFB6  6F22               	movwf	34,b	;volatile
  1689                           
  1690                           ;mcc_generated_files/pin_manager.c: 109:     ODCONF = 0x00;
  1691   01FFB8  0E00               	movlw	0
  1692   01FFBA  6F2A               	movwf	42,b	;volatile
  1693                           
  1694                           ;mcc_generated_files/pin_manager.c: 110:     ODCONA = 0x00;
  1695   01FFBC  0E00               	movlw	0
  1696   01FFBE  6F02               	movwf	2,b	;volatile
  1697                           
  1698                           ;mcc_generated_files/pin_manager.c: 111:     ODCONB = 0x00;
  1699   01FFC0  0E00               	movlw	0
  1700   01FFC2  6F0A               	movwf	10,b	;volatile
  1701                           
  1702                           ;mcc_generated_files/pin_manager.c: 112:     ODCONC = 0x00;
  1703   01FFC4  0E00               	movlw	0
  1704   01FFC6  6F12               	movwf	18,b	;volatile
  1705                           
  1706                           ;mcc_generated_files/pin_manager.c: 113:     ODCOND = 0x00;
  1707   01FFC8  0E00               	movlw	0
  1708   01FFCA  6F1A               	movwf	26,b	;volatile
  1709   01FFCC                     
  1710                           ; BSR set to: 4
  1711                           ;mcc_generated_files/pin_manager.c: 118:     SLRCONA = 0xFF;
  1712   01FFCC  6903               	setf	3,b	;volatile
  1713   01FFCE                     
  1714                           ; BSR set to: 4
  1715                           ;mcc_generated_files/pin_manager.c: 119:     SLRCONB = 0xFF;
  1716   01FFCE  690B               	setf	11,b	;volatile
  1717   01FFD0                     
  1718                           ; BSR set to: 4
  1719                           ;mcc_generated_files/pin_manager.c: 120:     SLRCONC = 0xFF;
  1720   01FFD0  6913               	setf	19,b	;volatile
  1721   01FFD2                     
  1722                           ; BSR set to: 4
  1723                           ;mcc_generated_files/pin_manager.c: 121:     SLRCOND = 0xFF;
  1724   01FFD2  691B               	setf	27,b	;volatile
  1725                           
  1726                           ;mcc_generated_files/pin_manager.c: 122:     SLRCONE = 0x07;
  1727   01FFD4  0E07               	movlw	7
  1728   01FFD6  6F23               	movwf	35,b	;volatile
  1729   01FFD8                     
  1730                           ; BSR set to: 4
  1731                           ;mcc_generated_files/pin_manager.c: 123:     SLRCONF = 0xFF;
  1732   01FFD8  692B               	setf	43,b	;volatile
  1733   01FFDA                     
  1734                           ; BSR set to: 4
  1735                           ;mcc_generated_files/pin_manager.c: 128:     INLVLA = 0xFF;
  1736   01FFDA  6904               	setf	4,b	;volatile
  1737   01FFDC                     
  1738                           ; BSR set to: 4
  1739                           ;mcc_generated_files/pin_manager.c: 129:     INLVLB = 0xFF;
  1740   01FFDC  690C               	setf	12,b	;volatile
  1741   01FFDE                     
  1742                           ; BSR set to: 4
  1743                           ;mcc_generated_files/pin_manager.c: 130:     INLVLC = 0xFF;
  1744   01FFDE  6914               	setf	20,b	;volatile
  1745   01FFE0                     
  1746                           ; BSR set to: 4
  1747                           ;mcc_generated_files/pin_manager.c: 131:     INLVLD = 0xFF;
  1748   01FFE0  691C               	setf	28,b	;volatile
  1749                           
  1750                           ;mcc_generated_files/pin_manager.c: 132:     INLVLE = 0x0F;
  1751   01FFE2  0E0F               	movlw	15
  1752   01FFE4  6F24               	movwf	36,b	;volatile
  1753   01FFE6                     
  1754                           ; BSR set to: 4
  1755                           ;mcc_generated_files/pin_manager.c: 133:     INLVLF = 0xFF;
  1756   01FFE6  692C               	setf	44,b	;volatile
  1757                           
  1758                           ;mcc_generated_files/pin_manager.c: 142:     U5RXPPS = 0x29;
  1759   01FFE8  0E29               	movlw	41
  1760   01FFEA  0102               	movlb	2	; () banked
  1761   01FFEC  6F7A               	movwf	122,b	;volatile
  1762                           
  1763                           ;mcc_generated_files/pin_manager.c: 143:     RC2PPS = 0x20;
  1764   01FFEE  0E20               	movlw	32
  1765   01FFF0  6F13               	movwf	19,b	;volatile
  1766                           
  1767                           ;mcc_generated_files/pin_manager.c: 144:     RF0PPS = 0x2C;
  1768   01FFF2  0E2C               	movlw	44
  1769   01FFF4  6F29               	movwf	41,b	;volatile
  1770                           
  1771                           ;mcc_generated_files/pin_manager.c: 145:     U1RXPPS = 0x13;
  1772   01FFF6  0E13               	movlw	19
  1773   01FFF8  6F72               	movwf	114,b	;volatile
  1774   01FFFA                     
  1775                           ; BSR set to: 2
  1776   01FFFA  0012               	return		;funcret
  1777   01FFFC                     __end_of_PIN_MANAGER_Initialize:
  1778                           	callstack 0
  1779                           
  1780 ;; *************** function _OSCILLATOR_Initialize *****************
  1781 ;; Defined at:
  1782 ;;		line 59 in file "mcc_generated_files/mcc.c"
  1783 ;; Parameters:    Size  Location     Type
  1784 ;;		None
  1785 ;; Auto vars:     Size  Location     Type
  1786 ;;		None
  1787 ;; Return value:  Size  Location     Type
  1788 ;;                  1    wreg      void 
  1789 ;; Registers used:
  1790 ;;		wreg, status,2
  1791 ;; Tracked objects:
  1792 ;;		On entry : 0/0
  1793 ;;		On exit  : 0/0
  1794 ;;		Unchanged: 0/0
  1795 ;; Data sizes:     COMRAM   BANK5   BANK6   BANK7   BANK8   BANK9  BANK10  BANK11  BANK12  BANK13  BANK14  BANK15  BANK1
      +6  BANK17  BANK18  BANK19  BANK20  BANK21  BANK22  BANK23  BANK24  BANK25  BANK26  BANK27  BANK28  BANK29  BANK30  BANK3
      +1  BANK32  BANK33  BANK34  BANK35  BANK36
  1796 ;;      Params:         0       0       0       0       0       0       0       0       0       0       0       0       
      +0       0       0       0       0       0       0       0       0       0       0       0       0       0       0       
      +0       0       0       0       0       0
  1797 ;;      Locals:         0       0       0       0       0       0       0       0       0       0       0       0       
      +0       0       0       0       0       0       0       0       0       0       0       0       0       0       0       
      +0       0       0       0       0       0
  1798 ;;      Temps:          0       0       0       0       0       0       0       0       0       0       0       0       
      +0       0       0       0       0       0       0       0       0       0       0       0       0       0       0       
      +0       0       0       0       0       0
  1799 ;;      Totals:         0       0       0       0       0       0       0       0       0       0       0       0       
      +0       0       0       0       0       0       0       0       0       0       0       0       0       0       0       
      +0       0       0       0       0       0
  1800 ;;Total ram usage:        0 bytes
  1801 ;; Hardware stack levels used: 1
  1802 ;; This function calls:
  1803 ;;		Nothing
  1804 ;; This function is called by:
  1805 ;;		_SYSTEM_Initialize
  1806 ;; This function uses a non-reentrant model
  1807 ;;
  1808                           
  1809                           	psect	text19
  1810   01FCC0                     __ptext19:
  1811                           	callstack 0
  1812   01FCC0                     _OSCILLATOR_Initialize:
  1813                           	callstack 125
  1814   01FCC0                     
  1815                           ;mcc_generated_files/mcc.c: 62:     OSCCON1 = 0x62;
  1816   01FCC0  0E62               	movlw	98
  1817   01FCC2  0100               	movlb	0	; () banked
  1818   01FCC4  6FAD               	movwf	173,b	;volatile
  1819                           
  1820                           ;mcc_generated_files/mcc.c: 64:     OSCCON3 = 0x00;
  1821   01FCC6  0E00               	movlw	0
  1822   01FCC8  6FAF               	movwf	175,b	;volatile
  1823                           
  1824                           ;mcc_generated_files/mcc.c: 66:     OSCEN = 0x00;
  1825   01FCCA  0E00               	movlw	0
  1826   01FCCC  6FB3               	movwf	179,b	;volatile
  1827                           
  1828                           ;mcc_generated_files/mcc.c: 68:     OSCFRQ = 0x02;
  1829   01FCCE  0E02               	movlw	2
  1830   01FCD0  6FB1               	movwf	177,b	;volatile
  1831                           
  1832                           ;mcc_generated_files/mcc.c: 70:     OSCTUNE = 0x00;
  1833   01FCD2  0E00               	movlw	0
  1834   01FCD4  6FB0               	movwf	176,b	;volatile
  1835                           
  1836                           ;mcc_generated_files/mcc.c: 72:     ACTCON = 0x00;
  1837   01FCD6  0E00               	movlw	0
  1838   01FCD8  6FAC               	movwf	172,b	;volatile
  1839   01FCDA                     
  1840                           ; BSR set to: 0
  1841   01FCDA  0012               	return		;funcret
  1842   01FCDC                     __end_of_OSCILLATOR_Initialize:
  1843                           	callstack 0
  1844   000000                     
  1845                           	psect	text20
  1846   000000                     __ptext20:
  1847                           	callstack 0
  1848   000000                     
  1849                           	psect	rparam
  1850   000000                     
  1851                           	psect	idloc
  1852                           
  1853                           ;Config register IDLOC0 @ 0x200000
  1854                           ;	unspecified, using default values
  1855   200000                     	org	2097152
  1856   200000  0FFF               	dw	4095
  1857                           
  1858                           ;Config register IDLOC1 @ 0x200002
  1859                           ;	unspecified, using default values
  1860   200002                     	org	2097154
  1861   200002  0FFF               	dw	4095
  1862                           
  1863                           ;Config register IDLOC2 @ 0x200004
  1864                           ;	unspecified, using default values
  1865   200004                     	org	2097156
  1866   200004  0FFF               	dw	4095
  1867                           
  1868                           ;Config register IDLOC3 @ 0x200006
  1869                           ;	unspecified, using default values
  1870   200006                     	org	2097158
  1871   200006  0FFF               	dw	4095
  1872                           
  1873                           ;Config register IDLOC4 @ 0x200008
  1874                           ;	unspecified, using default values
  1875   200008                     	org	2097160
  1876   200008  0FFF               	dw	4095
  1877                           
  1878                           ;Config register IDLOC5 @ 0x20000A
  1879                           ;	unspecified, using default values
  1880   20000A                     	org	2097162
  1881   20000A  0FFF               	dw	4095
  1882                           
  1883                           ;Config register IDLOC6 @ 0x20000C
  1884                           ;	unspecified, using default values
  1885   20000C                     	org	2097164
  1886   20000C  0FFF               	dw	4095
  1887                           
  1888                           ;Config register IDLOC7 @ 0x20000E
  1889                           ;	unspecified, using default values
  1890   20000E                     	org	2097166
  1891   20000E  0FFF               	dw	4095
  1892                           
  1893                           ;Config register IDLOC8 @ 0x200010
  1894                           ;	unspecified, using default values
  1895   200010                     	org	2097168
  1896   200010  0FFF               	dw	4095
  1897                           
  1898                           ;Config register IDLOC9 @ 0x200012
  1899                           ;	unspecified, using default values
  1900   200012                     	org	2097170
  1901   200012  0FFF               	dw	4095
  1902                           
  1903                           ;Config register IDLOC10 @ 0x200014
  1904                           ;	unspecified, using default values
  1905   200014                     	org	2097172
  1906   200014  0FFF               	dw	4095
  1907                           
  1908                           ;Config register IDLOC11 @ 0x200016
  1909                           ;	unspecified, using default values
  1910   200016                     	org	2097174
  1911   200016  0FFF               	dw	4095
  1912                           
  1913                           ;Config register IDLOC12 @ 0x200018
  1914                           ;	unspecified, using default values
  1915   200018                     	org	2097176
  1916   200018  0FFF               	dw	4095
  1917                           
  1918                           ;Config register IDLOC13 @ 0x20001A
  1919                           ;	unspecified, using default values
  1920   20001A                     	org	2097178
  1921   20001A  0FFF               	dw	4095
  1922                           
  1923                           ;Config register IDLOC14 @ 0x20001C
  1924                           ;	unspecified, using default values
  1925   20001C                     	org	2097180
  1926   20001C  0FFF               	dw	4095
  1927                           
  1928                           ;Config register IDLOC15 @ 0x20001E
  1929                           ;	unspecified, using default values
  1930   20001E                     	org	2097182
  1931   20001E  0FFF               	dw	4095
  1932                           
  1933                           ;Config register IDLOC16 @ 0x200020
  1934                           ;	unspecified, using default values
  1935   200020                     	org	2097184
  1936   200020  0FFF               	dw	4095
  1937                           
  1938                           ;Config register IDLOC17 @ 0x200022
  1939                           ;	unspecified, using default values
  1940   200022                     	org	2097186
  1941   200022  0FFF               	dw	4095
  1942                           
  1943                           ;Config register IDLOC18 @ 0x200024
  1944                           ;	unspecified, using default values
  1945   200024                     	org	2097188
  1946   200024  0FFF               	dw	4095
  1947                           
  1948                           ;Config register IDLOC19 @ 0x200026
  1949                           ;	unspecified, using default values
  1950   200026                     	org	2097190
  1951   200026  0FFF               	dw	4095
  1952                           
  1953                           ;Config register IDLOC20 @ 0x200028
  1954                           ;	unspecified, using default values
  1955   200028                     	org	2097192
  1956   200028  0FFF               	dw	4095
  1957                           
  1958                           ;Config register IDLOC21 @ 0x20002A
  1959                           ;	unspecified, using default values
  1960   20002A                     	org	2097194
  1961   20002A  0FFF               	dw	4095
  1962                           
  1963                           ;Config register IDLOC22 @ 0x20002C
  1964                           ;	unspecified, using default values
  1965   20002C                     	org	2097196
  1966   20002C  0FFF               	dw	4095
  1967                           
  1968                           ;Config register IDLOC23 @ 0x20002E
  1969                           ;	unspecified, using default values
  1970   20002E                     	org	2097198
  1971   20002E  0FFF               	dw	4095
  1972                           
  1973                           ;Config register IDLOC24 @ 0x200030
  1974                           ;	unspecified, using default values
  1975   200030                     	org	2097200
  1976   200030  0FFF               	dw	4095
  1977                           
  1978                           ;Config register IDLOC25 @ 0x200032
  1979                           ;	unspecified, using default values
  1980   200032                     	org	2097202
  1981   200032  0FFF               	dw	4095
  1982                           
  1983                           ;Config register IDLOC26 @ 0x200034
  1984                           ;	unspecified, using default values
  1985   200034                     	org	2097204
  1986   200034  0FFF               	dw	4095
  1987                           
  1988                           ;Config register IDLOC27 @ 0x200036
  1989                           ;	unspecified, using default values
  1990   200036                     	org	2097206
  1991   200036  0FFF               	dw	4095
  1992                           
  1993                           ;Config register IDLOC28 @ 0x200038
  1994                           ;	unspecified, using default values
  1995   200038                     	org	2097208
  1996   200038  0FFF               	dw	4095
  1997                           
  1998                           ;Config register IDLOC29 @ 0x20003A
  1999                           ;	unspecified, using default values
  2000   20003A                     	org	2097210
  2001   20003A  0FFF               	dw	4095
  2002                           
  2003                           ;Config register IDLOC30 @ 0x20003C
  2004                           ;	unspecified, using default values
  2005   20003C                     	org	2097212
  2006   20003C  0FFF               	dw	4095
  2007                           
  2008                           ;Config register IDLOC31 @ 0x20003E
  2009                           ;	unspecified, using default values
  2010   20003E                     	org	2097214
  2011   20003E  0FFF               	dw	4095
  2012                           
  2013                           	psect	config
  2014                           
  2015                           ;Config register CONFIG1 @ 0x300000
  2016                           ;	External Oscillator Selection
  2017                           ;	FEXTOSC = OFF, Oscillator not enabled
  2018                           ;	Reset Oscillator Selection
  2019                           ;	RSTOSC = HFINTOSC_1MHZ, HFINTOSC with HFFRQ = 4 MHz and CDIV = 4:1
  2020   300000                     	org	3145728
  2021   300000  EC                 	db	236
  2022                           
  2023                           ;Config register CONFIG2 @ 0x300001
  2024                           ;	Clock out Enable bit
  2025                           ;	CLKOUTEN = OFF, CLKOUT function is disabled
  2026                           ;	PRLOCKED One-Way Set Enable bit
  2027                           ;	PR1WAY = ON, PRLOCKED bit can be cleared and set only once
  2028                           ;	Clock Switch Enable bit
  2029                           ;	CSWEN = ON, Writing to NOSC and NDIV is allowed
  2030                           ;	Fail-Safe Clock Monitor Enable bit
  2031                           ;	FCMEN = ON, Fail-Safe Clock Monitor enabled
  2032   300001                     	org	3145729
  2033   300001  FF                 	db	255
  2034                           
  2035                           ;Config register CONFIG3 @ 0x300002
  2036                           ;	MCLR Enable bit
  2037                           ;	MCLRE = EXTMCLR, If LVP = 0, MCLR pin is MCLR; If LVP = 1, RE3 pin function is MCLR
  2038                           ;	Power-up timer selection bits
  2039                           ;	PWRTS = PWRT_OFF, PWRT is disabled
  2040                           ;	Multi-vector enable bit
  2041                           ;	MVECEN = OFF, Interrupt contoller does not use vector table to prioritze interrupts
  2042                           ;	IVTLOCK bit One-way set enable bit
  2043                           ;	IVT1WAY = ON, IVTLOCKED bit can be cleared and set only once
  2044                           ;	Low Power BOR Enable bit
  2045                           ;	LPBOREN = OFF, Low-Power BOR disabled
  2046                           ;	Brown-out Reset Enable bits
  2047                           ;	BOREN = SBORDIS, Brown-out Reset enabled , SBOREN bit is ignored
  2048   300002                     	org	3145730
  2049   300002  F7                 	db	247
  2050                           
  2051                           ;Config register CONFIG4 @ 0x300003
  2052                           ;	Brown-out Reset Voltage Selection bits
  2053                           ;	BORV = VBOR_1P9, Brown-out Reset Voltage (VBOR) set to 1.9V
  2054                           ;	ZCD Disable bit
  2055                           ;	ZCD = OFF, ZCD module is disabled. ZCD can be enabled by setting the ZCDSEN bit of ZCD
      +                          CON
  2056                           ;	PPSLOCK bit One-Way Set Enable bit
  2057                           ;	PPS1WAY = ON, PPSLOCKED bit can be cleared and set only once; PPS registers remain loc
      +                          ked after one clear/set cycle
  2058                           ;	Stack Full/Underflow Reset Enable bit
  2059                           ;	STVREN = ON, Stack full/underflow will cause Reset
  2060                           ;	Low Voltage Programming Enable bit
  2061                           ;	LVP = ON, Low voltage programming enabled. MCLR/VPP pin function is MCLR. MCLRE config
      +                          uration bit is ignored
  2062                           ;	Extended Instruction Set Enable bit
  2063                           ;	XINST = OFF, Extended Instruction Set and Indexed Addressing Mode disabled
  2064   300003                     	org	3145731
  2065   300003  FF                 	db	255
  2066                           
  2067                           ;Config register CONFIG5 @ 0x300004
  2068                           ;	WDT Period selection bits
  2069                           ;	WDTCPS = WDTCPS_31, Divider ratio 1:65536; software control of WDTPS
  2070                           ;	WDT operating mode
  2071                           ;	WDTE = OFF, WDT Disabled; SWDTEN is ignored
  2072   300004                     	org	3145732
  2073   300004  9F                 	db	159
  2074                           
  2075                           ;Config register CONFIG6 @ 0x300005
  2076                           ;	WDT Window Select bits
  2077                           ;	WDTCWS = WDTCWS_7, window always open (100%); software control; keyed access not requi
      +                          red
  2078                           ;	WDT input clock selector
  2079                           ;	WDTCCS = SC, Software Control
  2080   300005                     	org	3145733
  2081   300005  FF                 	db	255
  2082                           
  2083                           ;Config register CONFIG7 @ 0x300006
  2084                           ;	Boot Block Size selection bits
  2085                           ;	BBSIZE = BBSIZE_512, Boot Block size is 512 words
  2086                           ;	Boot Block enable bit
  2087                           ;	BBEN = OFF, Boot block disabled
  2088                           ;	Storage Area Flash enable bit
  2089                           ;	SAFEN = OFF, SAF disabled
  2090                           ;	Background Debugger
  2091                           ;	DEBUG = OFF, Background Debugger disabled
  2092   300006                     	org	3145734
  2093   300006  FF                 	db	255
  2094                           
  2095                           ;Config register CONFIG8 @ 0x300007
  2096                           ;	Boot Block Write Protection bit
  2097                           ;	WRTB = OFF, Boot Block not Write protected
  2098                           ;	Configuration Register Write Protection bit
  2099                           ;	WRTC = OFF, Configuration registers not Write protected
  2100                           ;	Data EEPROM Write Protection bit
  2101                           ;	WRTD = OFF, Data EEPROM not Write protected
  2102                           ;	SAF Write protection bit
  2103                           ;	WRTSAF = OFF, SAF not Write Protected
  2104                           ;	Application Block write protection bit
  2105                           ;	WRTAPP = OFF, Application Block not write protected
  2106   300007                     	org	3145735
  2107   300007  FF                 	db	255
  2108                           
  2109                           ; Padding undefined space
  2110   300008                     	org	3145736
  2111   300008  FF                 	db	255
  2112                           
  2113                           ;Config register CONFIG10 @ 0x300009
  2114                           ;	PFM and Data EEPROM Code Protection bit
  2115                           ;	CP = OFF, PFM and Data EEPROM code protection disabled
  2116   300009                     	org	3145737
  2117   300009  FF                 	db	255
  2118                           tosu	equ	0x4FF
  2119                           tosh	equ	0x4FE
  2120                           tosl	equ	0x4FD
  2121                           stkptr	equ	0x4FC
  2122                           pclatu	equ	0x4FB
  2123                           pclath	equ	0x4FA
  2124                           pcl	equ	0x4F9
  2125                           tblptru	equ	0x4F8
  2126                           tblptrh	equ	0x4F7
  2127                           tblptrl	equ	0x4F6
  2128                           tablat	equ	0x4F5
  2129                           prodh	equ	0x4F4
  2130                           prodl	equ	0x4F3
  2131                           indf0	equ	0x4EF
  2132                           postinc0	equ	0x4EE
  2133                           postdec0	equ	0x4ED
  2134                           preinc0	equ	0x4EC
  2135                           plusw0	equ	0x4EB
  2136                           fsr0h	equ	0x4EA
  2137                           fsr0l	equ	0x4E9
  2138                           wreg	equ	0x4E8
  2139                           indf1	equ	0x4E7
  2140                           postinc1	equ	0x4E6
  2141                           postdec1	equ	0x4E5
  2142                           preinc1	equ	0x4E4
  2143                           plusw1	equ	0x4E3
  2144                           fsr1h	equ	0x4E2
  2145                           fsr1l	equ	0x4E1
  2146                           bsr	equ	0x4E0
  2147                           indf2	equ	0x4DF
  2148                           postinc2	equ	0x4DE
  2149                           postdec2	equ	0x4DD
  2150                           preinc2	equ	0x4DC
  2151                           plusw2	equ	0x4DB
  2152                           fsr2h	equ	0x4DA
  2153                           fsr2l	equ	0x4D9
  2154                           status	equ	0x4D8

Data Sizes:
    Strings     0
    Constant    0
    Data        15
    BSS         2
    Persistent  18
    Stack       0

Auto Spaces:
    Space          Size  Autos    Used
    COMRAM           95     22      57
    BANK5           160      0       0
    BANK6           256      0       0
    BANK7           256      0       0
    BANK8           256      0       0
    BANK9           256      0       0
    BANK10          256      0       0
    BANK11          256      0       0
    BANK12          256      0       0
    BANK13          256      0       0
    BANK14          256      0       0
    BANK15          256      0       0
    BANK16          256      0       0
    BANK17          256      0       0
    BANK18          256      0       0
    BANK19          256      0       0
    BANK20          256      0       0
    BANK21          256      0       0
    BANK22          256      0       0
    BANK23          256      0       0
    BANK24          256      0       0
    BANK25          256      0       0
    BANK26          256      0       0
    BANK27          256      0       0
    BANK28          256      0       0
    BANK29          256      0       0
    BANK30          256      0       0
    BANK31          256      0       0
    BANK32          256      0       0
    BANK33          256      0       0
    BANK34          256      0       0
    BANK35          256      0       0
    BANK36          256      0       0

Pointer List with Targets:

    UART5_SetErrorHandler@interruptHandler	PTR FTN()void  size(3) Largest target is 1
		 -> UART5_DefaultErrorHandler(), 

    UART5_SetOverrunErrorHandler@interruptHandler	PTR FTN()void  size(3) Largest target is 1
		 -> UART5_DefaultOverrunErrorHandler(), 

    UART5_SetFramingErrorHandler@interruptHandler	PTR FTN()void  size(3) Largest target is 1
		 -> UART5_DefaultFramingErrorHandler(), 

    UART5_ErrorHandler	PTR FTN()void  size(3) Largest target is 1
		 -> Absolute function(), UART5_DefaultErrorHandler(), 

    UART5_OverrunErrorHandler	PTR FTN()void  size(3) Largest target is 1
		 -> Absolute function(), UART5_DefaultOverrunErrorHandler(), 

    UART5_FramingErrorHandler	PTR FTN()void  size(3) Largest target is 1
		 -> Absolute function(), UART5_DefaultFramingErrorHandler(), 

    UART1_SetErrorHandler@interruptHandler	PTR FTN()void  size(3) Largest target is 1
		 -> UART1_DefaultErrorHandler(), 

    UART1_SetOverrunErrorHandler@interruptHandler	PTR FTN()void  size(3) Largest target is 1
		 -> UART1_DefaultOverrunErrorHandler(), 

    UART1_SetFramingErrorHandler@interruptHandler	PTR FTN()void  size(3) Largest target is 1
		 -> UART1_DefaultFramingErrorHandler(), 

    UART1_ErrorHandler	PTR FTN()void  size(3) Largest target is 1
		 -> Absolute function(), UART1_DefaultErrorHandler(), 

    UART1_OverrunErrorHandler	PTR FTN()void  size(3) Largest target is 1
		 -> Absolute function(), UART1_DefaultOverrunErrorHandler(), 

    UART1_FramingErrorHandler	PTR FTN()void  size(3) Largest target is 1
		 -> Absolute function(), UART1_DefaultFramingErrorHandler(), 


Critical Paths under _main in COMRAM

    _UART5_Initialize->_UART5_SetErrorHandler
    _UART5_Initialize->_UART5_SetFramingErrorHandler
    _UART5_Initialize->_UART5_SetOverrunErrorHandler
    _UART1_Initialize->_UART1_SetErrorHandler
    _UART1_Initialize->_UART1_SetFramingErrorHandler
    _UART1_Initialize->_UART1_SetOverrunErrorHandler

Critical Paths under _main in BANK5

    None.

Critical Paths under _main in BANK6

    None.

Critical Paths under _main in BANK7

    None.

Critical Paths under _main in BANK8

    None.

Critical Paths under _main in BANK9

    None.

Critical Paths under _main in BANK10

    None.

Critical Paths under _main in BANK11

    None.

Critical Paths under _main in BANK12

    None.

Critical Paths under _main in BANK13

    None.

Critical Paths under _main in BANK14

    None.

Critical Paths under _main in BANK15

    None.

Critical Paths under _main in BANK16

    None.

Critical Paths under _main in BANK17

    None.

Critical Paths under _main in BANK18

    None.

Critical Paths under _main in BANK19

    None.

Critical Paths under _main in BANK20

    None.

Critical Paths under _main in BANK21

    None.

Critical Paths under _main in BANK22

    None.

Critical Paths under _main in BANK23

    None.

Critical Paths under _main in BANK24

    None.

Critical Paths under _main in BANK25

    None.

Critical Paths under _main in BANK26

    None.

Critical Paths under _main in BANK27

    None.

Critical Paths under _main in BANK28

    None.

Critical Paths under _main in BANK29

    None.

Critical Paths under _main in BANK30

    None.

Critical Paths under _main in BANK31

    None.

Critical Paths under _main in BANK32

    None.

Critical Paths under _main in BANK33

    None.

Critical Paths under _main in BANK34

    None.

Critical Paths under _main in BANK35

    None.

Critical Paths under _main in BANK36

    None.

Call Graph Tables:

 ---------------------------------------------------------------------------------
 (Depth) Function   	        Calls       Base Space   Used Autos Params    Refs
 ---------------------------------------------------------------------------------
 (0) _main                                                19    19      0    1388
                                              3 COMRAM    19    19      0
                  _SYSTEM_Initialize
                   _UART1_Initialize
                         _UART1_Read
                        _UART1_Write
                  _UART1_is_rx_ready
                   _UART5_Initialize
                        _UART5_Write
 ---------------------------------------------------------------------------------
 (1) _UART5_Write                                          1     1      0      15
                                              0 COMRAM     1     1      0
 ---------------------------------------------------------------------------------
 (1) _UART1_is_rx_ready                                    0     0      0       0
 ---------------------------------------------------------------------------------
 (1) _UART1_Write                                          1     1      0      15
                                              0 COMRAM     1     1      0
 ---------------------------------------------------------------------------------
 (1) _UART1_Read                                           0     0      0       0
                   Absolute function *
          _UART1_DefaultErrorHandler *
   _UART1_DefaultFramingErrorHandler *
   _UART1_DefaultOverrunErrorHandler *
 ---------------------------------------------------------------------------------
 (2) _UART1_DefaultOverrunErrorHandler                     0     0      0       0
 ---------------------------------------------------------------------------------
 (2) _UART1_DefaultFramingErrorHandler                     0     0      0       0
 ---------------------------------------------------------------------------------
 (2) _UART1_DefaultErrorHandler                            0     0      0       0
 ---------------------------------------------------------------------------------
 (2) Absolute function(Fake)                               0     0      0       0
 ---------------------------------------------------------------------------------
 (1) _SYSTEM_Initialize                                    0     0      0     588
              _OSCILLATOR_Initialize
             _PIN_MANAGER_Initialize
                     _PMD_Initialize
                   _UART1_Initialize
                   _UART5_Initialize
 ---------------------------------------------------------------------------------
 (1) _UART5_Initialize                                     0     0      0     294
              _UART5_SetErrorHandler
       _UART5_SetFramingErrorHandler
       _UART5_SetOverrunErrorHandler
 ---------------------------------------------------------------------------------
 (2) _UART5_SetOverrunErrorHandler                         3     0      3      98
                                              0 COMRAM     3     0      3
 ---------------------------------------------------------------------------------
 (2) _UART5_SetFramingErrorHandler                         3     0      3      98
                                              0 COMRAM     3     0      3
 ---------------------------------------------------------------------------------
 (2) _UART5_SetErrorHandler                                3     0      3      98
                                              0 COMRAM     3     0      3
 ---------------------------------------------------------------------------------
 (1) _UART1_Initialize                                     0     0      0     294
              _UART1_SetErrorHandler
       _UART1_SetFramingErrorHandler
       _UART1_SetOverrunErrorHandler
 ---------------------------------------------------------------------------------
 (2) _UART1_SetOverrunErrorHandler                         3     0      3      98
                                              0 COMRAM     3     0      3
 ---------------------------------------------------------------------------------
 (2) _UART1_SetFramingErrorHandler                         3     0      3      98
                                              0 COMRAM     3     0      3
 ---------------------------------------------------------------------------------
 (2) _UART1_SetErrorHandler                                3     0      3      98
                                              0 COMRAM     3     0      3
 ---------------------------------------------------------------------------------
 (2) _PMD_Initialize                                       0     0      0       0
 ---------------------------------------------------------------------------------
 (2) _PIN_MANAGER_Initialize                               0     0      0       0
 ---------------------------------------------------------------------------------
 (2) _OSCILLATOR_Initialize                                0     0      0       0
 ---------------------------------------------------------------------------------
 Estimated maximum stack depth 2
 ---------------------------------------------------------------------------------

 Call Graph Graphs:

 _main (ROOT)
   _SYSTEM_Initialize
     _OSCILLATOR_Initialize
     _PIN_MANAGER_Initialize
     _PMD_Initialize
     _UART1_Initialize
       _UART1_SetErrorHandler
       _UART1_SetFramingErrorHandler
       _UART1_SetOverrunErrorHandler
     _UART5_Initialize
       _UART5_SetErrorHandler
       _UART5_SetFramingErrorHandler
       _UART5_SetOverrunErrorHandler
   _UART1_Initialize
   _UART1_Read
     Absolute function(Fake) *
     _UART1_DefaultErrorHandler *
     _UART1_DefaultFramingErrorHandler *
     _UART1_DefaultOverrunErrorHandler *
   _UART1_Write
   _UART1_is_rx_ready
   _UART5_Initialize
   _UART5_Write

 Address spaces:
Name               Size   Autos  Total    Cost      Usage
BIGRAM            1FFF      0       0      69        0.0%
EEDATA             400      0       0       0        0.0%
BITBIGSFRllhhhl    15F      0       0      94        0.0%
BITBIGSFRhlllll    100      0       0      80        0.0%
BITBIGSFR_1        100      0       0      68        0.0%
BITBANK36          100      0       0      66        0.0%
BANK36             100      0       0      67        0.0%
BITBANK35          100      0       0      64        0.0%
BANK35             100      0       0      65        0.0%
BITBANK34          100      0       0      62        0.0%
BANK34             100      0       0      63        0.0%
BITBANK33          100      0       0      60        0.0%
BANK33             100      0       0      61        0.0%
BITBANK32          100      0       0      58        0.0%
BANK32             100      0       0      59        0.0%
BITBANK31          100      0       0      56        0.0%
BANK31             100      0       0      57        0.0%
BITBANK30          100      0       0      54        0.0%
BANK30             100      0       0      55        0.0%
BITBANK29          100      0       0      52        0.0%
BANK29             100      0       0      53        0.0%
BITBANK28          100      0       0      50        0.0%
BANK28             100      0       0      51        0.0%
BITBANK27          100      0       0      48        0.0%
BANK27             100      0       0      49        0.0%
BITBANK26          100      0       0      46        0.0%
BANK26             100      0       0      47        0.0%
BITBANK25          100      0       0      44        0.0%
BANK25             100      0       0      45        0.0%
BITBANK24          100      0       0      42        0.0%
BANK24             100      0       0      43        0.0%
BITBANK23          100      0       0      40        0.0%
BANK23             100      0       0      41        0.0%
BITBANK22          100      0       0      38        0.0%
BANK22             100      0       0      39        0.0%
BITBANK21          100      0       0      36        0.0%
BANK21             100      0       0      37        0.0%
BITBANK20          100      0       0      34        0.0%
BANK20             100      0       0      35        0.0%
BITBANK19          100      0       0      32        0.0%
BANK19             100      0       0      33        0.0%
BITBANK18          100      0       0      30        0.0%
BANK18             100      0       0      31        0.0%
BITBANK17          100      0       0      28        0.0%
BANK17             100      0       0      29        0.0%
BITBANK16          100      0       0      26        0.0%
BANK16             100      0       0      27        0.0%
BITBANK15          100      0       0      24        0.0%
BANK15             100      0       0      25        0.0%
BITBANK14          100      0       0      22        0.0%
BANK14             100      0       0      23        0.0%
BITBANK13          100      0       0      20        0.0%
BANK13             100      0       0      21        0.0%
BITBANK12          100      0       0      18        0.0%
BANK12             100      0       0      19        0.0%
BITBANK11          100      0       0      16        0.0%
BANK11             100      0       0      17        0.0%
BITBANK10          100      0       0      14        0.0%
BANK10             100      0       0      15        0.0%
BITBANK9           100      0       0      12        0.0%
BANK9              100      0       0      13        0.0%
BITBANK8           100      0       0      10        0.0%
BANK8              100      0       0      11        0.0%
BITBANK7           100      0       0       8        0.0%
BANK7              100      0       0       9        0.0%
BITBANK6           100      0       0       6        0.0%
BANK6              100      0       0       7        0.0%
BITBANK5            A0      0       0       4        0.0%
BANK5               A0      0       0       5        0.0%
BITBIGSFRhlhhh      85      0       0      74        0.0%
BITBIGSFRllll       60      0       0      99        0.0%
BITCOMRAM           5F      0       0       0        0.0%
COMRAM              5F     16      39       1       60.0%
BITBIGSFRllhhhl     48      0       0      92        0.0%
BITBIGSFRlllhh      43      0       0      97        0.0%
BITBIGSFRhlllll     39      0       0      86        0.0%
BITBIGSFRhhhh       34      0       0      70        0.0%
BITBIGSFRllhhhh     17      0       0      89        0.0%
BITBIGSFRllhhhl     15      0       0      93        0.0%
BITBIGSFRllhhhl      B      0       0      90        0.0%
BITBIGSFRhhlll       8      0       0      73        0.0%
BITBIGSFRllhhhl      7      0       0      91        0.0%
BITBIGSFRhllllh      3      0       0      79        0.0%
BITBIGSFRhlhhl       3      0       0      75        0.0%
BITBIGSFRhlllh       3      0       0      78        0.0%
BITBIGSFRhllh        3      0       0      77        0.0%
BITBIGSFRhlhl        3      0       0      76        0.0%
BITBIGSFRhhllh       2      0       0      72        0.0%
BITBIGSFRhhhll       2      0       0      71        0.0%
BITBIGSFRhlllll      1      0       0      84        0.0%
BITBIGSFRhlllll      1      0       0      85        0.0%
BITBIGSFRhlllll      1      0       0      81        0.0%
BITBIGSFRhlllll      1      0       0      82        0.0%
BITBIGSFRhlllll      1      0       0      83        0.0%
BITBIGSFRlllhl       1      0       0      98        0.0%
BITBIGSFRllhhlh      1      0       0      95        0.0%
BITBIGSFRllhl        1      0       0      96        0.0%
BITBIGSFRlhh         1      0       0      87        0.0%
BITBIGSFRlhl         1      0       0      88        0.0%
BIGSFR_1             0      0       0     200        0.0%
BIGSFR               0      0       0     200        0.0%
BITSFR_6             0      0       0     200        0.0%
SFR_6                0      0       0     200        0.0%
BITSFR_5             0      0       0     200        0.0%
SFR_5                0      0       0     200        0.0%
BITSFR_4             0      0       0     200        0.0%
SFR_4                0      0       0     200        0.0%
BITSFR_3             0      0       0     200        0.0%
SFR_3                0      0       0     200        0.0%
BITSFR_2             0      0       0     200        0.0%
SFR_2                0      0       0     200        0.0%
BITSFR_1             0      0       0     200        0.0%
SFR_1                0      0       0     200        0.0%
BITSFR               0      0       0     200        0.0%
SFR                  0      0       0     200        0.0%
STACK                0      0       0       2        0.0%
NULL                 0      0       0       0        0.0%
ABS                  0      0      39     100        0.0%
DATA                 0      0      39       3        0.0%
CODE                 0      0       0       0        0.0%


Microchip Technology PIC18 Macro Assembler V2.40 build 20220703182018 
Symbol Table                                                                                   Fri Jan 06 14:59:05 2023

                                          l63 FE04                                            l80 FE06  
                                          l66 FC7C                                            l92 FCA8  
                                          l86 FE9E                                            l95 FC02  
                                          l89 FC96                                            l98 FC04  
                                          u10 FC7A                                            u11 FC74  
                                          u20 FE14                                            u21 FE10  
                                          u30 FE28                                            u31 FE24  
                                          u16 FC7C                                            u50 FE54  
                                          u51 FE50                                            u70 FE80  
                                          u71 FE7C                                            u48 FE30  
                                          u49 FE44                                            u90 FCA4  
                                          u91 FCA0                                            u68 FE5C  
                                          u69 FE70                                            u88 FE86  
                                          u89 FE9A                             UART5_Write@txData 0501  
                                         l101 FC00                                           l110 FC12  
                                         l104 FC20                                           l107 FC2E  
                                         l151 FC92                                           l320 FD90  
                                         l154 FCDA                                           l260 FFFA  
                                         l157 FCFE                                           l370 FC58  
                                         l346 FCAC                                           l373 FC3C  
                                         l349 FCBE                                           l367 FC4A  
                                         u300 FF28                                           u301 FF24  
                                         u310 FF42                                           u311 FF3E  
                                         u170 FCBA                                           u171 FCB6  
                                         u271 FEB6                                           u280 FEF6  
                                         u281 FEF2                                           u290 FF0A  
                                         u291 FF06                                           tosl 0004FD  
                                         wreg 0004E8                                          l1101 FCDC  
                                        l1111 FF74                                          l1103 FF4A  
                                        l1121 FFD0                                          l1113 FF7C  
                                        l1105 FF6A                                          l1131 FFDE  
                                        l1123 FFD2                                          l1115 FF86  
                                        l1107 FF6C                                          l1211 FCAC  
                                        l1133 FFE0                                          l1125 FFD8  
                                        l1117 FFCC                                          l1109 FF72  
                                        l1301 FD6C                                          l1213 FCBA  
                                        l1135 FFE6                                          l1127 FFDA  
                                        l1119 FFCE                                          l1303 FD7C  
                                        l1311 FC8E                                          l1137 FCC0  
                                        l1129 FFDC                                          l1305 FD8C  
                                        l1161 FE2A                                          l1153 FE06  
                                        l1313 FEA0                                          l1307 FC7E  
                                        l1171 FE80                                          l1163 FE44  
                                        l1155 FE14                                          l1331 FF10  
                                        l1323 FEC6                                          l1315 FEAC  
                                        l1309 FC8A                                          l1173 FE9A  
                                        l1165 FE54                                          l1157 FE18  
                                        l1149 FC6A                                          l1333 FF16  
                                        l1325 FED8                                          l1317 FEBE  
                                        l1167 FE56                                          l1159 FE28  
                                        l1327 FEF6                                          l1335 FF28  
                                        l1281 FC3E                                          l1169 FE70  
                                        l1177 FC96                                          l1337 FF2C  
                                        l1329 FF0A                                          l1275 FC14  
                                        l1291 FDE0                                          l1283 FC4C  
                                        l1179 FCA4                                          l1277 FC22  
                                        l1293 FDF0                                          l1285 FC30  
                                        l1279 FC06                                          l1295 FE00  
                                        l1287 FD92                                          l1289 FDD0  
                                        l1297 FD2A                                          l1299 FD5C  
                                        _LATA 0004BE                                          _LATB 0004BF  
                                        _LATC 0004C0                                          _LATD 0004C1  
                                        _LATE 0004C2                                          _LATF 0004C3  
                                        _PMD0 000060                                          _PMD1 000061  
                                        _PMD3 000063                                          _PMD4 000064  
                                        _PMD5 000065                                          _PMD6 000066  
                                        _PMD7 000067                                          _PMD8 000068  
                                        _WPUA 000401                                          _WPUB 000409  
                                        _WPUC 000411                                          _WPUD 000419  
                                        _WPUE 000421                                          _WPUF 000429  
            _UART5_DefaultFramingErrorHandler 000000                                          _main FEA0  
                                        indf2 0004DF                                          fsr1l 0004E1  
                                        fsr2l 0004D9                                          start FFFC  
                                ___param_bank 000000                                 main@Send_Data 0505  
                                 ?_UART1_Read 0501                 __end_of_OSCILLATOR_Initialize FCDC  
                                       ?_main 0501                                         _U1P1H 0002A6  
                                       _U1P2H 0002A8                                         _U1P3H 0002AA  
                                       _U1P1L 0002A5                                         _U1P2L 0002A7  
                                       _U1P3L 0002A9                                         _U5P1L 0002F1  
                                       _U5P2L 0002F3                                         _U5P3L 0002F5  
                                       _U1UIR 0002B1                                         _U1RXB 0002A1  
                                       _U1TXB 0002A3                                         _U5UIR 0002FD  
                                       _U5RXB 0002ED                                         _U5TXB 0002EF  
                                       _OSCEN 0000B3                                         _TRISA 0004C6  
                                       _TRISB 0004C7                                         _TRISC 0004C8  
                                       _TRISD 0004C9                                         _TRISE 0004CA  
                                       _TRISF 0004CB                                         main@i 0515  
                                       pclath 0004FA                                         tablat 0004F5  
                                       plusw1 0004E3                                         plusw2 0004DB  
                                       status 0004D8           fp__UART1_DefaultFramingErrorHandler 0000  
    __end_of_UART1_DefaultFramingErrorHandler FC04            ??_UART1_DefaultFramingErrorHandler 0501  
           ?_UART1_DefaultFramingErrorHandler 0501              _UART1_DefaultFramingErrorHandler FC02  
                             __initialization FD00                                  __end_of_main FF4A  
                 ??_UART1_DefaultErrorHandler 0501                ??_UART5_SetOverrunErrorHandler 0504  
                                ?_UART1_Write 0501                                        ??_main 0504  
                                ?_UART5_Write 0501                                 __activetblptr 000003  
                            _UART1_Initialize FD92                            _UART5_ErrorHandler 0517  
                                      _ACTCON 0000AC                                        _ANSELA 000400  
                                      _ANSELB 000408                                        _ANSELC 000410  
                                      _ANSELD 000418                                        _ANSELE 000420  
                                      _ANSELF 000428                                        _RB1I2C 000289  
                                      _RB2I2C 000288                                        _U1CON0 0002AB  
                                      _U1CON1 0002AC                                        _U1CON2 0002AD  
                                      _RC3I2C 000287                                        _RC4I2C 000286  
                                      _U1BRGH 0002AF                                        _U1FIFO 0002B0  
                                      _U1BRGL 0002AE                 __end_of_UART5_SetErrorHandler FC3E  
                                      _U5CON0 0002F7                                        _U5CON1 0002F8  
                                      _U5CON2 0002F9                                        _U5BRGH 0002FB  
                                      _U5FIFO 0002FC                                        _U5BRGL 0002FA  
                                      _RC2PPS 000213                                        _ODCONA 000402  
                                      _ODCONB 00040A                                        _RF0PPS 000229  
                                      _ODCONC 000412                                        _ODCOND 00041A  
                                      _ODCONE 000422                                        _ODCONF 00042A  
                                      _INLVLA 000404                                        _INLVLB 00040C  
                                      _INLVLC 000414                                        _INLVLD 00041C  
                                      _INLVLE 000424                                        _INLVLF 00042C  
                                      _OSCFRQ 0000B1                         _UART1_SetErrorHandler FC06  
                   _UART5_OverrunErrorHandler 051A                                        isa$std 000001  
                              _PMD_Initialize FCDC                                  __pdataCOMRAM 0529  
                                      tblptrh 0004F7                                        tblptrl 0004F6  
                                      tblptru 0004F8          __end_of_UART1_SetOverrunErrorHandler FC30  
                _UART1_SetOverrunErrorHandler FC22                     _UART1_DefaultErrorHandler FC00  
                           _SYSTEM_Initialize FC7E                                    __accesstop 0560  
                     __end_of__initialization FD24                            ?_SYSTEM_Initialize 0501  
                               ___rparam_used 000001                                __pcstackCOMRAM 0501  
                         ??_SYSTEM_Initialize 0504                        __end_of_PMD_Initialize FD00  
                   _UART1_FramingErrorHandler 0526                              _UART5_Initialize FD2A  
                   __end_of_SYSTEM_Initialize FC94                 ?_UART1_SetOverrunErrorHandler 0501  
                      ?_UART1_SetErrorHandler 0501                                    __pnvCOMRAM 0517  
                                ??_UART1_Read 0501                               ?_PMD_Initialize 0501  
        __end_of_UART5_SetFramingErrorHandler FC4C                  _UART5_SetFramingErrorHandler FC3E  
                                     _U1ERRIE 0002B3                                       _U1ERRIR 0002B2  
                                     _U5ERRIE 0002FF                                       _U5ERRIR 0002FE  
                                     _U1RXPPS 000272                                       _U5RXPPS 00027A  
                                     _OSCCON1 0000AD                                       _OSCCON3 0000AF  
                                     _OSCTUNE 0000B0                                       _SLRCONA 000403  
                                     _SLRCONB 00040B                                       _SLRCONC 000413  
                                     _SLRCOND 00041B                                       _SLRCONE 000423  
                                     _SLRCONF 00042B                            __end_of_UART1_Read FEA0  
                                     __Hparam 0000                                       __Lparam 0000  
                    __end_of_UART1_Initialize FE06                                       __pcinit FD00  
                                     __ramtop 2600                                       __ptext0 FEA0  
                                     __ptext1 FCAA                                       __ptext2 FC6A  
                                     __ptext3 FC94                                       __ptext4 FE06  
                                     __ptext5 FC04                                       __ptext6 FC02  
                                     __ptext7 FC00                                       __ptext8 FC7E  
                                     __ptext9 FD2A                         _OSCILLATOR_Initialize FCC0  
               ?_UART5_SetFramingErrorHandler 0501                      ??_PIN_MANAGER_Initialize 0501  
                        end_of_initialization FD24                                     _PIR13bits 0004BB  
              ??_UART1_SetOverrunErrorHandler 0504                                       postdec1 0004E5  
                                     postinc0 0004EE                                       postinc2 0004DE  
                                  main@F17071 0529                             UART1_Write@txData 0501  
                       _UART5_SetErrorHandler FC30                      __end_of_UART5_Initialize FD92  
                               __pidataCOMRAM FC5B                        ?_OSCILLATOR_Initialize 0501  
                         start_initialization FD00                       ??_UART1_SetErrorHandler 0504  
              ??_UART5_SetFramingErrorHandler 0504                     _UART5_DefaultErrorHandler 000000  
                            ??_PMD_Initialize 0501              _UART5_DefaultOverrunErrorHandler 000000  
                                 __pbssCOMRAM 0538                            _UART1_ErrorHandler 0520  
                   _UART5_FramingErrorHandler 051D                        ?_UART5_SetErrorHandler 0501  
                fp__UART1_DefaultErrorHandler 0000                        _PIN_MANAGER_Initialize FF4A  
                           ?_UART1_Initialize 0501          __end_of_UART1_SetFramingErrorHandler FC22  
                _UART1_SetFramingErrorHandler FC14                            ??_UART1_Initialize 0504  
                            _uart1RxLastError 0539                                 ??_UART1_Write 0501  
                               ??_UART5_Write 0501           fp__UART1_DefaultOverrunErrorHandler 0000  
    __end_of_UART1_DefaultOverrunErrorHandler FC06            ??_UART1_DefaultOverrunErrorHandler 0501  
           ?_UART1_DefaultOverrunErrorHandler 0501              _UART1_DefaultOverrunErrorHandler FC04  
                                 _U1ERRIRbits 0002B2         UART5_SetErrorHandler@interruptHandler 0501  
       UART1_SetErrorHandler@interruptHandler 0501                                      _PIR4bits 0004B2  
                                 _U5ERRIRbits 0002FE                 ?_UART1_SetFramingErrorHandler 0501  
                                   main@value 0514                           __end_of_UART1_Write FCAA  
                         __end_of_UART5_Write FCC0                                     copy_data0 FD14  
                                    __Hrparam 0000                                      __Lrparam 0000  
                           ?_UART5_Initialize 0501                       ??_OSCILLATOR_Initialize 0501  
                          ??_UART5_Initialize 0504                              _uart5RxLastError 0538  
                                    __ptext10 FC4C                                      __ptext11 FC3E  
                                    __ptext20 0000                                      __ptext12 FC30  
                                    __ptext13 FD92                                      __ptext14 FC22  
                                    __ptext15 FC14                                      __ptext16 FC06  
                                    __ptext17 FCDC                                      __ptext18 FF4A  
                                    __ptext19 FCC0                                    _U1CON0bits 0002AB  
               __end_of_UART1_SetErrorHandler FC14                                    _U5CON0bits 0002F7  
                   _UART1_OverrunErrorHandler 0523  UART5_SetOverrunErrorHandler@interruptHandler 0501  
UART1_SetOverrunErrorHandler@interruptHandler 0501                                      isa$xinst 000000  
                  ?_UART1_DefaultErrorHandler 0501                             _UART1_is_rx_ready FC6A  
                                 _UART1_Write FC94                                   _UART5_Write FCAA  
                          ?_UART1_is_rx_ready 0501                ??_UART1_SetFramingErrorHandler 0504  
                     ??_UART5_SetErrorHandler 0504                           ??_UART1_is_rx_ready 0501  
                     ?_PIN_MANAGER_Initialize 0501          __end_of_UART5_SetOverrunErrorHandler FC5A  
                _UART5_SetOverrunErrorHandler FC4C                     __end_of_UART1_is_rx_ready FC7E  
                                  _UART1_Read FE06  UART5_SetFramingErrorHandler@interruptHandler 0501  
UART1_SetFramingErrorHandler@interruptHandler 0501             __end_of_UART1_DefaultErrorHandler FC02  
              __end_of_PIN_MANAGER_Initialize FFFC                 ?_UART5_SetOverrunErrorHandler 0501  
