

Microchip MPLAB XC8 Assembler V2.40 build 20220703182018 
                                                                                               Wed Dec 21 10:37:45 2022

Microchip MPLAB XC8 C Compiler v2.40 (Free license) build 20220703182018 Og1 
     1                           	processor	18F57Q43
     2                           	fnconf	rparam,??,?,0
     3                           	pagewidth 120
     4                           	opt	flic
     5                           	psect	smallconst,global,reloc=2,class=SMALLCONST,delta=1,noexec
     6                           	psect	nvCOMRAM,global,class=COMRAM,space=1,delta=1,lowdata,noexec
     7                           	psect	nvBANK5,global,class=BANK5,space=1,delta=1,lowdata,noexec
     8                           	psect	cinit,global,reloc=2,class=CODE,delta=1
     9                           	psect	bssCOMRAM,global,class=COMRAM,space=1,delta=1,lowdata,noexec
    10                           	psect	cstackCOMRAM,global,class=COMRAM,space=1,delta=1,lowdata,noexec
    11                           	psect	text0,global,reloc=2,class=CODE,delta=1
    12                           	psect	text1,global,reloc=2,class=CODE,delta=1
    13                           	psect	text2,global,reloc=2,class=CODE,delta=1
    14                           	psect	text3,global,reloc=2,class=CODE,delta=1
    15                           	psect	text4,global,reloc=2,class=CODE,delta=1
    16                           	psect	text5,global,reloc=2,class=CODE,delta=1
    17                           	psect	text6,global,reloc=2,class=CODE,delta=1
    18                           	psect	text7,global,reloc=2,class=CODE,delta=1
    19                           	psect	text8,global,reloc=2,class=CODE,delta=1
    20                           	psect	text9,global,reloc=2,class=CODE,delta=1
    21                           	psect	text10,global,reloc=2,class=CODE,delta=1
    22                           	psect	text11,global,reloc=2,class=CODE,delta=1
    23                           	psect	text12,global,reloc=2,class=CODE,delta=1
    24                           	psect	text13,global,reloc=2,class=CODE,delta=1
    25                           	psect	text14,global,reloc=2,class=CODE,delta=1
    26                           	psect	text15,global,reloc=2,class=CODE,delta=1
    27                           	psect	text16,global,reloc=2,class=CODE,delta=1
    28                           	psect	text17,global,reloc=2,class=CODE,delta=1
    29                           	psect	text18,global,reloc=2,class=CODE,delta=1
    30                           	psect	text19,global,reloc=2,class=CODE,delta=1
    31                           	psect	text20,global,reloc=2,class=CODE,delta=1
    32                           	psect	text21,global,reloc=2,class=CODE,delta=1
    33                           	psect	text22,global,reloc=2,class=CODE,delta=1
    34                           	psect	text23,global,reloc=2,class=CODE,delta=1
    35                           	psect	text24,global,reloc=2,class=CODE,delta=1
    36                           	psect	text25,global,reloc=2,class=CODE,delta=1
    37                           	psect	text26,global,reloc=2,class=CODE,delta=1
    38                           	psect	text27,global,reloc=2,class=CODE,delta=1
    39                           	psect	text28,global,reloc=2,class=CODE,delta=1
    40                           	psect	text29,global,reloc=2,class=CODE,delta=1
    41                           	psect	text30,global,reloc=2,class=CODE,delta=1
    42                           	psect	text31,global,reloc=2,class=CODE,delta=1
    43                           	psect	text32,global,reloc=2,class=CODE,delta=1
    44                           	psect	text33,global,reloc=2,class=CODE,delta=1
    45                           	psect	text34,global,reloc=2,class=CODE,delta=1
    46                           	psect	text35,global,reloc=2,class=CODE,delta=1
    47                           	psect	text36,global,reloc=2,class=CODE,delta=1
    48                           	psect	text37,global,reloc=2,class=CODE,delta=1
    49                           	psect	text38,global,reloc=2,class=CODE,delta=1
    50                           	psect	text39,global,reloc=2,class=CODE,delta=1
    51                           	psect	text40,global,reloc=2,class=CODE,delta=1
    52                           	psect	text41,global,reloc=2,class=CODE,delta=1
    53                           	psect	text42,global,reloc=2,class=CODE,delta=1
    54                           	psect	text43,global,reloc=2,class=CODE,delta=1
    55                           	psect	text44,global,reloc=2,class=CODE,delta=1
    56                           	psect	text45,global,reloc=2,class=CODE,delta=1
    57                           	psect	text46,global,reloc=2,class=CODE,delta=1
    58                           	psect	text47,global,reloc=2,class=CODE,delta=1
    59                           	psect	ivt0x8,global,reloc=2,class=CODE,delta=1,noexec,keep,optim=
    60                           	psect	intsave_regs,global,class=BIGRAM,space=1,delta=1,noexec
    61                           	psect	text48,global,reloc=2,class=CODE,delta=1
    62                           	psect	rparam,global,class=COMRAM,space=1,delta=1,noexec
    63                           	psect	idloc,global,abs,ovrld,class=IDLOC,space=5,delta=1,noexec
    64                           	psect	config,global,abs,ovrld,class=CONFIG,space=4,delta=1,noexec
    65   000000                     
    66                           ; Generated 17/06/2022 GMT
    67                           ; 
    68                           ; Copyright © 2022, Microchip Technology Inc. and its subsidiaries ("Microchip")
    69                           ; All rights reserved.
    70                           ; 
    71                           ; This software is developed by Microchip Technology Inc. and its subsidiaries ("Microch
      +                          ip").
    72                           ; 
    73                           ; Redistribution and use in source and binary forms, with or without modification, are
    74                           ; permitted provided that the following conditions are met:
    75                           ; 
    76                           ;     1. Redistributions of source code must retain the above copyright notice, this lis
      +                          t of
    77                           ;        conditions and the following disclaimer.
    78                           ; 
    79                           ;     2. Redistributions in binary form must reproduce the above copyright notice, this 
      +                          list
    80                           ;        of conditions and the following disclaimer in the documentation and/or other
    81                           ;        materials provided with the distribution. Publication is not required when
    82                           ;        this file is used in an embedded application.
    83                           ; 
    84                           ;     3. Microchip's name may not be used to endorse or promote products derived from th
      +                          is
    85                           ;        software without specific prior written permission.
    86                           ; 
    87                           ; THIS SOFTWARE IS PROVIDED BY MICROCHIP "AS IS" AND ANY EXPRESS OR IMPLIED WARRANTIES,
    88                           ; INCLUDING, BUT NOT LIMITED TO, THE IMPLIED WARRANTIES OF MERCHANTABILITY AND FITNESS F
      +                          OR
    89                           ; PURPOSE ARE DISCLAIMED.  IN NO EVENT SHALL MICROCHIP BE LIABLE FOR ANY DIRECT, INDIREC
      +                          T,
    90                           ; INCIDENTAL, SPECIAL, EXEMPLARY, OR CONSEQUENTIAL DAMAGES (INCLUDING BUT NOT LIMITED TO
    91                           ; PROCUREMENT OF SUBSTITUTE GOODS OR SERVICES; LOSS OF USE, DATA OR PROFITS; OR BUSINESS
    92                           ; INTERRUPTION) HOWSOEVER CAUSED AND ON ANY THEORY OF LIABILITY, WHETHER IN CONTRACT, ST
      +                          RICT
    93                           ; LIABILITY, OR TORT (INCLUDING NEGLIGENCE OR OTHERWISE) ARISING IN ANY WAY OUT OF THE U
      +                          SE OF
    94                           ; THIS SOFTWARE, EVEN IF ADVISED OF THE POSSIBILITY OF SUCH DAMAGE.
    95                           ; 
    96                           ; 
    97                           ; Code-generator required, PIC18F57Q43 Definitions
    98                           ; 
    99                           ; SFR Addresses
   100   000000                     
   101 ;; Function _rd1RegCompleteHandler is unused but had its address taken
   102   000000                     
   103 ;; Function _rd2RegCompleteHandler is unused but had its address taken
   104   000000                     
   105 ;; Function _wr1RegCompleteHandler is unused but had its address taken
   106   000000                     
   107 ;; Function _wr2RegCompleteHandler is unused but had its address taken
   108   000000                     
   109 ;; Function _rdBlkRegCompleteHandler is unused but had its address taken
   110   000000                     
   111 ;; Function _PWM1_16BIT_Slice1Output1_DefaultInterruptHandler is unused but had its address taken
   112   000000                     
   113 ;; Function _PWM1_16BIT_Slice1Output2_DefaultInterruptHandler is unused but had its address taken
   114   000000                     
   115 ;; Function _PWM1_16BIT_Period_DefaultInterruptHandler is unused but had its address taken
   116   000000                     
   117 ;; Function _PWM3_16BIT_Slice1Output1_DefaultInterruptHandler is unused but had its address taken
   118   000000                     
   119 ;; Function _PWM3_16BIT_Slice1Output2_DefaultInterruptHandler is unused but had its address taken
   120   000000                     
   121 ;; Function _PWM3_16BIT_Period_DefaultInterruptHandler is unused but had its address taken
   122   000000                     
   123 ;; Function _PWM2_16BIT_Slice1Output1_DefaultInterruptHandler is unused but had its address taken
   124   000000                     
   125 ;; Function _PWM2_16BIT_Slice1Output2_DefaultInterruptHandler is unused but had its address taken
   126   000000                     
   127 ;; Function _PWM2_16BIT_Period_DefaultInterruptHandler is unused but had its address taken
   128   000000                     
   129 ;; Function _UART1_DefaultFramingErrorHandler is unused but had its address taken
   130   000000                     
   131 ;; Function _UART1_DefaultOverrunErrorHandler is unused but had its address taken
   132   000000                     
   133 ;; Function _UART1_DefaultErrorHandler is unused but had its address taken
   134   000000                     
   135 ;; Function _UART2_DefaultFramingErrorHandler is unused but had its address taken
   136   000000                     
   137 ;; Function _UART2_DefaultOverrunErrorHandler is unused but had its address taken
   138   000000                     
   139 ;; Function _UART2_DefaultErrorHandler is unused but had its address taken
   140   000000                     
   141 ;; Function _I2C1_DO_IDLE is unused but had its address taken
   142   000000                     
   143 ;; Function _I2C1_DO_SEND_ADR_READ is unused but had its address taken
   144   000000                     
   145 ;; Function _I2C1_DO_SEND_ADR_WRITE is unused but had its address taken
   146   000000                     
   147 ;; Function _I2C1_DO_TX is unused but had its address taken
   148   000000                     
   149 ;; Function _I2C1_DO_RX is unused but had its address taken
   150   000000                     
   151 ;; Function _I2C1_DO_TX_EMPTY is unused but had its address taken
   152   000000                     
   153 ;; Function _I2C1_DO_RX_EMPTY is unused but had its address taken
   154   000000                     
   155 ;; Function _I2C1_DO_SEND_RESTART_READ is unused but had its address taken
   156   000000                     
   157 ;; Function _I2C1_DO_SEND_RESTART_WRITE is unused but had its address taken
   158   000000                     
   159 ;; Function _I2C1_DO_SEND_RESTART is unused but had its address taken
   160   000000                     
   161 ;; Function _I2C1_DO_SEND_STOP is unused but had its address taken
   162   000000                     
   163 ;; Function _I2C1_DO_RX_ACK is unused but had its address taken
   164   000000                     
   165 ;; Function _I2C1_DO_TX_ACK is unused but had its address taken
   166   000000                     
   167 ;; Function _I2C1_DO_RX_NACK_STOP is unused but had its address taken
   168   000000                     
   169 ;; Function _I2C1_DO_RX_NACK_RESTART is unused but had its address taken
   170   000000                     
   171 ;; Function _I2C1_DO_RESET is unused but had its address taken
   172   000000                     
   173 ;; Function _I2C1_DO_ADDRESS_NACK is unused but had its address taken
   174   000000                     
   175 ;; Function _I2C1_DO_BUS_COLLISION is unused but had its address taken
   176   000000                     
   177 ;; Function _I2C1_DO_BUS_ERROR is unused but had its address taken
   178   000000                     
   179 ;; Function _I2C1_CallbackReturnStop is unused but had its address taken
   180   000000                     
   181 ;; Function _I2C1_CallbackReturnReset is unused but had its address taken
   182   000000                     
   183                           	psect	smallconst
   184   002600                     __psmallconst:
   185                           	callstack 0
   186   002600  00                 	db	0
   187   002601                     _i2c1_fsmStateTable:
   188                           	callstack 0
   189   002601  00                 	db	0
   190   002602  00                 	db	0
   191   002603  00                 	db	0
   192   002604  00                 	db	0
   193   002605  00                 	db	0
   194   002606  00                 	db	0
   195   002607  00                 	db	0
   196   002608  00                 	db	0
   197   002609  00                 	db	0
   198   00260A  00                 	db	0
   199   00260B  00                 	db	0
   200   00260C  00                 	db	0
   201   00260D  00                 	db	0
   202   00260E  00                 	db	0
   203   00260F  00                 	db	0
   204   002610  00                 	db	0
   205   002611  00                 	db	0
   206   002612  00                 	db	0
   207   002613  00                 	db	0
   208   002614  00                 	db	0
   209   002615  00                 	db	0
   210   002616  00                 	db	0
   211   002617  00                 	db	0
   212   002618  00                 	db	0
   213   002619  00                 	db	0
   214   00261A  00                 	db	0
   215   00261B  00                 	db	0
   216   00261C  00                 	db	0
   217   00261D  00                 	db	0
   218   00261E  00                 	db	0
   219   00261F  00                 	db	0
   220   002620  00                 	db	0
   221   002621  00                 	db	0
   222   002622  00                 	db	0
   223   002623  00                 	db	0
   224   002624  00                 	db	0
   225   002625  00                 	db	0
   226   002626  00                 	db	0
   227   002627  00                 	db	0
   228   002628  00                 	db	0
   229   002629  00                 	db	0
   230   00262A  00                 	db	0
   231   00262B  00                 	db	0
   232   00262C  00                 	db	0
   233   00262D  00                 	db	0
   234   00262E  00                 	db	0
   235   00262F  00                 	db	0
   236   002630  00                 	db	0
   237   002631  00                 	db	0
   238   002632  00                 	db	0
   239   002633  00                 	db	0
   240   002634  00                 	db	0
   241   002635  00                 	db	0
   242   002636  00                 	db	0
   243   002637  00                 	db	0
   244   002638  00                 	db	0
   245   002639  00                 	db	0
   246   00263A                     __end_of_i2c1_fsmStateTable:
   247                           	callstack 0
   248   00263A                     _spi1_configuration:
   249                           	callstack 0
   250   00263A  02                 	db	2
   251   00263B  40                 	db	64
   252   00263C  00                 	db	0
   253   00263D  00                 	db	0
   254   00263E  00                 	db	0
   255   00263F                     __end_of_spi1_configuration:
   256                           	callstack 0
   257   000000                     _I2C1TXB	set	652
   258   000000                     _I2C1PIE	set	667
   259   000000                     _OSCTUNE	set	176
   260   000000                     _OSCFRQ	set	177
   261   000000                     _OSCEN	set	179
   262   000000                     _ADERRL	set	989
   263   000000                     _ADERRH	set	990
   264   000000                     _ADPREVL	set	1000
   265   000000                     _ADPREVH	set	1001
   266   000000                     _ADFLTRL	set	993
   267   000000                     _ADFLTRH	set	994
   268   000000                     _ADACCL	set	995
   269   000000                     _ADACCH	set	996
   270   000000                     _ADCNT	set	998
   271   000000                     _ADRESL	set	1002
   272   000000                     _ADRESH	set	1003
   273   000000                     _ADCON0	set	1011
   274   000000                     _ADCON1	set	1012
   275   000000                     _ADPREH	set	1010
   276   000000                     _ADPREL	set	1009
   277   000000                     _ADCAP	set	1008
   278   000000                     _ADACQH	set	1007
   279   000000                     _ADPCH	set	1004
   280   000000                     _ADRPT	set	999
   281   000000                     _ADACCU	set	997
   282   000000                     _ADSTPTH	set	992
   283   000000                     _ADSTPTL	set	991
   284   000000                     _ADUTHH	set	988
   285   000000                     _ADUTHL	set	987
   286   000000                     _ADLTHH	set	986
   287   000000                     _PWM2CON	set	1144
   288   000000                     _PIE5bits	set	1187
   289   000000                     _PIR5bits	set	1203
   290   000000                     _PWM2S1P2H	set	1149
   291   000000                     _PWM2S1P2L	set	1148
   292   000000                     _PWM2S1P1H	set	1147
   293   000000                     _PWM2S1P1L	set	1146
   294   000000                     _PWM2S1CFG	set	1145
   295   000000                     _PWM2GIE	set	1143
   296   000000                     _PWM2GIR	set	1142
   297   000000                     _PWM2PIPOS	set	1141
   298   000000                     _PWM2CPRE	set	1140
   299   000000                     _PWM2PRH	set	1139
   300   000000                     _PWM2PRL	set	1138
   301   000000                     _PWM2LDS	set	1137
   302   000000                     _PWM2CLK	set	1136
   303   000000                     _PWM2ERS	set	1135
   304   000000                     _PWM3CON	set	1159
   305   000000                     _PWM3S1CFG	set	1160
   306   000000                     _PWM3GIE	set	1158
   307   000000                     _PWM3GIR	set	1157
   308   000000                     _PWM3PIPOS	set	1156
   309   000000                     _PWM3CPRE	set	1155
   310   000000                     _PWM3PRH	set	1154
   311   000000                     _PWM3PRL	set	1153
   312   000000                     _PWM3LDS	set	1152
   313   000000                     _PWM3CLK	set	1151
   314   000000                     _PWM3ERS	set	1150
   315   000000                     _T0CON0	set	794
   316   000000                     _PIE6bits	set	1188
   317   000000                     _PIE1bits	set	1183
   318   000000                     _PIR6bits	set	1204
   319   000000                     _PIR1bits	set	1199
   320   000000                     _RC7PPS	set	536
   321   000000                     _INT1PPS	set	575
   322   000000                     _INT2PPS	set	576
   323   000000                     _TRISD	set	1225
   324   000000                     _TRISC	set	1224
   325   000000                     _TRISB	set	1223
   326   000000                     _LATC	set	1216
   327   000000                     _LATB	set	1215
   328   000000                     _LATA	set	1214
   329   000000                     _LATD	set	1217
   330   000000                     _LATE	set	1218
   331   000000                     _PWM1CON	set	1129
   332   000000                     _PIE4bits	set	1186
   333   000000                     _PIR4bits	set	1202
   334   000000                     _PWM1S1P2H	set	1134
   335   000000                     _PWM1S1P2L	set	1133
   336   000000                     _PWM1S1P1H	set	1132
   337   000000                     _PWM1S1P1L	set	1131
   338   000000                     _PWM1S1CFG	set	1130
   339   000000                     _PWM1GIE	set	1128
   340   000000                     _PWM1GIR	set	1127
   341   000000                     _PWM1PIPOS	set	1126
   342   000000                     _PWM1CPRE	set	1125
   343   000000                     _PWM1PRH	set	1124
   344   000000                     _PWM1PRL	set	1123
   345   000000                     _PWM1LDS	set	1122
   346   000000                     _PWM1CLK	set	1121
   347   00263F  00                 	db	0	; dummy byte at the end
   348   000000                     
   349                           	psect	nvCOMRAM
   350   00052D                     __pnvCOMRAM:
   351                           	callstack 0
   352   00052D                     _UART1_OverrunErrorHandler:
   353                           	callstack 0
   354   00052D                     	ds	3
   355   000530                     _UART1_FramingErrorHandler:
   356                           	callstack 0
   357   000530                     	ds	3
   358   000533                     _PWM2_16BIT_Period_InterruptHandler:
   359                           	callstack 0
   360   000533                     	ds	3
   361   000536                     _PWM2_16BIT_Slice1Output2_InterruptHandler:
   362                           	callstack 0
   363   000536                     	ds	3
   364   000539                     _PWM2_16BIT_Slice1Output1_InterruptHandler:
   365                           	callstack 0
   366   000539                     	ds	3
   367   00053C                     _PWM3_16BIT_Period_InterruptHandler:
   368                           	callstack 0
   369   00053C                     	ds	3
   370   00053F                     _PWM3_16BIT_Slice1Output2_InterruptHandler:
   371                           	callstack 0
   372   00053F                     	ds	3
   373   000542                     _PWM3_16BIT_Slice1Output1_InterruptHandler:
   374                           	callstack 0
   375   000542                     	ds	3
   376   000545                     _INT2_InterruptHandler:
   377                           	callstack 0
   378   000545                     	ds	3
   379   000548                     _INT1_InterruptHandler:
   380                           	callstack 0
   381   000548                     	ds	3
   382   00054B                     _INT0_InterruptHandler:
   383                           	callstack 0
   384   00054B                     	ds	3
   385   00054E                     _PWM1_16BIT_Period_InterruptHandler:
   386                           	callstack 0
   387   00054E                     	ds	3
   388   000551                     _PWM1_16BIT_Slice1Output2_InterruptHandler:
   389                           	callstack 0
   390   000551                     	ds	3
   391   000554                     _PWM1_16BIT_Slice1Output1_InterruptHandler:
   392                           	callstack 0
   393   000554                     	ds	3
   394                           
   395                           	psect	nvBANK5
   396   000560                     __pnvBANK5:
   397                           	callstack 0
   398   000560                     _UART2_ErrorHandler:
   399                           	callstack 0
   400   000560                     	ds	3
   401   000563                     _UART2_OverrunErrorHandler:
   402                           	callstack 0
   403   000563                     	ds	3
   404   000566                     _UART2_FramingErrorHandler:
   405                           	callstack 0
   406   000566                     	ds	3
   407   000569                     _UART1_ErrorHandler:
   408                           	callstack 0
   409   000569                     	ds	3
   410   000000                     _SPI1CON0bits	set	132
   411   000000                     _I2C1PIEbits	set	667
   412   000000                     _I2C1PIRbits	set	666
   413   000000                     _I2C1ERRbits	set	663
   414   000000                     _I2C1CON1bits	set	661
   415   000000                     _I2C1CON0bits	set	660
   416   000000                     _U2ERRIRbits	set	709
   417   000000                     _U2CON0bits	set	702
   418   000000                     _U1ERRIRbits	set	690
   419   000000                     _U1CON0bits	set	683
   420   000000                     _ADCON1bits	set	1012
   421   000000                     _ADSTATbits	set	1015
   422   000000                     _ADCON2bits	set	1013
   423   000000                     _ADCON3bits	set	1014
   424   000000                     _ADCON0bits	set	1011
   425   000000                     _T0CON0bits	set	794
   426   000000                     _ANSELFbits	set	1064
   427   000000                     _ODCONFbits	set	1066
   428   000000                     _WPUFbits	set	1065
   429   000000                     _ANSELEbits	set	1056
   430   000000                     _ODCONEbits	set	1058
   431   000000                     _WPUEbits	set	1057
   432   000000                     _ANSELDbits	set	1048
   433   000000                     _ODCONDbits	set	1050
   434   000000                     _WPUDbits	set	1049
   435   000000                     _ANSELCbits	set	1040
   436   000000                     _ODCONCbits	set	1042
   437   000000                     _WPUCbits	set	1041
   438   000000                     _ANSELBbits	set	1032
   439   000000                     _ODCONBbits	set	1034
   440   000000                     _WPUBbits	set	1033
   441   000000                     _TRISFbits	set	1227
   442   000000                     _LATFbits	set	1219
   443   000000                     _TRISEbits	set	1226
   444   000000                     _LATEbits	set	1218
   445   000000                     _TRISDbits	set	1225
   446   000000                     _LATDbits	set	1217
   447   000000                     _LATCbits	set	1216
   448   000000                     _TRISBbits	set	1223
   449   000000                     _LATBbits	set	1215
   450   000000                     _TRISCbits	set	1224
   451   000000                     _PWM2GIEbits	set	1143
   452   000000                     _PWM2CONbits	set	1144
   453   000000                     _PWM2GIRbits	set	1142
   454   000000                     _PWM3GIEbits	set	1158
   455   000000                     _PWM3CONbits	set	1159
   456   000000                     _PWM3GIRbits	set	1157
   457   000000                     _PWM1GIEbits	set	1128
   458   000000                     _PWM1CONbits	set	1129
   459   000000                     _PWM1GIRbits	set	1127
   460   000000                     _PMD0	set	96
   461   000000                     _DAC1DATL	set	125
   462   000000                     _DAC1CON	set	127
   463   000000                     _SPI1RXB	set	128
   464   000000                     _SPI1TXB	set	129
   465   000000                     _SPI1TCNTL	set	130
   466   000000                     _SPI1CON0	set	132
   467   000000                     _RB1PPS	set	522
   468   000000                     _RC4PPS	set	533
   469   000000                     _INT0PPS	set	574
   470   000000                     _U2RXPPS	set	628
   471   000000                     _RC4I2C	set	646
   472   000000                     _RC3I2C	set	647
   473   000000                     _RB2I2C	set	648
   474   000000                     _RB1I2C	set	649
   475   000000                     _ANSELA	set	1024
   476   000000                     _ANSELB	set	1032
   477   000000                     _ANSELC	set	1040
   478   000000                     _ANSELD	set	1048
   479   000000                     _PWM1ERS	set	1120
   480   000000                     _TRISA	set	1222
   481   000000                     _TRISE	set	1226
   482   000000                     _LATF	set	1219
   483   000000                     _PORTBbits	set	1231
   484   000000                     _INTCON0bits	set	1238
   485   000000                     _TRISF	set	1227
   486   000000                     _INLVLD	set	1052
   487   000000                     _SLRCOND	set	1051
   488   000000                     _ODCOND	set	1050
   489   000000                     _WPUD	set	1049
   490   000000                     _ANSELE	set	1056
   491   000000                     _INLVLC	set	1044
   492   000000                     _SLRCONC	set	1043
   493   000000                     _ODCONC	set	1042
   494   000000                     _WPUC	set	1041
   495   000000                     _INLVLB	set	1036
   496   000000                     _SLRCONB	set	1035
   497   000000                     _ODCONB	set	1034
   498   000000                     _WPUB	set	1033
   499   000000                     _INLVLE	set	1060
   500   000000                     _SLRCONE	set	1059
   501   000000                     _ODCONE	set	1058
   502   000000                     _WPUE	set	1057
   503   000000                     _ANSELF	set	1064
   504   000000                     _INLVLF	set	1068
   505   000000                     _SLRCONF	set	1067
   506   000000                     _ODCONF	set	1066
   507   000000                     _WPUF	set	1065
   508   000000                     _INLVLA	set	1028
   509   000000                     _SLRCONA	set	1027
   510   000000                     _ODCONA	set	1026
   511   000000                     _WPUA	set	1025
   512   000000                     _I2C1RXB	set	651
   513   000000                     _I2C1CNT	set	653
   514   000000                     _I2C1CON0	set	660
   515   000000                     _U1RXB	set	673
   516   000000                     _U1P1L	set	677
   517   000000                     _TMR0L	set	792
   518   000000                     _TMR0H	set	793
   519   000000                     _T0CON1	set	795
   520   000000                     _RC6PPS	set	535
   521   000000                     _RD0PPS	set	537
   522   000000                     _RD6PPS	set	543
   523   000000                     _RF0PPS	set	553
   524   000000                     _PWMIN0PPS	set	599
   525   000000                     _SPI1SCKPPS	set	618
   526   000000                     _I2C1SCLPPS	set	625
   527   000000                     _T0CKIPPS	set	577
   528   000000                     _U1RXPPS	set	626
   529   000000                     _SPI1SDIPPS	set	619
   530   000000                     _I2C1SDAPPS	set	624
   531   000000                     _RB2PPS	set	523
   532   000000                     _RD1PPS	set	538
   533   000000                     _PIR3bits	set	1201
   534   000000                     _PIR8bits	set	1206
   535   000000                     _PIR7bits	set	1205
   536   000000                     _PIR10bits	set	1208
   537   000000                     _PIE7bits	set	1189
   538   000000                     _PIE10bits	set	1192
   539   000000                     _ADLTHL	set	985
   540   000000                     _PWM3S1P2H	set	1164
   541   000000                     _PWM3S1P2L	set	1163
   542   000000                     _PWM3S1P1H	set	1162
   543   000000                     _PWM3S1P1L	set	1161
   544   000000                     _U2TXB	set	694
   545   000000                     _U2RXB	set	692
   546   000000                     _U2P1L	set	696
   547   000000                     _U1ERRIE	set	691
   548   000000                     _U1ERRIR	set	690
   549   000000                     _U1UIR	set	689
   550   000000                     _U1FIFO	set	688
   551   000000                     _U1BRGH	set	687
   552   000000                     _U1BRGL	set	686
   553   000000                     _U1CON2	set	685
   554   000000                     _U1CON1	set	684
   555   000000                     _U1CON0	set	683
   556   000000                     _U1P3H	set	682
   557   000000                     _U1P3L	set	681
   558   000000                     _U1P2H	set	680
   559   000000                     _U1P2L	set	679
   560   000000                     _U1P1H	set	678
   561   000000                     _U1TXB	set	675
   562   000000                     _U2P2L	set	698
   563   000000                     _U2P3L	set	700
   564   000000                     _U2CON0	set	702
   565   000000                     _U2ERRIE	set	710
   566   000000                     _U2ERRIR	set	709
   567   000000                     _U2UIR	set	708
   568   000000                     _U2FIFO	set	707
   569   000000                     _U2BRGH	set	706
   570   000000                     _U2BRGL	set	705
   571   000000                     _U2CON2	set	704
   572   000000                     _U2CON1	set	703
   573   000000                     _SPI1BAUD	set	137
   574   000000                     _SPI1CLK	set	140
   575   000000                     _SPI1CON2	set	134
   576   000000                     _SPI1CON1	set	133
   577   000000                     _ACTCON	set	172
   578   000000                     _OSCCON1	set	173
   579   000000                     _ADACQL	set	1006
   580   000000                     _ADCLK	set	1018
   581   000000                     _ADACT	set	1017
   582   000000                     _ADREF	set	1016
   583   000000                     _ADSTAT	set	1015
   584   000000                     _ADCON3	set	1014
   585   000000                     _ADCON2	set	1013
   586   000000                     _OSCCON3	set	175
   587   000000                     _PMD3	set	99
   588   000000                     _PMD1	set	97
   589   000000                     _PMD8	set	104
   590   000000                     _PMD7	set	103
   591   000000                     _PMD6	set	102
   592   000000                     _PMD5	set	101
   593   000000                     _PMD4	set	100
   594   000000                     _I2C1STAT1bits	set	665
   595   000000                     _I2C1ERR	set	663
   596   000000                     _I2C1PIR	set	666
   597   000000                     _I2C1CLK	set	668
   598   000000                     _I2C1CON2	set	662
   599   000000                     _I2C1CON1	set	661
   600   000000                     _PORTFbits	set	1235
   601   000000                     _PORTEbits	set	1234
   602   000000                     _PORTDbits	set	1233
   603   000000                     _PORTCbits	set	1232
   604                           
   605                           ; #config settings
   606                           
   607                           	psect	cinit
   608   002BE6                     __pcinit:
   609                           	callstack 0
   610   002BE6                     start_initialization:
   611                           	callstack 0
   612   002BE6                     __initialization:
   613                           	callstack 0
   614                           
   615                           ; Clear objects allocated to COMRAM (44 bytes)
   616   002BE6  EE01  F101         	lfsr	0,__pbssCOMRAM
   617   002BEA  0E2C               	movlw	44
   618   002BEC                     clear_0:
   619   002BEC  6AEE               	clrf	postinc0,c
   620   002BEE  06E8               	decf	wreg,f,c
   621   002BF0  E1FD               	bnz	clear_0
   622                           
   623                           ;
   624                           ; Setup IVTBASE
   625                           ;
   626   002BF2  0104               	movlb	4
   627   002BF4  0E08               	movlw	(ivt0x8_base shr 0)& (0+255)
   628   002BF6  6F5D               	movwf	93,b
   629   002BF8  0E00               	movlw	(ivt0x8_base shr (0+8))& (0+255)
   630   002BFA  6F5E               	movwf	94,b
   631   002BFC  0E00               	movlw	(ivt0x8_base shr (0+16))& (0+255)
   632   002BFE  6F5F               	movwf	95,b
   633   002C00                     end_of_initialization:
   634                           	callstack 0
   635   002C00                     __end_of__initialization:
   636                           	callstack 0
   637   002C00  0100               	movlb	0
   638   002C02  EFBA  F015         	goto	_main	;jump to C main() function
   639                           
   640                           	psect	bssCOMRAM
   641   000501                     __pbssCOMRAM:
   642                           	callstack 0
   643   000501                     _I2C1_Status:
   644                           	callstack 0
   645   000501                     	ds	42
   646   00052B                     _uart2RxLastError:
   647                           	callstack 0
   648   00052B                     	ds	1
   649   00052C                     _uart1RxLastError:
   650                           	callstack 0
   651   00052C                     	ds	1
   652                           
   653                           	psect	cstackCOMRAM
   654   000557                     __pcstackCOMRAM:
   655                           	callstack 0
   656   000557                     ??_INTERRUPT_InterruptManager:
   657   000557                     
   658                           ; 1 bytes @ 0x0
   659   000557                     	ds	2
   660   000559                     DAC1_SetOutput@inputData:
   661                           	callstack 0
   662   000559                     PWM1_16BIT_Slice1Output1_SetInterruptHandler@InterruptHandler:
   663                           	callstack 0
   664   000559                     PWM1_16BIT_Slice1Output2_SetInterruptHandler@InterruptHandler:
   665                           	callstack 0
   666   000559                     PWM1_16BIT_Period_SetInterruptHandler@InterruptHandler:
   667                           	callstack 0
   668   000559                     INT0_SetInterruptHandler@InterruptHandler:
   669                           	callstack 0
   670   000559                     INT1_SetInterruptHandler@InterruptHandler:
   671                           	callstack 0
   672   000559                     INT2_SetInterruptHandler@InterruptHandler:
   673                           	callstack 0
   674   000559                     PWM3_16BIT_Slice1Output1_SetInterruptHandler@InterruptHandler:
   675                           	callstack 0
   676   000559                     PWM3_16BIT_Slice1Output2_SetInterruptHandler@InterruptHandler:
   677                           	callstack 0
   678   000559                     PWM3_16BIT_Period_SetInterruptHandler@InterruptHandler:
   679                           	callstack 0
   680   000559                     PWM2_16BIT_Slice1Output1_SetInterruptHandler@InterruptHandler:
   681                           	callstack 0
   682   000559                     PWM2_16BIT_Slice1Output2_SetInterruptHandler@InterruptHandler:
   683                           	callstack 0
   684   000559                     PWM2_16BIT_Period_SetInterruptHandler@InterruptHandler:
   685                           	callstack 0
   686   000559                     UART1_SetFramingErrorHandler@interruptHandler:
   687                           	callstack 0
   688   000559                     UART1_SetOverrunErrorHandler@interruptHandler:
   689                           	callstack 0
   690   000559                     UART1_SetErrorHandler@interruptHandler:
   691                           	callstack 0
   692   000559                     UART2_SetFramingErrorHandler@interruptHandler:
   693                           	callstack 0
   694   000559                     UART2_SetOverrunErrorHandler@interruptHandler:
   695                           	callstack 0
   696   000559                     UART2_SetErrorHandler@interruptHandler:
   697                           	callstack 0
   698                           
   699                           ; 3 bytes @ 0x2
   700   000559                     	ds	1
   701   00055A                     SOM_DAC_SetOutput@InputData:
   702                           	callstack 0
   703                           
   704                           ; 1 bytes @ 0x3
   705   00055A                     	ds	2
   706   00055C                     ??_main:
   707                           
   708                           ; 1 bytes @ 0x5
   709   00055C                     	ds	1
   710   00055D                     main@c:
   711                           	callstack 0
   712                           
   713                           ; 1 bytes @ 0x6
   714   00055D                     	ds	1
   715                           
   716 ;;
   717 ;;Main: autosize = 0, tempsize = 1, incstack = 0, save=0
   718 ;;
   719 ;; *************** function _main *****************
   720 ;; Defined at:
   721 ;;		line 49 in file "main.c"
   722 ;; Parameters:    Size  Location     Type
   723 ;;		None
   724 ;; Auto vars:     Size  Location     Type
   725 ;;  c               1    6[COMRAM] unsigned char 
   726 ;; Return value:  Size  Location     Type
   727 ;;                  1    wreg      void 
   728 ;; Registers used:
   729 ;;		wreg, status,2, status,0, cstack
   730 ;; Tracked objects:
   731 ;;		On entry : 0/0
   732 ;;		On exit  : 0/0
   733 ;;		Unchanged: 0/0
   734 ;; Data sizes:     COMRAM   BANK5   BANK6   BANK7   BANK8   BANK9  BANK10  BANK11  BANK12  BANK13  BANK14  BANK15  BANK1
      +6  BANK17  BANK18  BANK19  BANK20  BANK21  BANK22  BANK23  BANK24  BANK25  BANK26  BANK27  BANK28  BANK29  BANK30  BANK3
      +1  BANK32  BANK33  BANK34  BANK35  BANK36
   735 ;;      Params:         0       0       0       0       0       0       0       0       0       0       0       0       
      +0       0       0       0       0       0       0       0       0       0       0       0       0       0       0       
      +0       0       0       0       0       0
   736 ;;      Locals:         1       0       0       0       0       0       0       0       0       0       0       0       
      +0       0       0       0       0       0       0       0       0       0       0       0       0       0       0       
      +0       0       0       0       0       0
   737 ;;      Temps:          1       0       0       0       0       0       0       0       0       0       0       0       
      +0       0       0       0       0       0       0       0       0       0       0       0       0       0       0       
      +0       0       0       0       0       0
   738 ;;      Totals:         2       0       0       0       0       0       0       0       0       0       0       0       
      +0       0       0       0       0       0       0       0       0       0       0       0       0       0       0       
      +0       0       0       0       0       0
   739 ;;Total ram usage:        2 bytes
   740 ;; Hardware stack levels required when called: 7
   741 ;; This function calls:
   742 ;;		_SOM_DAC_Initialize
   743 ;;		_SOM_DAC_SetOutput
   744 ;;		_SYSTEM_Initialize
   745 ;; This function is called by:
   746 ;;		Startup code after reset
   747 ;; This function uses a non-reentrant model
   748 ;;
   749                           
   750                           	psect	text0
   751   002B74                     __ptext0:
   752                           	callstack 0
   753   002B74                     _main:
   754                           	callstack 120
   755   002B74                     
   756                           ;main.c: 52:     SYSTEM_Initialize();
   757   002B74  EC53  F015         	call	_SYSTEM_Initialize	;wreg free
   758   002B78                     
   759                           ;main.c: 53:     SOM_DAC_Initialize();
   760   002B78  ECC1  F016         	call	_SOM_DAC_Initialize	;wreg free
   761   002B7C                     
   762                           ;main.c: 65:     {;main.c: 66:         for(uint8_t c =0;c<=255;c++)
   763   002B7C  0E00               	movlw	0
   764   002B7E  6E5D               	movwf	main@c^(0+1280),c
   765   002B80                     l5030:
   766                           
   767                           ;main.c: 67:         {;main.c: 68:             SOM_DAC_SetOutput(c);
   768   002B80  505D               	movf	main@c^(0+1280),w,c
   769   002B82  ECAC  F016         	call	_SOM_DAC_SetOutput
   770   002B86                     
   771                           ;main.c: 69:             _delay((unsigned long)((25)*(1000000/4000.0)));
   772   002B86  0E09               	movlw	9
   773   002B88  6E5C               	movwf	??_main^(0+1280),c
   774   002B8A  0E1C               	movlw	28
   775   002B8C                     u1597:
   776   002B8C  2EE8               	decfsz	wreg,f,c
   777   002B8E  D7FE               	bra	u1597
   778   002B90  2E5C               	decfsz	??_main^(0+1280),f,c
   779   002B92  D7FC               	bra	u1597
   780   002B94  D000               	nop2	
   781   002B96                     
   782                           ;main.c: 70:         }
   783   002B96  2A5D               	incf	main@c^(0+1280),f,c
   784   002B98  EFC0  F015         	goto	l5030
   785   002B9C  EF0D  F000         	goto	start
   786   002BA0                     __end_of_main:
   787                           	callstack 0
   788                           
   789 ;; *************** function _SYSTEM_Initialize *****************
   790 ;; Defined at:
   791 ;;		line 50 in file "mcc_generated_files/mcc.c"
   792 ;; Parameters:    Size  Location     Type
   793 ;;		None
   794 ;; Auto vars:     Size  Location     Type
   795 ;;		None
   796 ;; Return value:  Size  Location     Type
   797 ;;                  1    wreg      void 
   798 ;; Registers used:
   799 ;;		wreg, status,2, status,0, cstack
   800 ;; Tracked objects:
   801 ;;		On entry : 0/0
   802 ;;		On exit  : 0/0
   803 ;;		Unchanged: 0/0
   804 ;; Data sizes:     COMRAM   BANK5   BANK6   BANK7   BANK8   BANK9  BANK10  BANK11  BANK12  BANK13  BANK14  BANK15  BANK1
      +6  BANK17  BANK18  BANK19  BANK20  BANK21  BANK22  BANK23  BANK24  BANK25  BANK26  BANK27  BANK28  BANK29  BANK30  BANK3
      +1  BANK32  BANK33  BANK34  BANK35  BANK36
   805 ;;      Params:         0       0       0       0       0       0       0       0       0       0       0       0       
      +0       0       0       0       0       0       0       0       0       0       0       0       0       0       0       
      +0       0       0       0       0       0
   806 ;;      Locals:         0       0       0       0       0       0       0       0       0       0       0       0       
      +0       0       0       0       0       0       0       0       0       0       0       0       0       0       0       
      +0       0       0       0       0       0
   807 ;;      Temps:          0       0       0       0       0       0       0       0       0       0       0       0       
      +0       0       0       0       0       0       0       0       0       0       0       0       0       0       0       
      +0       0       0       0       0       0
   808 ;;      Totals:         0       0       0       0       0       0       0       0       0       0       0       0       
      +0       0       0       0       0       0       0       0       0       0       0       0       0       0       0       
      +0       0       0       0       0       0
   809 ;;Total ram usage:        0 bytes
   810 ;; Hardware stack levels used: 1
   811 ;; Hardware stack levels required when called: 6
   812 ;; This function calls:
   813 ;;		_ADCC_Initialize
   814 ;;		_DAC1_Initialize
   815 ;;		_EXT_INT_Initialize
   816 ;;		_I2C1_Initialize
   817 ;;		_INTERRUPT_Initialize
   818 ;;		_OSCILLATOR_Initialize
   819 ;;		_PIN_MANAGER_Initialize
   820 ;;		_PMD_Initialize
   821 ;;		_PWM1_16BIT_Initialize
   822 ;;		_PWM2_16BIT_Initialize
   823 ;;		_PWM3_16BIT_Initialize
   824 ;;		_SPI1_Initialize
   825 ;;		_TMR0_Initialize
   826 ;;		_UART1_Initialize
   827 ;;		_UART2_Initialize
   828 ;; This function is called by:
   829 ;;		_main
   830 ;; This function uses a non-reentrant model
   831 ;;
   832                           
   833                           	psect	text1
   834   002AA6                     __ptext1:
   835                           	callstack 0
   836   002AA6                     _SYSTEM_Initialize:
   837                           	callstack 120
   838   002AA6                     
   839                           ;mcc_generated_files/mcc.c: 52:     INTERRUPT_Initialize();
   840   002AA6  ECC4  F016         	call	_INTERRUPT_Initialize	;wreg free
   841   002AAA                     
   842                           ;mcc_generated_files/mcc.c: 53:     PMD_Initialize();
   843   002AAA  ECD0  F015         	call	_PMD_Initialize	;wreg free
   844   002AAE                     
   845                           ;mcc_generated_files/mcc.c: 54:     I2C1_Initialize();
   846   002AAE  ECE2  F015         	call	_I2C1_Initialize	;wreg free
   847   002AB2                     
   848                           ;mcc_generated_files/mcc.c: 55:     PIN_MANAGER_Initialize();
   849   002AB2  EC20  F013         	call	_PIN_MANAGER_Initialize	;wreg free
   850   002AB6                     
   851                           ;mcc_generated_files/mcc.c: 56:     OSCILLATOR_Initialize();
   852   002AB6  EC03  F016         	call	_OSCILLATOR_Initialize	;wreg free
   853   002ABA                     
   854                           ;mcc_generated_files/mcc.c: 57:     ADCC_Initialize();
   855   002ABA  EC03  F015         	call	_ADCC_Initialize	;wreg free
   856   002ABE                     
   857                           ;mcc_generated_files/mcc.c: 58:     EXT_INT_Initialize();
   858   002ABE  EC31  F015         	call	_EXT_INT_Initialize	;wreg free
   859   002AC2                     
   860                           ;mcc_generated_files/mcc.c: 59:     TMR0_Initialize();
   861   002AC2  EC1E  F016         	call	_TMR0_Initialize	;wreg free
   862   002AC6                     
   863                           ;mcc_generated_files/mcc.c: 60:     DAC1_Initialize();
   864   002AC6  ECA6  F016         	call	_DAC1_Initialize	;wreg free
   865   002ACA                     
   866                           ;mcc_generated_files/mcc.c: 61:     UART1_Initialize();
   867   002ACA  EC95  F014         	call	_UART1_Initialize	;wreg free
   868   002ACE                     
   869                           ;mcc_generated_files/mcc.c: 62:     UART2_Initialize();
   870   002ACE  ECCF  F014         	call	_UART2_Initialize	;wreg free
   871   002AD2                     
   872                           ;mcc_generated_files/mcc.c: 63:     SPI1_Initialize();
   873   002AD2  EC11  F016         	call	_SPI1_Initialize	;wreg free
   874   002AD6                     
   875                           ;mcc_generated_files/mcc.c: 64:     PWM2_16BIT_Initialize();
   876   002AD6  EC1B  F014         	call	_PWM2_16BIT_Initialize	;wreg free
   877   002ADA                     
   878                           ;mcc_generated_files/mcc.c: 65:     PWM3_16BIT_Initialize();
   879   002ADA  ECDE  F013         	call	_PWM3_16BIT_Initialize	;wreg free
   880   002ADE                     
   881                           ;mcc_generated_files/mcc.c: 66:     PWM1_16BIT_Initialize();
   882   002ADE  EC58  F014         	call	_PWM1_16BIT_Initialize	;wreg free
   883   002AE2  0012               	return		;funcret
   884   002AE4                     __end_of_SYSTEM_Initialize:
   885                           	callstack 0
   886                           
   887 ;; *************** function _UART2_Initialize *****************
   888 ;; Defined at:
   889 ;;		line 66 in file "mcc_generated_files/uart2.c"
   890 ;; Parameters:    Size  Location     Type
   891 ;;		None
   892 ;; Auto vars:     Size  Location     Type
   893 ;;		None
   894 ;; Return value:  Size  Location     Type
   895 ;;                  1    wreg      void 
   896 ;; Registers used:
   897 ;;		wreg, status,2, status,0, cstack
   898 ;; Tracked objects:
   899 ;;		On entry : 0/0
   900 ;;		On exit  : 0/0
   901 ;;		Unchanged: 0/0
   902 ;; Data sizes:     COMRAM   BANK5   BANK6   BANK7   BANK8   BANK9  BANK10  BANK11  BANK12  BANK13  BANK14  BANK15  BANK1
      +6  BANK17  BANK18  BANK19  BANK20  BANK21  BANK22  BANK23  BANK24  BANK25  BANK26  BANK27  BANK28  BANK29  BANK30  BANK3
      +1  BANK32  BANK33  BANK34  BANK35  BANK36
   903 ;;      Params:         0       0       0       0       0       0       0       0       0       0       0       0       
      +0       0       0       0       0       0       0       0       0       0       0       0       0       0       0       
      +0       0       0       0       0       0
   904 ;;      Locals:         0       0       0       0       0       0       0       0       0       0       0       0       
      +0       0       0       0       0       0       0       0       0       0       0       0       0       0       0       
      +0       0       0       0       0       0
   905 ;;      Temps:          0       0       0       0       0       0       0       0       0       0       0       0       
      +0       0       0       0       0       0       0       0       0       0       0       0       0       0       0       
      +0       0       0       0       0       0
   906 ;;      Totals:         0       0       0       0       0       0       0       0       0       0       0       0       
      +0       0       0       0       0       0       0       0       0       0       0       0       0       0       0       
      +0       0       0       0       0       0
   907 ;;Total ram usage:        0 bytes
   908 ;; Hardware stack levels used: 1
   909 ;; Hardware stack levels required when called: 5
   910 ;; This function calls:
   911 ;;		_UART2_SetErrorHandler
   912 ;;		_UART2_SetFramingErrorHandler
   913 ;;		_UART2_SetOverrunErrorHandler
   914 ;; This function is called by:
   915 ;;		_SYSTEM_Initialize
   916 ;; This function uses a non-reentrant model
   917 ;;
   918                           
   919                           	psect	text2
   920   00299E                     __ptext2:
   921                           	callstack 0
   922   00299E                     _UART2_Initialize:
   923                           	callstack 120
   924   00299E                     
   925                           ;mcc_generated_files/uart2.c: 73:     U2P1L = 0x00;
   926   00299E  0E00               	movlw	0
   927   0029A0  0102               	movlb	2	; () banked
   928   0029A2  6FB8               	movwf	184,b	;volatile
   929                           
   930                           ;mcc_generated_files/uart2.c: 76:     U2P2L = 0x00;
   931   0029A4  0E00               	movlw	0
   932   0029A6  6FBA               	movwf	186,b	;volatile
   933                           
   934                           ;mcc_generated_files/uart2.c: 79:     U2P3L = 0x00;
   935   0029A8  0E00               	movlw	0
   936   0029AA  6FBC               	movwf	188,b	;volatile
   937                           
   938                           ;mcc_generated_files/uart2.c: 82:     U2CON0 = 0xB0;
   939   0029AC  0EB0               	movlw	176
   940   0029AE  6FBE               	movwf	190,b	;volatile
   941                           
   942                           ;mcc_generated_files/uart2.c: 85:     U2CON1 = 0x80;
   943   0029B0  0E80               	movlw	128
   944   0029B2  6FBF               	movwf	191,b	;volatile
   945                           
   946                           ;mcc_generated_files/uart2.c: 88:     U2CON2 = 0x00;
   947   0029B4  0E00               	movlw	0
   948   0029B6  6FC0               	movwf	192,b	;volatile
   949                           
   950                           ;mcc_generated_files/uart2.c: 91:     U2BRGL = 0x19;
   951   0029B8  0E19               	movlw	25
   952   0029BA  6FC1               	movwf	193,b	;volatile
   953                           
   954                           ;mcc_generated_files/uart2.c: 94:     U2BRGH = 0x00;
   955   0029BC  0E00               	movlw	0
   956   0029BE  6FC2               	movwf	194,b	;volatile
   957                           
   958                           ;mcc_generated_files/uart2.c: 97:     U2FIFO = 0x00;
   959   0029C0  0E00               	movlw	0
   960   0029C2  6FC3               	movwf	195,b	;volatile
   961                           
   962                           ;mcc_generated_files/uart2.c: 100:     U2UIR = 0x00;
   963   0029C4  0E00               	movlw	0
   964   0029C6  6FC4               	movwf	196,b	;volatile
   965                           
   966                           ;mcc_generated_files/uart2.c: 103:     U2ERRIR = 0x00;
   967   0029C8  0E00               	movlw	0
   968   0029CA  6FC5               	movwf	197,b	;volatile
   969                           
   970                           ;mcc_generated_files/uart2.c: 106:     U2ERRIE = 0x00;
   971   0029CC  0E00               	movlw	0
   972   0029CE  6FC6               	movwf	198,b	;volatile
   973   0029D0                     
   974                           ; BSR set to: 2
   975                           ;mcc_generated_files/uart2.c: 109:     UART2_SetFramingErrorHandler(UART2_DefaultFraming
      +                          ErrorHandler);
   976   0029D0  0E00               	movlw	0
   977   0029D2  6E59               	movwf	UART2_SetFramingErrorHandler@interruptHandler^(0+1280),c
   978   0029D4  0E00               	movlw	0
   979   0029D6  6E5A               	movwf	(UART2_SetFramingErrorHandler@interruptHandler+1)^(0+1280),c
   980   0029D8  0E00               	movlw	0
   981   0029DA  6E5B               	movwf	(UART2_SetFramingErrorHandler@interruptHandler+2)^(0+1280),c
   982   0029DC  EC2F  F016         	call	_UART2_SetFramingErrorHandler	;wreg free
   983   0029E0                     
   984                           ;mcc_generated_files/uart2.c: 110:     UART2_SetOverrunErrorHandler(UART2_DefaultOverrun
      +                          ErrorHandler);
   985   0029E0  0E00               	movlw	0
   986   0029E2  6E59               	movwf	UART2_SetOverrunErrorHandler@interruptHandler^(0+1280),c
   987   0029E4  0E00               	movlw	0
   988   0029E6  6E5A               	movwf	(UART2_SetOverrunErrorHandler@interruptHandler+1)^(0+1280),c
   989   0029E8  0E00               	movlw	0
   990   0029EA  6E5B               	movwf	(UART2_SetOverrunErrorHandler@interruptHandler+2)^(0+1280),c
   991   0029EC  EC28  F016         	call	_UART2_SetOverrunErrorHandler	;wreg free
   992   0029F0                     
   993                           ;mcc_generated_files/uart2.c: 111:     UART2_SetErrorHandler(UART2_DefaultErrorHandler);
   994   0029F0  0E00               	movlw	0
   995   0029F2  6E59               	movwf	UART2_SetErrorHandler@interruptHandler^(0+1280),c
   996   0029F4  0E00               	movlw	0
   997   0029F6  6E5A               	movwf	(UART2_SetErrorHandler@interruptHandler+1)^(0+1280),c
   998   0029F8  0E00               	movlw	0
   999   0029FA  6E5B               	movwf	(UART2_SetErrorHandler@interruptHandler+2)^(0+1280),c
  1000   0029FC  EC36  F016         	call	_UART2_SetErrorHandler	;wreg free
  1001   002A00                     
  1002                           ;mcc_generated_files/uart2.c: 113:     uart2RxLastError.status = 0;
  1003   002A00  0E00               	movlw	0
  1004   002A02  6E2B               	movwf	_uart2RxLastError^(0+1280),c	;volatile
  1005   002A04  0012               	return		;funcret
  1006   002A06                     __end_of_UART2_Initialize:
  1007                           	callstack 0
  1008                           
  1009 ;; *************** function _UART2_SetOverrunErrorHandler *****************
  1010 ;; Defined at:
  1011 ;;		line 185 in file "mcc_generated_files/uart2.c"
  1012 ;; Parameters:    Size  Location     Type
  1013 ;;  interruptHan    3    2[COMRAM] PTR FTN()void 
  1014 ;;		 -> UART2_DefaultOverrunErrorHandler(1), 
  1015 ;; Auto vars:     Size  Location     Type
  1016 ;;		None
  1017 ;; Return value:  Size  Location     Type
  1018 ;;                  1    wreg      void 
  1019 ;; Registers used:
  1020 ;;		wreg, status,2, status,0
  1021 ;; Tracked objects:
  1022 ;;		On entry : 0/0
  1023 ;;		On exit  : 0/0
  1024 ;;		Unchanged: 0/0
  1025 ;; Data sizes:     COMRAM   BANK5   BANK6   BANK7   BANK8   BANK9  BANK10  BANK11  BANK12  BANK13  BANK14  BANK15  BANK1
      +6  BANK17  BANK18  BANK19  BANK20  BANK21  BANK22  BANK23  BANK24  BANK25  BANK26  BANK27  BANK28  BANK29  BANK30  BANK3
      +1  BANK32  BANK33  BANK34  BANK35  BANK36
  1026 ;;      Params:         3       0       0       0       0       0       0       0       0       0       0       0       
      +0       0       0       0       0       0       0       0       0       0       0       0       0       0       0       
      +0       0       0       0       0       0
  1027 ;;      Locals:         0       0       0       0       0       0       0       0       0       0       0       0       
      +0       0       0       0       0       0       0       0       0       0       0       0       0       0       0       
      +0       0       0       0       0       0
  1028 ;;      Temps:          0       0       0       0       0       0       0       0       0       0       0       0       
      +0       0       0       0       0       0       0       0       0       0       0       0       0       0       0       
      +0       0       0       0       0       0
  1029 ;;      Totals:         3       0       0       0       0       0       0       0       0       0       0       0       
      +0       0       0       0       0       0       0       0       0       0       0       0       0       0       0       
      +0       0       0       0       0       0
  1030 ;;Total ram usage:        3 bytes
  1031 ;; Hardware stack levels used: 1
  1032 ;; Hardware stack levels required when called: 4
  1033 ;; This function calls:
  1034 ;;		Nothing
  1035 ;; This function is called by:
  1036 ;;		_UART2_Initialize
  1037 ;; This function uses a non-reentrant model
  1038 ;;
  1039                           
  1040                           	psect	text3
  1041   002C50                     __ptext3:
  1042                           	callstack 0
  1043   002C50                     _UART2_SetOverrunErrorHandler:
  1044                           	callstack 120
  1045   002C50                     
  1046                           ;mcc_generated_files/uart2.c: 186:     UART2_OverrunErrorHandler = interruptHandler;
  1047   002C50  C559  F563         	movff	UART2_SetOverrunErrorHandler@interruptHandler,_UART2_OverrunErrorHandler
  1048   002C54  C55A  F564         	movff	UART2_SetOverrunErrorHandler@interruptHandler+1,_UART2_OverrunErrorHandler+1
  1049   002C58  C55B  F565         	movff	UART2_SetOverrunErrorHandler@interruptHandler+2,_UART2_OverrunErrorHandler+2
  1050   002C5C  0012               	return		;funcret
  1051   002C5E                     __end_of_UART2_SetOverrunErrorHandler:
  1052                           	callstack 0
  1053                           
  1054 ;; *************** function _UART2_SetFramingErrorHandler *****************
  1055 ;; Defined at:
  1056 ;;		line 181 in file "mcc_generated_files/uart2.c"
  1057 ;; Parameters:    Size  Location     Type
  1058 ;;  interruptHan    3    2[COMRAM] PTR FTN()void 
  1059 ;;		 -> UART2_DefaultFramingErrorHandler(1), 
  1060 ;; Auto vars:     Size  Location     Type
  1061 ;;		None
  1062 ;; Return value:  Size  Location     Type
  1063 ;;                  1    wreg      void 
  1064 ;; Registers used:
  1065 ;;		wreg, status,2, status,0
  1066 ;; Tracked objects:
  1067 ;;		On entry : 0/0
  1068 ;;		On exit  : 0/0
  1069 ;;		Unchanged: 0/0
  1070 ;; Data sizes:     COMRAM   BANK5   BANK6   BANK7   BANK8   BANK9  BANK10  BANK11  BANK12  BANK13  BANK14  BANK15  BANK1
      +6  BANK17  BANK18  BANK19  BANK20  BANK21  BANK22  BANK23  BANK24  BANK25  BANK26  BANK27  BANK28  BANK29  BANK30  BANK3
      +1  BANK32  BANK33  BANK34  BANK35  BANK36
  1071 ;;      Params:         3       0       0       0       0       0       0       0       0       0       0       0       
      +0       0       0       0       0       0       0       0       0       0       0       0       0       0       0       
      +0       0       0       0       0       0
  1072 ;;      Locals:         0       0       0       0       0       0       0       0       0       0       0       0       
      +0       0       0       0       0       0       0       0       0       0       0       0       0       0       0       
      +0       0       0       0       0       0
  1073 ;;      Temps:          0       0       0       0       0       0       0       0       0       0       0       0       
      +0       0       0       0       0       0       0       0       0       0       0       0       0       0       0       
      +0       0       0       0       0       0
  1074 ;;      Totals:         3       0       0       0       0       0       0       0       0       0       0       0       
      +0       0       0       0       0       0       0       0       0       0       0       0       0       0       0       
      +0       0       0       0       0       0
  1075 ;;Total ram usage:        3 bytes
  1076 ;; Hardware stack levels used: 1
  1077 ;; Hardware stack levels required when called: 4
  1078 ;; This function calls:
  1079 ;;		Nothing
  1080 ;; This function is called by:
  1081 ;;		_UART2_Initialize
  1082 ;; This function uses a non-reentrant model
  1083 ;;
  1084                           
  1085                           	psect	text4
  1086   002C5E                     __ptext4:
  1087                           	callstack 0
  1088   002C5E                     _UART2_SetFramingErrorHandler:
  1089                           	callstack 120
  1090   002C5E                     
  1091                           ;mcc_generated_files/uart2.c: 182:     UART2_FramingErrorHandler = interruptHandler;
  1092   002C5E  C559  F566         	movff	UART2_SetFramingErrorHandler@interruptHandler,_UART2_FramingErrorHandler
  1093   002C62  C55A  F567         	movff	UART2_SetFramingErrorHandler@interruptHandler+1,_UART2_FramingErrorHandler+1
  1094   002C66  C55B  F568         	movff	UART2_SetFramingErrorHandler@interruptHandler+2,_UART2_FramingErrorHandler+2
  1095   002C6A  0012               	return		;funcret
  1096   002C6C                     __end_of_UART2_SetFramingErrorHandler:
  1097                           	callstack 0
  1098                           
  1099 ;; *************** function _UART2_SetErrorHandler *****************
  1100 ;; Defined at:
  1101 ;;		line 189 in file "mcc_generated_files/uart2.c"
  1102 ;; Parameters:    Size  Location     Type
  1103 ;;  interruptHan    3    2[COMRAM] PTR FTN()void 
  1104 ;;		 -> UART2_DefaultErrorHandler(1), 
  1105 ;; Auto vars:     Size  Location     Type
  1106 ;;		None
  1107 ;; Return value:  Size  Location     Type
  1108 ;;                  1    wreg      void 
  1109 ;; Registers used:
  1110 ;;		wreg, status,2, status,0
  1111 ;; Tracked objects:
  1112 ;;		On entry : 0/0
  1113 ;;		On exit  : 0/0
  1114 ;;		Unchanged: 0/0
  1115 ;; Data sizes:     COMRAM   BANK5   BANK6   BANK7   BANK8   BANK9  BANK10  BANK11  BANK12  BANK13  BANK14  BANK15  BANK1
      +6  BANK17  BANK18  BANK19  BANK20  BANK21  BANK22  BANK23  BANK24  BANK25  BANK26  BANK27  BANK28  BANK29  BANK30  BANK3
      +1  BANK32  BANK33  BANK34  BANK35  BANK36
  1116 ;;      Params:         3       0       0       0       0       0       0       0       0       0       0       0       
      +0       0       0       0       0       0       0       0       0       0       0       0       0       0       0       
      +0       0       0       0       0       0
  1117 ;;      Locals:         0       0       0       0       0       0       0       0       0       0       0       0       
      +0       0       0       0       0       0       0       0       0       0       0       0       0       0       0       
      +0       0       0       0       0       0
  1118 ;;      Temps:          0       0       0       0       0       0       0       0       0       0       0       0       
      +0       0       0       0       0       0       0       0       0       0       0       0       0       0       0       
      +0       0       0       0       0       0
  1119 ;;      Totals:         3       0       0       0       0       0       0       0       0       0       0       0       
      +0       0       0       0       0       0       0       0       0       0       0       0       0       0       0       
      +0       0       0       0       0       0
  1120 ;;Total ram usage:        3 bytes
  1121 ;; Hardware stack levels used: 1
  1122 ;; Hardware stack levels required when called: 4
  1123 ;; This function calls:
  1124 ;;		Nothing
  1125 ;; This function is called by:
  1126 ;;		_UART2_Initialize
  1127 ;; This function uses a non-reentrant model
  1128 ;;
  1129                           
  1130                           	psect	text5
  1131   002C6C                     __ptext5:
  1132                           	callstack 0
  1133   002C6C                     _UART2_SetErrorHandler:
  1134                           	callstack 120
  1135   002C6C                     
  1136                           ;mcc_generated_files/uart2.c: 190:     UART2_ErrorHandler = interruptHandler;
  1137   002C6C  C559  F560         	movff	UART2_SetErrorHandler@interruptHandler,_UART2_ErrorHandler
  1138   002C70  C55A  F561         	movff	UART2_SetErrorHandler@interruptHandler+1,_UART2_ErrorHandler+1
  1139   002C74  C55B  F562         	movff	UART2_SetErrorHandler@interruptHandler+2,_UART2_ErrorHandler+2
  1140   002C78  0012               	return		;funcret
  1141   002C7A                     __end_of_UART2_SetErrorHandler:
  1142                           	callstack 0
  1143                           
  1144 ;; *************** function _UART1_Initialize *****************
  1145 ;; Defined at:
  1146 ;;		line 66 in file "mcc_generated_files/uart1.c"
  1147 ;; Parameters:    Size  Location     Type
  1148 ;;		None
  1149 ;; Auto vars:     Size  Location     Type
  1150 ;;		None
  1151 ;; Return value:  Size  Location     Type
  1152 ;;                  1    wreg      void 
  1153 ;; Registers used:
  1154 ;;		wreg, status,2, status,0, cstack
  1155 ;; Tracked objects:
  1156 ;;		On entry : 0/0
  1157 ;;		On exit  : 0/0
  1158 ;;		Unchanged: 0/0
  1159 ;; Data sizes:     COMRAM   BANK5   BANK6   BANK7   BANK8   BANK9  BANK10  BANK11  BANK12  BANK13  BANK14  BANK15  BANK1
      +6  BANK17  BANK18  BANK19  BANK20  BANK21  BANK22  BANK23  BANK24  BANK25  BANK26  BANK27  BANK28  BANK29  BANK30  BANK3
      +1  BANK32  BANK33  BANK34  BANK35  BANK36
  1160 ;;      Params:         0       0       0       0       0       0       0       0       0       0       0       0       
      +0       0       0       0       0       0       0       0       0       0       0       0       0       0       0       
      +0       0       0       0       0       0
  1161 ;;      Locals:         0       0       0       0       0       0       0       0       0       0       0       0       
      +0       0       0       0       0       0       0       0       0       0       0       0       0       0       0       
      +0       0       0       0       0       0
  1162 ;;      Temps:          0       0       0       0       0       0       0       0       0       0       0       0       
      +0       0       0       0       0       0       0       0       0       0       0       0       0       0       0       
      +0       0       0       0       0       0
  1163 ;;      Totals:         0       0       0       0       0       0       0       0       0       0       0       0       
      +0       0       0       0       0       0       0       0       0       0       0       0       0       0       0       
      +0       0       0       0       0       0
  1164 ;;Total ram usage:        0 bytes
  1165 ;; Hardware stack levels used: 1
  1166 ;; Hardware stack levels required when called: 5
  1167 ;; This function calls:
  1168 ;;		_UART1_SetErrorHandler
  1169 ;;		_UART1_SetFramingErrorHandler
  1170 ;;		_UART1_SetOverrunErrorHandler
  1171 ;; This function is called by:
  1172 ;;		_SYSTEM_Initialize
  1173 ;; This function uses a non-reentrant model
  1174 ;;
  1175                           
  1176                           	psect	text6
  1177   00292A                     __ptext6:
  1178                           	callstack 0
  1179   00292A                     _UART1_Initialize:
  1180                           	callstack 120
  1181   00292A                     
  1182                           ;mcc_generated_files/uart1.c: 73:     U1P1L = 0x00;
  1183   00292A  0E00               	movlw	0
  1184   00292C  0102               	movlb	2	; () banked
  1185   00292E  6FA5               	movwf	165,b	;volatile
  1186                           
  1187                           ;mcc_generated_files/uart1.c: 76:     U1P1H = 0x00;
  1188   002930  0E00               	movlw	0
  1189   002932  6FA6               	movwf	166,b	;volatile
  1190                           
  1191                           ;mcc_generated_files/uart1.c: 79:     U1P2L = 0x00;
  1192   002934  0E00               	movlw	0
  1193   002936  6FA7               	movwf	167,b	;volatile
  1194                           
  1195                           ;mcc_generated_files/uart1.c: 82:     U1P2H = 0x00;
  1196   002938  0E00               	movlw	0
  1197   00293A  6FA8               	movwf	168,b	;volatile
  1198                           
  1199                           ;mcc_generated_files/uart1.c: 85:     U1P3L = 0x00;
  1200   00293C  0E00               	movlw	0
  1201   00293E  6FA9               	movwf	169,b	;volatile
  1202                           
  1203                           ;mcc_generated_files/uart1.c: 88:     U1P3H = 0x00;
  1204   002940  0E00               	movlw	0
  1205   002942  6FAA               	movwf	170,b	;volatile
  1206                           
  1207                           ;mcc_generated_files/uart1.c: 91:     U1CON0 = 0xB0;
  1208   002944  0EB0               	movlw	176
  1209   002946  6FAB               	movwf	171,b	;volatile
  1210                           
  1211                           ;mcc_generated_files/uart1.c: 94:     U1CON1 = 0x80;
  1212   002948  0E80               	movlw	128
  1213   00294A  6FAC               	movwf	172,b	;volatile
  1214                           
  1215                           ;mcc_generated_files/uart1.c: 97:     U1CON2 = 0x00;
  1216   00294C  0E00               	movlw	0
  1217   00294E  6FAD               	movwf	173,b	;volatile
  1218                           
  1219                           ;mcc_generated_files/uart1.c: 100:     U1BRGL = 0x19;
  1220   002950  0E19               	movlw	25
  1221   002952  6FAE               	movwf	174,b	;volatile
  1222                           
  1223                           ;mcc_generated_files/uart1.c: 103:     U1BRGH = 0x00;
  1224   002954  0E00               	movlw	0
  1225   002956  6FAF               	movwf	175,b	;volatile
  1226                           
  1227                           ;mcc_generated_files/uart1.c: 106:     U1FIFO = 0x00;
  1228   002958  0E00               	movlw	0
  1229   00295A  6FB0               	movwf	176,b	;volatile
  1230                           
  1231                           ;mcc_generated_files/uart1.c: 109:     U1UIR = 0x00;
  1232   00295C  0E00               	movlw	0
  1233   00295E  6FB1               	movwf	177,b	;volatile
  1234                           
  1235                           ;mcc_generated_files/uart1.c: 112:     U1ERRIR = 0x00;
  1236   002960  0E00               	movlw	0
  1237   002962  6FB2               	movwf	178,b	;volatile
  1238                           
  1239                           ;mcc_generated_files/uart1.c: 115:     U1ERRIE = 0x00;
  1240   002964  0E00               	movlw	0
  1241   002966  6FB3               	movwf	179,b	;volatile
  1242   002968                     
  1243                           ; BSR set to: 2
  1244                           ;mcc_generated_files/uart1.c: 118:     UART1_SetFramingErrorHandler(UART1_DefaultFraming
      +                          ErrorHandler);
  1245   002968  0E00               	movlw	0
  1246   00296A  6E59               	movwf	UART1_SetFramingErrorHandler@interruptHandler^(0+1280),c
  1247   00296C  0E00               	movlw	0
  1248   00296E  6E5A               	movwf	(UART1_SetFramingErrorHandler@interruptHandler+1)^(0+1280),c
  1249   002970  0E00               	movlw	0
  1250   002972  6E5B               	movwf	(UART1_SetFramingErrorHandler@interruptHandler+2)^(0+1280),c
  1251   002974  EC44  F016         	call	_UART1_SetFramingErrorHandler	;wreg free
  1252   002978                     
  1253                           ;mcc_generated_files/uart1.c: 119:     UART1_SetOverrunErrorHandler(UART1_DefaultOverrun
      +                          ErrorHandler);
  1254   002978  0E00               	movlw	0
  1255   00297A  6E59               	movwf	UART1_SetOverrunErrorHandler@interruptHandler^(0+1280),c
  1256   00297C  0E00               	movlw	0
  1257   00297E  6E5A               	movwf	(UART1_SetOverrunErrorHandler@interruptHandler+1)^(0+1280),c
  1258   002980  0E00               	movlw	0
  1259   002982  6E5B               	movwf	(UART1_SetOverrunErrorHandler@interruptHandler+2)^(0+1280),c
  1260   002984  EC3D  F016         	call	_UART1_SetOverrunErrorHandler	;wreg free
  1261   002988                     
  1262                           ;mcc_generated_files/uart1.c: 120:     UART1_SetErrorHandler(UART1_DefaultErrorHandler);
  1263   002988  0E00               	movlw	0
  1264   00298A  6E59               	movwf	UART1_SetErrorHandler@interruptHandler^(0+1280),c
  1265   00298C  0E00               	movlw	0
  1266   00298E  6E5A               	movwf	(UART1_SetErrorHandler@interruptHandler+1)^(0+1280),c
  1267   002990  0E00               	movlw	0
  1268   002992  6E5B               	movwf	(UART1_SetErrorHandler@interruptHandler+2)^(0+1280),c
  1269   002994  EC4B  F016         	call	_UART1_SetErrorHandler	;wreg free
  1270   002998                     
  1271                           ;mcc_generated_files/uart1.c: 122:     uart1RxLastError.status = 0;
  1272   002998  0E00               	movlw	0
  1273   00299A  6E2C               	movwf	_uart1RxLastError^(0+1280),c	;volatile
  1274   00299C  0012               	return		;funcret
  1275   00299E                     __end_of_UART1_Initialize:
  1276                           	callstack 0
  1277                           
  1278 ;; *************** function _UART1_SetOverrunErrorHandler *****************
  1279 ;; Defined at:
  1280 ;;		line 204 in file "mcc_generated_files/uart1.c"
  1281 ;; Parameters:    Size  Location     Type
  1282 ;;  interruptHan    3    2[COMRAM] PTR FTN()void 
  1283 ;;		 -> UART1_DefaultOverrunErrorHandler(1), 
  1284 ;; Auto vars:     Size  Location     Type
  1285 ;;		None
  1286 ;; Return value:  Size  Location     Type
  1287 ;;                  1    wreg      void 
  1288 ;; Registers used:
  1289 ;;		wreg, status,2, status,0
  1290 ;; Tracked objects:
  1291 ;;		On entry : 0/0
  1292 ;;		On exit  : 0/0
  1293 ;;		Unchanged: 0/0
  1294 ;; Data sizes:     COMRAM   BANK5   BANK6   BANK7   BANK8   BANK9  BANK10  BANK11  BANK12  BANK13  BANK14  BANK15  BANK1
      +6  BANK17  BANK18  BANK19  BANK20  BANK21  BANK22  BANK23  BANK24  BANK25  BANK26  BANK27  BANK28  BANK29  BANK30  BANK3
      +1  BANK32  BANK33  BANK34  BANK35  BANK36
  1295 ;;      Params:         3       0       0       0       0       0       0       0       0       0       0       0       
      +0       0       0       0       0       0       0       0       0       0       0       0       0       0       0       
      +0       0       0       0       0       0
  1296 ;;      Locals:         0       0       0       0       0       0       0       0       0       0       0       0       
      +0       0       0       0       0       0       0       0       0       0       0       0       0       0       0       
      +0       0       0       0       0       0
  1297 ;;      Temps:          0       0       0       0       0       0       0       0       0       0       0       0       
      +0       0       0       0       0       0       0       0       0       0       0       0       0       0       0       
      +0       0       0       0       0       0
  1298 ;;      Totals:         3       0       0       0       0       0       0       0       0       0       0       0       
      +0       0       0       0       0       0       0       0       0       0       0       0       0       0       0       
      +0       0       0       0       0       0
  1299 ;;Total ram usage:        3 bytes
  1300 ;; Hardware stack levels used: 1
  1301 ;; Hardware stack levels required when called: 4
  1302 ;; This function calls:
  1303 ;;		Nothing
  1304 ;; This function is called by:
  1305 ;;		_UART1_Initialize
  1306 ;; This function uses a non-reentrant model
  1307 ;;
  1308                           
  1309                           	psect	text7
  1310   002C7A                     __ptext7:
  1311                           	callstack 0
  1312   002C7A                     _UART1_SetOverrunErrorHandler:
  1313                           	callstack 120
  1314   002C7A                     
  1315                           ;mcc_generated_files/uart1.c: 205:     UART1_OverrunErrorHandler = interruptHandler;
  1316   002C7A  C559  F52D         	movff	UART1_SetOverrunErrorHandler@interruptHandler,_UART1_OverrunErrorHandler
  1317   002C7E  C55A  F52E         	movff	UART1_SetOverrunErrorHandler@interruptHandler+1,_UART1_OverrunErrorHandler+1
  1318   002C82  C55B  F52F         	movff	UART1_SetOverrunErrorHandler@interruptHandler+2,_UART1_OverrunErrorHandler+2
  1319   002C86  0012               	return		;funcret
  1320   002C88                     __end_of_UART1_SetOverrunErrorHandler:
  1321                           	callstack 0
  1322                           
  1323 ;; *************** function _UART1_SetFramingErrorHandler *****************
  1324 ;; Defined at:
  1325 ;;		line 200 in file "mcc_generated_files/uart1.c"
  1326 ;; Parameters:    Size  Location     Type
  1327 ;;  interruptHan    3    2[COMRAM] PTR FTN()void 
  1328 ;;		 -> UART1_DefaultFramingErrorHandler(1), 
  1329 ;; Auto vars:     Size  Location     Type
  1330 ;;		None
  1331 ;; Return value:  Size  Location     Type
  1332 ;;                  1    wreg      void 
  1333 ;; Registers used:
  1334 ;;		wreg, status,2, status,0
  1335 ;; Tracked objects:
  1336 ;;		On entry : 0/0
  1337 ;;		On exit  : 0/0
  1338 ;;		Unchanged: 0/0
  1339 ;; Data sizes:     COMRAM   BANK5   BANK6   BANK7   BANK8   BANK9  BANK10  BANK11  BANK12  BANK13  BANK14  BANK15  BANK1
      +6  BANK17  BANK18  BANK19  BANK20  BANK21  BANK22  BANK23  BANK24  BANK25  BANK26  BANK27  BANK28  BANK29  BANK30  BANK3
      +1  BANK32  BANK33  BANK34  BANK35  BANK36
  1340 ;;      Params:         3       0       0       0       0       0       0       0       0       0       0       0       
      +0       0       0       0       0       0       0       0       0       0       0       0       0       0       0       
      +0       0       0       0       0       0
  1341 ;;      Locals:         0       0       0       0       0       0       0       0       0       0       0       0       
      +0       0       0       0       0       0       0       0       0       0       0       0       0       0       0       
      +0       0       0       0       0       0
  1342 ;;      Temps:          0       0       0       0       0       0       0       0       0       0       0       0       
      +0       0       0       0       0       0       0       0       0       0       0       0       0       0       0       
      +0       0       0       0       0       0
  1343 ;;      Totals:         3       0       0       0       0       0       0       0       0       0       0       0       
      +0       0       0       0       0       0       0       0       0       0       0       0       0       0       0       
      +0       0       0       0       0       0
  1344 ;;Total ram usage:        3 bytes
  1345 ;; Hardware stack levels used: 1
  1346 ;; Hardware stack levels required when called: 4
  1347 ;; This function calls:
  1348 ;;		Nothing
  1349 ;; This function is called by:
  1350 ;;		_UART1_Initialize
  1351 ;; This function uses a non-reentrant model
  1352 ;;
  1353                           
  1354                           	psect	text8
  1355   002C88                     __ptext8:
  1356                           	callstack 0
  1357   002C88                     _UART1_SetFramingErrorHandler:
  1358                           	callstack 120
  1359   002C88                     
  1360                           ;mcc_generated_files/uart1.c: 201:     UART1_FramingErrorHandler = interruptHandler;
  1361   002C88  C559  F530         	movff	UART1_SetFramingErrorHandler@interruptHandler,_UART1_FramingErrorHandler
  1362   002C8C  C55A  F531         	movff	UART1_SetFramingErrorHandler@interruptHandler+1,_UART1_FramingErrorHandler+1
  1363   002C90  C55B  F532         	movff	UART1_SetFramingErrorHandler@interruptHandler+2,_UART1_FramingErrorHandler+2
  1364   002C94  0012               	return		;funcret
  1365   002C96                     __end_of_UART1_SetFramingErrorHandler:
  1366                           	callstack 0
  1367                           
  1368 ;; *************** function _UART1_SetErrorHandler *****************
  1369 ;; Defined at:
  1370 ;;		line 208 in file "mcc_generated_files/uart1.c"
  1371 ;; Parameters:    Size  Location     Type
  1372 ;;  interruptHan    3    2[COMRAM] PTR FTN()void 
  1373 ;;		 -> UART1_DefaultErrorHandler(1), 
  1374 ;; Auto vars:     Size  Location     Type
  1375 ;;		None
  1376 ;; Return value:  Size  Location     Type
  1377 ;;                  1    wreg      void 
  1378 ;; Registers used:
  1379 ;;		wreg, status,2, status,0
  1380 ;; Tracked objects:
  1381 ;;		On entry : 0/0
  1382 ;;		On exit  : 0/0
  1383 ;;		Unchanged: 0/0
  1384 ;; Data sizes:     COMRAM   BANK5   BANK6   BANK7   BANK8   BANK9  BANK10  BANK11  BANK12  BANK13  BANK14  BANK15  BANK1
      +6  BANK17  BANK18  BANK19  BANK20  BANK21  BANK22  BANK23  BANK24  BANK25  BANK26  BANK27  BANK28  BANK29  BANK30  BANK3
      +1  BANK32  BANK33  BANK34  BANK35  BANK36
  1385 ;;      Params:         3       0       0       0       0       0       0       0       0       0       0       0       
      +0       0       0       0       0       0       0       0       0       0       0       0       0       0       0       
      +0       0       0       0       0       0
  1386 ;;      Locals:         0       0       0       0       0       0       0       0       0       0       0       0       
      +0       0       0       0       0       0       0       0       0       0       0       0       0       0       0       
      +0       0       0       0       0       0
  1387 ;;      Temps:          0       0       0       0       0       0       0       0       0       0       0       0       
      +0       0       0       0       0       0       0       0       0       0       0       0       0       0       0       
      +0       0       0       0       0       0
  1388 ;;      Totals:         3       0       0       0       0       0       0       0       0       0       0       0       
      +0       0       0       0       0       0       0       0       0       0       0       0       0       0       0       
      +0       0       0       0       0       0
  1389 ;;Total ram usage:        3 bytes
  1390 ;; Hardware stack levels used: 1
  1391 ;; Hardware stack levels required when called: 4
  1392 ;; This function calls:
  1393 ;;		Nothing
  1394 ;; This function is called by:
  1395 ;;		_UART1_Initialize
  1396 ;; This function uses a non-reentrant model
  1397 ;;
  1398                           
  1399                           	psect	text9
  1400   002C96                     __ptext9:
  1401                           	callstack 0
  1402   002C96                     _UART1_SetErrorHandler:
  1403                           	callstack 120
  1404   002C96                     
  1405                           ;mcc_generated_files/uart1.c: 209:     UART1_ErrorHandler = interruptHandler;
  1406   002C96  C559  F569         	movff	UART1_SetErrorHandler@interruptHandler,_UART1_ErrorHandler
  1407   002C9A  C55A  F56A         	movff	UART1_SetErrorHandler@interruptHandler+1,_UART1_ErrorHandler+1
  1408   002C9E  C55B  F56B         	movff	UART1_SetErrorHandler@interruptHandler+2,_UART1_ErrorHandler+2
  1409   002CA2  0012               	return		;funcret
  1410   002CA4                     __end_of_UART1_SetErrorHandler:
  1411                           	callstack 0
  1412                           
  1413 ;; *************** function _TMR0_Initialize *****************
  1414 ;; Defined at:
  1415 ;;		line 60 in file "mcc_generated_files/tmr0.c"
  1416 ;; Parameters:    Size  Location     Type
  1417 ;;		None
  1418 ;; Auto vars:     Size  Location     Type
  1419 ;;		None
  1420 ;; Return value:  Size  Location     Type
  1421 ;;                  1    wreg      void 
  1422 ;; Registers used:
  1423 ;;		wreg, status,2
  1424 ;; Tracked objects:
  1425 ;;		On entry : 0/0
  1426 ;;		On exit  : 0/0
  1427 ;;		Unchanged: 0/0
  1428 ;; Data sizes:     COMRAM   BANK5   BANK6   BANK7   BANK8   BANK9  BANK10  BANK11  BANK12  BANK13  BANK14  BANK15  BANK1
      +6  BANK17  BANK18  BANK19  BANK20  BANK21  BANK22  BANK23  BANK24  BANK25  BANK26  BANK27  BANK28  BANK29  BANK30  BANK3
      +1  BANK32  BANK33  BANK34  BANK35  BANK36
  1429 ;;      Params:         0       0       0       0       0       0       0       0       0       0       0       0       
      +0       0       0       0       0       0       0       0       0       0       0       0       0       0       0       
      +0       0       0       0       0       0
  1430 ;;      Locals:         0       0       0       0       0       0       0       0       0       0       0       0       
      +0       0       0       0       0       0       0       0       0       0       0       0       0       0       0       
      +0       0       0       0       0       0
  1431 ;;      Temps:          0       0       0       0       0       0       0       0       0       0       0       0       
      +0       0       0       0       0       0       0       0       0       0       0       0       0       0       0       
      +0       0       0       0       0       0
  1432 ;;      Totals:         0       0       0       0       0       0       0       0       0       0       0       0       
      +0       0       0       0       0       0       0       0       0       0       0       0       0       0       0       
      +0       0       0       0       0       0
  1433 ;;Total ram usage:        0 bytes
  1434 ;; Hardware stack levels used: 1
  1435 ;; Hardware stack levels required when called: 4
  1436 ;; This function calls:
  1437 ;;		Nothing
  1438 ;; This function is called by:
  1439 ;;		_SYSTEM_Initialize
  1440 ;; This function uses a non-reentrant model
  1441 ;;
  1442                           
  1443                           	psect	text10
  1444   002C3C                     __ptext10:
  1445                           	callstack 0
  1446   002C3C                     _TMR0_Initialize:
  1447                           	callstack 121
  1448   002C3C                     
  1449                           ;mcc_generated_files/tmr0.c: 65:     T0CON1 = 0x00;
  1450   002C3C  0E00               	movlw	0
  1451   002C3E  0103               	movlb	3	; () banked
  1452   002C40  6F1B               	movwf	27,b	;volatile
  1453   002C42                     
  1454                           ; BSR set to: 3
  1455                           ;mcc_generated_files/tmr0.c: 68:     TMR0H = 0xFF;
  1456   002C42  6919               	setf	25,b	;volatile
  1457                           
  1458                           ;mcc_generated_files/tmr0.c: 71:     TMR0L = 0x00;
  1459   002C44  0E00               	movlw	0
  1460   002C46  6F18               	movwf	24,b	;volatile
  1461   002C48                     
  1462                           ; BSR set to: 3
  1463                           ;mcc_generated_files/tmr0.c: 74:     PIR3bits.TMR0IF = 0;
  1464   002C48  9EB1               	bcf	177,7,c	;volatile
  1465                           
  1466                           ;mcc_generated_files/tmr0.c: 77:     T0CON0 = 0x80;
  1467   002C4A  0E80               	movlw	128
  1468   002C4C  6F1A               	movwf	26,b	;volatile
  1469   002C4E                     
  1470                           ; BSR set to: 3
  1471   002C4E  0012               	return		;funcret
  1472   002C50                     __end_of_TMR0_Initialize:
  1473                           	callstack 0
  1474                           
  1475 ;; *************** function _SPI1_Initialize *****************
  1476 ;; Defined at:
  1477 ;;		line 64 in file "mcc_generated_files/spi1.c"
  1478 ;; Parameters:    Size  Location     Type
  1479 ;;		None
  1480 ;; Auto vars:     Size  Location     Type
  1481 ;;		None
  1482 ;; Return value:  Size  Location     Type
  1483 ;;                  1    wreg      void 
  1484 ;; Registers used:
  1485 ;;		wreg, status,2
  1486 ;; Tracked objects:
  1487 ;;		On entry : 0/0
  1488 ;;		On exit  : 0/0
  1489 ;;		Unchanged: 0/0
  1490 ;; Data sizes:     COMRAM   BANK5   BANK6   BANK7   BANK8   BANK9  BANK10  BANK11  BANK12  BANK13  BANK14  BANK15  BANK1
      +6  BANK17  BANK18  BANK19  BANK20  BANK21  BANK22  BANK23  BANK24  BANK25  BANK26  BANK27  BANK28  BANK29  BANK30  BANK3
      +1  BANK32  BANK33  BANK34  BANK35  BANK36
  1491 ;;      Params:         0       0       0       0       0       0       0       0       0       0       0       0       
      +0       0       0       0       0       0       0       0       0       0       0       0       0       0       0       
      +0       0       0       0       0       0
  1492 ;;      Locals:         0       0       0       0       0       0       0       0       0       0       0       0       
      +0       0       0       0       0       0       0       0       0       0       0       0       0       0       0       
      +0       0       0       0       0       0
  1493 ;;      Temps:          0       0       0       0       0       0       0       0       0       0       0       0       
      +0       0       0       0       0       0       0       0       0       0       0       0       0       0       0       
      +0       0       0       0       0       0
  1494 ;;      Totals:         0       0       0       0       0       0       0       0       0       0       0       0       
      +0       0       0       0       0       0       0       0       0       0       0       0       0       0       0       
      +0       0       0       0       0       0
  1495 ;;Total ram usage:        0 bytes
  1496 ;; Hardware stack levels used: 1
  1497 ;; Hardware stack levels required when called: 4
  1498 ;; This function calls:
  1499 ;;		Nothing
  1500 ;; This function is called by:
  1501 ;;		_SYSTEM_Initialize
  1502 ;; This function uses a non-reentrant model
  1503 ;;
  1504                           
  1505                           	psect	text11
  1506   002C22                     __ptext11:
  1507                           	callstack 0
  1508   002C22                     _SPI1_Initialize:
  1509                           	callstack 121
  1510   002C22                     
  1511                           ;mcc_generated_files/spi1.c: 67:     SPI1CON0 = 0x02;
  1512   002C22  0E02               	movlw	2
  1513   002C24  0100               	movlb	0	; () banked
  1514   002C26  6F84               	movwf	132,b	;volatile
  1515                           
  1516                           ;mcc_generated_files/spi1.c: 69:     SPI1CON1 = 0x40;
  1517   002C28  0E40               	movlw	64
  1518   002C2A  6F85               	movwf	133,b	;volatile
  1519                           
  1520                           ;mcc_generated_files/spi1.c: 71:     SPI1CON2 = 0x00;
  1521   002C2C  0E00               	movlw	0
  1522   002C2E  6F86               	movwf	134,b	;volatile
  1523                           
  1524                           ;mcc_generated_files/spi1.c: 73:     SPI1CLK = 0x00;
  1525   002C30  0E00               	movlw	0
  1526   002C32  6F8C               	movwf	140,b	;volatile
  1527                           
  1528                           ;mcc_generated_files/spi1.c: 75:     SPI1BAUD = 0x00;
  1529   002C34  0E00               	movlw	0
  1530   002C36  6F89               	movwf	137,b	;volatile
  1531   002C38                     
  1532                           ; BSR set to: 0
  1533                           ;mcc_generated_files/spi1.c: 76:     TRISCbits.TRISC6 = 0;
  1534   002C38  9CC8               	bcf	200,6,c	;volatile
  1535   002C3A                     
  1536                           ; BSR set to: 0
  1537   002C3A  0012               	return		;funcret
  1538   002C3C                     __end_of_SPI1_Initialize:
  1539                           	callstack 0
  1540                           
  1541 ;; *************** function _PWM3_16BIT_Initialize *****************
  1542 ;; Defined at:
  1543 ;;		line 63 in file "mcc_generated_files/pwm3_16bit.c"
  1544 ;; Parameters:    Size  Location     Type
  1545 ;;		None
  1546 ;; Auto vars:     Size  Location     Type
  1547 ;;		None
  1548 ;; Return value:  Size  Location     Type
  1549 ;;                  1    wreg      void 
  1550 ;; Registers used:
  1551 ;;		wreg, status,2, status,0, cstack
  1552 ;; Tracked objects:
  1553 ;;		On entry : 0/0
  1554 ;;		On exit  : 0/0
  1555 ;;		Unchanged: 0/0
  1556 ;; Data sizes:     COMRAM   BANK5   BANK6   BANK7   BANK8   BANK9  BANK10  BANK11  BANK12  BANK13  BANK14  BANK15  BANK1
      +6  BANK17  BANK18  BANK19  BANK20  BANK21  BANK22  BANK23  BANK24  BANK25  BANK26  BANK27  BANK28  BANK29  BANK30  BANK3
      +1  BANK32  BANK33  BANK34  BANK35  BANK36
  1557 ;;      Params:         0       0       0       0       0       0       0       0       0       0       0       0       
      +0       0       0       0       0       0       0       0       0       0       0       0       0       0       0       
      +0       0       0       0       0       0
  1558 ;;      Locals:         0       0       0       0       0       0       0       0       0       0       0       0       
      +0       0       0       0       0       0       0       0       0       0       0       0       0       0       0       
      +0       0       0       0       0       0
  1559 ;;      Temps:          0       0       0       0       0       0       0       0       0       0       0       0       
      +0       0       0       0       0       0       0       0       0       0       0       0       0       0       0       
      +0       0       0       0       0       0
  1560 ;;      Totals:         0       0       0       0       0       0       0       0       0       0       0       0       
      +0       0       0       0       0       0       0       0       0       0       0       0       0       0       0       
      +0       0       0       0       0       0
  1561 ;;Total ram usage:        0 bytes
  1562 ;; Hardware stack levels used: 1
  1563 ;; Hardware stack levels required when called: 5
  1564 ;; This function calls:
  1565 ;;		_PWM3_16BIT_Period_SetInterruptHandler
  1566 ;;		_PWM3_16BIT_Slice1Output1_SetInterruptHandler
  1567 ;;		_PWM3_16BIT_Slice1Output2_SetInterruptHandler
  1568 ;; This function is called by:
  1569 ;;		_SYSTEM_Initialize
  1570 ;; This function uses a non-reentrant model
  1571 ;;
  1572                           
  1573                           	psect	text12
  1574   0027BC                     __ptext12:
  1575                           	callstack 0
  1576   0027BC                     _PWM3_16BIT_Initialize:
  1577                           	callstack 120
  1578   0027BC                     
  1579                           ;mcc_generated_files/pwm3_16bit.c: 66:     PWM3ERS = 0x00;
  1580   0027BC  0E00               	movlw	0
  1581   0027BE  6E7E               	movwf	126,c	;volatile
  1582                           
  1583                           ;mcc_generated_files/pwm3_16bit.c: 69:     PWM3CLK = 0x02;
  1584   0027C0  0E02               	movlw	2
  1585   0027C2  6E7F               	movwf	127,c	;volatile
  1586                           
  1587                           ;mcc_generated_files/pwm3_16bit.c: 72:     PWM3LDS = 0x00;
  1588   0027C4  0E00               	movlw	0
  1589   0027C6  6E80               	movwf	128,c	;volatile
  1590                           
  1591                           ;mcc_generated_files/pwm3_16bit.c: 75:     PWM3PRL = 0xE7;
  1592   0027C8  0EE7               	movlw	231
  1593   0027CA  6E81               	movwf	129,c	;volatile
  1594                           
  1595                           ;mcc_generated_files/pwm3_16bit.c: 78:     PWM3PRH = 0x03;
  1596   0027CC  0E03               	movlw	3
  1597   0027CE  6E82               	movwf	130,c	;volatile
  1598                           
  1599                           ;mcc_generated_files/pwm3_16bit.c: 81:     PWM3CPRE = 0x00;
  1600   0027D0  0E00               	movlw	0
  1601   0027D2  6E83               	movwf	131,c	;volatile
  1602                           
  1603                           ;mcc_generated_files/pwm3_16bit.c: 84:     PWM3PIPOS = 0x00;
  1604   0027D4  0E00               	movlw	0
  1605   0027D6  6E84               	movwf	132,c	;volatile
  1606                           
  1607                           ;mcc_generated_files/pwm3_16bit.c: 87:     PWM3GIR = 0x00;
  1608   0027D8  0E00               	movlw	0
  1609   0027DA  6E85               	movwf	133,c	;volatile
  1610                           
  1611                           ;mcc_generated_files/pwm3_16bit.c: 90:     PWM3GIE = 0x00;
  1612   0027DC  0E00               	movlw	0
  1613   0027DE  6E86               	movwf	134,c	;volatile
  1614                           
  1615                           ;mcc_generated_files/pwm3_16bit.c: 93:     PWM3S1CFG = 0x00;
  1616   0027E0  0E00               	movlw	0
  1617   0027E2  6E88               	movwf	136,c	;volatile
  1618                           
  1619                           ;mcc_generated_files/pwm3_16bit.c: 96:     PWM3S1P1L = 0xF4;
  1620   0027E4  0EF4               	movlw	244
  1621   0027E6  6E89               	movwf	137,c	;volatile
  1622                           
  1623                           ;mcc_generated_files/pwm3_16bit.c: 99:     PWM3S1P1H = 0x01;
  1624   0027E8  0E01               	movlw	1
  1625   0027EA  6E8A               	movwf	138,c	;volatile
  1626                           
  1627                           ;mcc_generated_files/pwm3_16bit.c: 102:     PWM3S1P2L = 0xF4;
  1628   0027EC  0EF4               	movlw	244
  1629   0027EE  6E8B               	movwf	139,c	;volatile
  1630                           
  1631                           ;mcc_generated_files/pwm3_16bit.c: 105:     PWM3S1P2H = 0x01;
  1632   0027F0  0E01               	movlw	1
  1633   0027F2  6E8C               	movwf	140,c	;volatile
  1634   0027F4                     
  1635                           ;mcc_generated_files/pwm3_16bit.c: 108:     PIR7bits.PWM3PIF = 0;
  1636   0027F4  9CB5               	bcf	181,6,c	;volatile
  1637   0027F6                     
  1638                           ;mcc_generated_files/pwm3_16bit.c: 111:     PIR7bits.PWM3IF = 0;
  1639   0027F6  9EB5               	bcf	181,7,c	;volatile
  1640   0027F8                     
  1641                           ;mcc_generated_files/pwm3_16bit.c: 114:     PWM3GIRbits.S1P1IF = 0;
  1642   0027F8  9085               	bcf	133,0,c	;volatile
  1643   0027FA                     
  1644                           ;mcc_generated_files/pwm3_16bit.c: 117:     PWM3GIRbits.S1P2IF = 0;
  1645   0027FA  9285               	bcf	133,1,c	;volatile
  1646   0027FC                     
  1647                           ;mcc_generated_files/pwm3_16bit.c: 120:     PIE7bits.PWM3IE = 0;
  1648   0027FC  9EA5               	bcf	165,7,c	;volatile
  1649   0027FE                     
  1650                           ;mcc_generated_files/pwm3_16bit.c: 123:     PIE7bits.PWM3PIE = 0;
  1651   0027FE  9CA5               	bcf	165,6,c	;volatile
  1652   002800                     
  1653                           ;mcc_generated_files/pwm3_16bit.c: 126:     PWM3_16BIT_Slice1Output1_SetInterruptHandler
      +                          (PWM3_16BIT_Slice1Output1_DefaultInterruptHandler);
  1654   002800  0E00               	movlw	0
  1655   002802  6E59               	movwf	PWM3_16BIT_Slice1Output1_SetInterruptHandler@InterruptHandler^(0+1280),c
  1656   002804  0E00               	movlw	0
  1657   002806  6E5A               	movwf	(PWM3_16BIT_Slice1Output1_SetInterruptHandler@InterruptHandler+1)^(0+1280),c
  1658   002808  0E00               	movlw	0
  1659   00280A  6E5B               	movwf	(PWM3_16BIT_Slice1Output1_SetInterruptHandler@InterruptHandler+2)^(0+1280),c
  1660   00280C  EC59  F016         	call	_PWM3_16BIT_Slice1Output1_SetInterruptHandler	;wreg free
  1661   002810                     
  1662                           ;mcc_generated_files/pwm3_16bit.c: 127:     PWM3_16BIT_Slice1Output2_SetInterruptHandler
      +                          (PWM3_16BIT_Slice1Output2_DefaultInterruptHandler);
  1663   002810  0E00               	movlw	0
  1664   002812  6E59               	movwf	PWM3_16BIT_Slice1Output2_SetInterruptHandler@InterruptHandler^(0+1280),c
  1665   002814  0E00               	movlw	0
  1666   002816  6E5A               	movwf	(PWM3_16BIT_Slice1Output2_SetInterruptHandler@InterruptHandler+1)^(0+1280),c
  1667   002818  0E00               	movlw	0
  1668   00281A  6E5B               	movwf	(PWM3_16BIT_Slice1Output2_SetInterruptHandler@InterruptHandler+2)^(0+1280),c
  1669   00281C  EC52  F016         	call	_PWM3_16BIT_Slice1Output2_SetInterruptHandler	;wreg free
  1670   002820                     
  1671                           ;mcc_generated_files/pwm3_16bit.c: 128:     PWM3_16BIT_Period_SetInterruptHandler(PWM3_1
      +                          6BIT_Period_DefaultInterruptHandler);
  1672   002820  0E00               	movlw	0
  1673   002822  6E59               	movwf	PWM3_16BIT_Period_SetInterruptHandler@InterruptHandler^(0+1280),c
  1674   002824  0E00               	movlw	0
  1675   002826  6E5A               	movwf	(PWM3_16BIT_Period_SetInterruptHandler@InterruptHandler+1)^(0+1280),c
  1676   002828  0E00               	movlw	0
  1677   00282A  6E5B               	movwf	(PWM3_16BIT_Period_SetInterruptHandler@InterruptHandler+2)^(0+1280),c
  1678   00282C  EC60  F016         	call	_PWM3_16BIT_Period_SetInterruptHandler	;wreg free
  1679   002830                     
  1680                           ;mcc_generated_files/pwm3_16bit.c: 131:     PWM3CON = 0x80;
  1681   002830  0E80               	movlw	128
  1682   002832  6E87               	movwf	135,c	;volatile
  1683   002834  0012               	return		;funcret
  1684   002836                     __end_of_PWM3_16BIT_Initialize:
  1685                           	callstack 0
  1686                           
  1687 ;; *************** function _PWM3_16BIT_Slice1Output2_SetInterruptHandler *****************
  1688 ;; Defined at:
  1689 ;;		line 197 in file "mcc_generated_files/pwm3_16bit.c"
  1690 ;; Parameters:    Size  Location     Type
  1691 ;;  InterruptHan    3    2[COMRAM] PTR FTN()void 
  1692 ;;		 -> PWM3_16BIT_Slice1Output2_DefaultInterruptHandler(1), 
  1693 ;; Auto vars:     Size  Location     Type
  1694 ;;		None
  1695 ;; Return value:  Size  Location     Type
  1696 ;;                  1    wreg      void 
  1697 ;; Registers used:
  1698 ;;		wreg, status,2, status,0
  1699 ;; Tracked objects:
  1700 ;;		On entry : 0/0
  1701 ;;		On exit  : 0/0
  1702 ;;		Unchanged: 0/0
  1703 ;; Data sizes:     COMRAM   BANK5   BANK6   BANK7   BANK8   BANK9  BANK10  BANK11  BANK12  BANK13  BANK14  BANK15  BANK1
      +6  BANK17  BANK18  BANK19  BANK20  BANK21  BANK22  BANK23  BANK24  BANK25  BANK26  BANK27  BANK28  BANK29  BANK30  BANK3
      +1  BANK32  BANK33  BANK34  BANK35  BANK36
  1704 ;;      Params:         3       0       0       0       0       0       0       0       0       0       0       0       
      +0       0       0       0       0       0       0       0       0       0       0       0       0       0       0       
      +0       0       0       0       0       0
  1705 ;;      Locals:         0       0       0       0       0       0       0       0       0       0       0       0       
      +0       0       0       0       0       0       0       0       0       0       0       0       0       0       0       
      +0       0       0       0       0       0
  1706 ;;      Temps:          0       0       0       0       0       0       0       0       0       0       0       0       
      +0       0       0       0       0       0       0       0       0       0       0       0       0       0       0       
      +0       0       0       0       0       0
  1707 ;;      Totals:         3       0       0       0       0       0       0       0       0       0       0       0       
      +0       0       0       0       0       0       0       0       0       0       0       0       0       0       0       
      +0       0       0       0       0       0
  1708 ;;Total ram usage:        3 bytes
  1709 ;; Hardware stack levels used: 1
  1710 ;; Hardware stack levels required when called: 4
  1711 ;; This function calls:
  1712 ;;		Nothing
  1713 ;; This function is called by:
  1714 ;;		_PWM3_16BIT_Initialize
  1715 ;; This function uses a non-reentrant model
  1716 ;;
  1717                           
  1718                           	psect	text13
  1719   002CA4                     __ptext13:
  1720                           	callstack 0
  1721   002CA4                     _PWM3_16BIT_Slice1Output2_SetInterruptHandler:
  1722                           	callstack 120
  1723   002CA4                     
  1724                           ;mcc_generated_files/pwm3_16bit.c: 197: void PWM3_16BIT_Slice1Output2_SetInterruptHandle
      +                          r(void (* InterruptHandler)(void));mcc_generated_files/pwm3_16bit.c: 198: {;mcc_generate
      +                          d_files/pwm3_16bit.c: 199:     PWM3_16BIT_Slice1Output2_InterruptHandler = InterruptHand
      +                          ler;
  1725   002CA4  C559  F53F         	movff	PWM3_16BIT_Slice1Output2_SetInterruptHandler@InterruptHandler,_PWM3_16BIT_Slice1O
      +                          utput2_InterruptHandler
  1726   002CA8  C55A  F540         	movff	PWM3_16BIT_Slice1Output2_SetInterruptHandler@InterruptHandler+1,_PWM3_16BIT_Slice
      +                          1Output2_InterruptHandler+1
  1727   002CAC  C55B  F541         	movff	PWM3_16BIT_Slice1Output2_SetInterruptHandler@InterruptHandler+2,_PWM3_16BIT_Slice
      +                          1Output2_InterruptHandler+2
  1728   002CB0  0012               	return		;funcret
  1729   002CB2                     __end_of_PWM3_16BIT_Slice1Output2_SetInterruptHandler:
  1730                           	callstack 0
  1731                           
  1732 ;; *************** function _PWM3_16BIT_Slice1Output1_SetInterruptHandler *****************
  1733 ;; Defined at:
  1734 ;;		line 192 in file "mcc_generated_files/pwm3_16bit.c"
  1735 ;; Parameters:    Size  Location     Type
  1736 ;;  InterruptHan    3    2[COMRAM] PTR FTN()void 
  1737 ;;		 -> PWM3_16BIT_Slice1Output1_DefaultInterruptHandler(1), 
  1738 ;; Auto vars:     Size  Location     Type
  1739 ;;		None
  1740 ;; Return value:  Size  Location     Type
  1741 ;;                  1    wreg      void 
  1742 ;; Registers used:
  1743 ;;		wreg, status,2, status,0
  1744 ;; Tracked objects:
  1745 ;;		On entry : 0/0
  1746 ;;		On exit  : 0/0
  1747 ;;		Unchanged: 0/0
  1748 ;; Data sizes:     COMRAM   BANK5   BANK6   BANK7   BANK8   BANK9  BANK10  BANK11  BANK12  BANK13  BANK14  BANK15  BANK1
      +6  BANK17  BANK18  BANK19  BANK20  BANK21  BANK22  BANK23  BANK24  BANK25  BANK26  BANK27  BANK28  BANK29  BANK30  BANK3
      +1  BANK32  BANK33  BANK34  BANK35  BANK36
  1749 ;;      Params:         3       0       0       0       0       0       0       0       0       0       0       0       
      +0       0       0       0       0       0       0       0       0       0       0       0       0       0       0       
      +0       0       0       0       0       0
  1750 ;;      Locals:         0       0       0       0       0       0       0       0       0       0       0       0       
      +0       0       0       0       0       0       0       0       0       0       0       0       0       0       0       
      +0       0       0       0       0       0
  1751 ;;      Temps:          0       0       0       0       0       0       0       0       0       0       0       0       
      +0       0       0       0       0       0       0       0       0       0       0       0       0       0       0       
      +0       0       0       0       0       0
  1752 ;;      Totals:         3       0       0       0       0       0       0       0       0       0       0       0       
      +0       0       0       0       0       0       0       0       0       0       0       0       0       0       0       
      +0       0       0       0       0       0
  1753 ;;Total ram usage:        3 bytes
  1754 ;; Hardware stack levels used: 1
  1755 ;; Hardware stack levels required when called: 4
  1756 ;; This function calls:
  1757 ;;		Nothing
  1758 ;; This function is called by:
  1759 ;;		_PWM3_16BIT_Initialize
  1760 ;; This function uses a non-reentrant model
  1761 ;;
  1762                           
  1763                           	psect	text14
  1764   002CB2                     __ptext14:
  1765                           	callstack 0
  1766   002CB2                     _PWM3_16BIT_Slice1Output1_SetInterruptHandler:
  1767                           	callstack 120
  1768   002CB2                     
  1769                           ;mcc_generated_files/pwm3_16bit.c: 192: void PWM3_16BIT_Slice1Output1_SetInterruptHandle
      +                          r(void (* InterruptHandler)(void));mcc_generated_files/pwm3_16bit.c: 193: {;mcc_generate
      +                          d_files/pwm3_16bit.c: 194:     PWM3_16BIT_Slice1Output1_InterruptHandler = InterruptHand
      +                          ler;
  1770   002CB2  C559  F542         	movff	PWM3_16BIT_Slice1Output1_SetInterruptHandler@InterruptHandler,_PWM3_16BIT_Slice1O
      +                          utput1_InterruptHandler
  1771   002CB6  C55A  F543         	movff	PWM3_16BIT_Slice1Output1_SetInterruptHandler@InterruptHandler+1,_PWM3_16BIT_Slice
      +                          1Output1_InterruptHandler+1
  1772   002CBA  C55B  F544         	movff	PWM3_16BIT_Slice1Output1_SetInterruptHandler@InterruptHandler+2,_PWM3_16BIT_Slice
      +                          1Output1_InterruptHandler+2
  1773   002CBE  0012               	return		;funcret
  1774   002CC0                     __end_of_PWM3_16BIT_Slice1Output1_SetInterruptHandler:
  1775                           	callstack 0
  1776                           
  1777 ;; *************** function _PWM3_16BIT_Period_SetInterruptHandler *****************
  1778 ;; Defined at:
  1779 ;;		line 202 in file "mcc_generated_files/pwm3_16bit.c"
  1780 ;; Parameters:    Size  Location     Type
  1781 ;;  InterruptHan    3    2[COMRAM] PTR FTN()void 
  1782 ;;		 -> PWM3_16BIT_Period_DefaultInterruptHandler(1), 
  1783 ;; Auto vars:     Size  Location     Type
  1784 ;;		None
  1785 ;; Return value:  Size  Location     Type
  1786 ;;                  1    wreg      void 
  1787 ;; Registers used:
  1788 ;;		wreg, status,2, status,0
  1789 ;; Tracked objects:
  1790 ;;		On entry : 0/0
  1791 ;;		On exit  : 0/0
  1792 ;;		Unchanged: 0/0
  1793 ;; Data sizes:     COMRAM   BANK5   BANK6   BANK7   BANK8   BANK9  BANK10  BANK11  BANK12  BANK13  BANK14  BANK15  BANK1
      +6  BANK17  BANK18  BANK19  BANK20  BANK21  BANK22  BANK23  BANK24  BANK25  BANK26  BANK27  BANK28  BANK29  BANK30  BANK3
      +1  BANK32  BANK33  BANK34  BANK35  BANK36
  1794 ;;      Params:         3       0       0       0       0       0       0       0       0       0       0       0       
      +0       0       0       0       0       0       0       0       0       0       0       0       0       0       0       
      +0       0       0       0       0       0
  1795 ;;      Locals:         0       0       0       0       0       0       0       0       0       0       0       0       
      +0       0       0       0       0       0       0       0       0       0       0       0       0       0       0       
      +0       0       0       0       0       0
  1796 ;;      Temps:          0       0       0       0       0       0       0       0       0       0       0       0       
      +0       0       0       0       0       0       0       0       0       0       0       0       0       0       0       
      +0       0       0       0       0       0
  1797 ;;      Totals:         3       0       0       0       0       0       0       0       0       0       0       0       
      +0       0       0       0       0       0       0       0       0       0       0       0       0       0       0       
      +0       0       0       0       0       0
  1798 ;;Total ram usage:        3 bytes
  1799 ;; Hardware stack levels used: 1
  1800 ;; Hardware stack levels required when called: 4
  1801 ;; This function calls:
  1802 ;;		Nothing
  1803 ;; This function is called by:
  1804 ;;		_PWM3_16BIT_Initialize
  1805 ;; This function uses a non-reentrant model
  1806 ;;
  1807                           
  1808                           	psect	text15
  1809   002CC0                     __ptext15:
  1810                           	callstack 0
  1811   002CC0                     _PWM3_16BIT_Period_SetInterruptHandler:
  1812                           	callstack 120
  1813   002CC0                     
  1814                           ;mcc_generated_files/pwm3_16bit.c: 202: void PWM3_16BIT_Period_SetInterruptHandler(void 
      +                          (* InterruptHandler)(void));mcc_generated_files/pwm3_16bit.c: 203: {;mcc_generated_files
      +                          /pwm3_16bit.c: 204:     PWM3_16BIT_Period_InterruptHandler = InterruptHandler;
  1815   002CC0  C559  F53C         	movff	PWM3_16BIT_Period_SetInterruptHandler@InterruptHandler,_PWM3_16BIT_Period_Interru
      +                          ptHandler
  1816   002CC4  C55A  F53D         	movff	PWM3_16BIT_Period_SetInterruptHandler@InterruptHandler+1,_PWM3_16BIT_Period_Inter
      +                          ruptHandler+1
  1817   002CC8  C55B  F53E         	movff	PWM3_16BIT_Period_SetInterruptHandler@InterruptHandler+2,_PWM3_16BIT_Period_Inter
      +                          ruptHandler+2
  1818   002CCC  0012               	return		;funcret
  1819   002CCE                     __end_of_PWM3_16BIT_Period_SetInterruptHandler:
  1820                           	callstack 0
  1821                           
  1822 ;; *************** function _PWM2_16BIT_Initialize *****************
  1823 ;; Defined at:
  1824 ;;		line 63 in file "mcc_generated_files/pwm2_16bit.c"
  1825 ;; Parameters:    Size  Location     Type
  1826 ;;		None
  1827 ;; Auto vars:     Size  Location     Type
  1828 ;;		None
  1829 ;; Return value:  Size  Location     Type
  1830 ;;                  1    wreg      void 
  1831 ;; Registers used:
  1832 ;;		wreg, status,2, status,0, cstack
  1833 ;; Tracked objects:
  1834 ;;		On entry : 0/0
  1835 ;;		On exit  : 0/0
  1836 ;;		Unchanged: 0/0
  1837 ;; Data sizes:     COMRAM   BANK5   BANK6   BANK7   BANK8   BANK9  BANK10  BANK11  BANK12  BANK13  BANK14  BANK15  BANK1
      +6  BANK17  BANK18  BANK19  BANK20  BANK21  BANK22  BANK23  BANK24  BANK25  BANK26  BANK27  BANK28  BANK29  BANK30  BANK3
      +1  BANK32  BANK33  BANK34  BANK35  BANK36
  1838 ;;      Params:         0       0       0       0       0       0       0       0       0       0       0       0       
      +0       0       0       0       0       0       0       0       0       0       0       0       0       0       0       
      +0       0       0       0       0       0
  1839 ;;      Locals:         0       0       0       0       0       0       0       0       0       0       0       0       
      +0       0       0       0       0       0       0       0       0       0       0       0       0       0       0       
      +0       0       0       0       0       0
  1840 ;;      Temps:          0       0       0       0       0       0       0       0       0       0       0       0       
      +0       0       0       0       0       0       0       0       0       0       0       0       0       0       0       
      +0       0       0       0       0       0
  1841 ;;      Totals:         0       0       0       0       0       0       0       0       0       0       0       0       
      +0       0       0       0       0       0       0       0       0       0       0       0       0       0       0       
      +0       0       0       0       0       0
  1842 ;;Total ram usage:        0 bytes
  1843 ;; Hardware stack levels used: 1
  1844 ;; Hardware stack levels required when called: 5
  1845 ;; This function calls:
  1846 ;;		_PWM2_16BIT_Period_SetInterruptHandler
  1847 ;;		_PWM2_16BIT_Slice1Output1_SetInterruptHandler
  1848 ;;		_PWM2_16BIT_Slice1Output2_SetInterruptHandler
  1849 ;; This function is called by:
  1850 ;;		_SYSTEM_Initialize
  1851 ;; This function uses a non-reentrant model
  1852 ;;
  1853                           
  1854                           	psect	text16
  1855   002836                     __ptext16:
  1856                           	callstack 0
  1857   002836                     _PWM2_16BIT_Initialize:
  1858                           	callstack 120
  1859   002836                     
  1860                           ;mcc_generated_files/pwm2_16bit.c: 66:     PWM2ERS = 0x00;
  1861   002836  0E00               	movlw	0
  1862   002838  6E6F               	movwf	111,c	;volatile
  1863                           
  1864                           ;mcc_generated_files/pwm2_16bit.c: 69:     PWM2CLK = 0x02;
  1865   00283A  0E02               	movlw	2
  1866   00283C  6E70               	movwf	112,c	;volatile
  1867                           
  1868                           ;mcc_generated_files/pwm2_16bit.c: 72:     PWM2LDS = 0x00;
  1869   00283E  0E00               	movlw	0
  1870   002840  6E71               	movwf	113,c	;volatile
  1871                           
  1872                           ;mcc_generated_files/pwm2_16bit.c: 75:     PWM2PRL = 0xE7;
  1873   002842  0EE7               	movlw	231
  1874   002844  6E72               	movwf	114,c	;volatile
  1875                           
  1876                           ;mcc_generated_files/pwm2_16bit.c: 78:     PWM2PRH = 0x03;
  1877   002846  0E03               	movlw	3
  1878   002848  6E73               	movwf	115,c	;volatile
  1879                           
  1880                           ;mcc_generated_files/pwm2_16bit.c: 81:     PWM2CPRE = 0x00;
  1881   00284A  0E00               	movlw	0
  1882   00284C  6E74               	movwf	116,c	;volatile
  1883                           
  1884                           ;mcc_generated_files/pwm2_16bit.c: 84:     PWM2PIPOS = 0x00;
  1885   00284E  0E00               	movlw	0
  1886   002850  6E75               	movwf	117,c	;volatile
  1887                           
  1888                           ;mcc_generated_files/pwm2_16bit.c: 87:     PWM2GIR = 0x00;
  1889   002852  0E00               	movlw	0
  1890   002854  6E76               	movwf	118,c	;volatile
  1891                           
  1892                           ;mcc_generated_files/pwm2_16bit.c: 90:     PWM2GIE = 0x00;
  1893   002856  0E00               	movlw	0
  1894   002858  6E77               	movwf	119,c	;volatile
  1895                           
  1896                           ;mcc_generated_files/pwm2_16bit.c: 93:     PWM2S1CFG = 0x00;
  1897   00285A  0E00               	movlw	0
  1898   00285C  6E79               	movwf	121,c	;volatile
  1899                           
  1900                           ;mcc_generated_files/pwm2_16bit.c: 96:     PWM2S1P1L = 0xF4;
  1901   00285E  0EF4               	movlw	244
  1902   002860  6E7A               	movwf	122,c	;volatile
  1903                           
  1904                           ;mcc_generated_files/pwm2_16bit.c: 99:     PWM2S1P1H = 0x01;
  1905   002862  0E01               	movlw	1
  1906   002864  6E7B               	movwf	123,c	;volatile
  1907                           
  1908                           ;mcc_generated_files/pwm2_16bit.c: 102:     PWM2S1P2L = 0xF4;
  1909   002866  0EF4               	movlw	244
  1910   002868  6E7C               	movwf	124,c	;volatile
  1911                           
  1912                           ;mcc_generated_files/pwm2_16bit.c: 105:     PWM2S1P2H = 0x01;
  1913   00286A  0E01               	movlw	1
  1914   00286C  6E7D               	movwf	125,c	;volatile
  1915   00286E                     
  1916                           ;mcc_generated_files/pwm2_16bit.c: 108:     PIR5bits.PWM2PIF = 0;
  1917   00286E  9CB3               	bcf	179,6,c	;volatile
  1918   002870                     
  1919                           ;mcc_generated_files/pwm2_16bit.c: 111:     PIR5bits.PWM2IF = 0;
  1920   002870  9EB3               	bcf	179,7,c	;volatile
  1921   002872                     
  1922                           ;mcc_generated_files/pwm2_16bit.c: 114:     PWM2GIRbits.S1P1IF = 0;
  1923   002872  9076               	bcf	118,0,c	;volatile
  1924   002874                     
  1925                           ;mcc_generated_files/pwm2_16bit.c: 117:     PWM2GIRbits.S1P2IF = 0;
  1926   002874  9276               	bcf	118,1,c	;volatile
  1927   002876                     
  1928                           ;mcc_generated_files/pwm2_16bit.c: 120:     PIE5bits.PWM2IE = 0;
  1929   002876  9EA3               	bcf	163,7,c	;volatile
  1930   002878                     
  1931                           ;mcc_generated_files/pwm2_16bit.c: 123:     PIE5bits.PWM2PIE = 0;
  1932   002878  9CA3               	bcf	163,6,c	;volatile
  1933   00287A                     
  1934                           ;mcc_generated_files/pwm2_16bit.c: 126:     PWM2_16BIT_Slice1Output1_SetInterruptHandler
      +                          (PWM2_16BIT_Slice1Output1_DefaultInterruptHandler);
  1935   00287A  0E00               	movlw	0
  1936   00287C  6E59               	movwf	PWM2_16BIT_Slice1Output1_SetInterruptHandler@InterruptHandler^(0+1280),c
  1937   00287E  0E00               	movlw	0
  1938   002880  6E5A               	movwf	(PWM2_16BIT_Slice1Output1_SetInterruptHandler@InterruptHandler+1)^(0+1280),c
  1939   002882  0E00               	movlw	0
  1940   002884  6E5B               	movwf	(PWM2_16BIT_Slice1Output1_SetInterruptHandler@InterruptHandler+2)^(0+1280),c
  1941   002886  EC6E  F016         	call	_PWM2_16BIT_Slice1Output1_SetInterruptHandler	;wreg free
  1942   00288A                     
  1943                           ;mcc_generated_files/pwm2_16bit.c: 127:     PWM2_16BIT_Slice1Output2_SetInterruptHandler
      +                          (PWM2_16BIT_Slice1Output2_DefaultInterruptHandler);
  1944   00288A  0E00               	movlw	0
  1945   00288C  6E59               	movwf	PWM2_16BIT_Slice1Output2_SetInterruptHandler@InterruptHandler^(0+1280),c
  1946   00288E  0E00               	movlw	0
  1947   002890  6E5A               	movwf	(PWM2_16BIT_Slice1Output2_SetInterruptHandler@InterruptHandler+1)^(0+1280),c
  1948   002892  0E00               	movlw	0
  1949   002894  6E5B               	movwf	(PWM2_16BIT_Slice1Output2_SetInterruptHandler@InterruptHandler+2)^(0+1280),c
  1950   002896  EC67  F016         	call	_PWM2_16BIT_Slice1Output2_SetInterruptHandler	;wreg free
  1951   00289A                     
  1952                           ;mcc_generated_files/pwm2_16bit.c: 128:     PWM2_16BIT_Period_SetInterruptHandler(PWM2_1
      +                          6BIT_Period_DefaultInterruptHandler);
  1953   00289A  0E00               	movlw	0
  1954   00289C  6E59               	movwf	PWM2_16BIT_Period_SetInterruptHandler@InterruptHandler^(0+1280),c
  1955   00289E  0E00               	movlw	0
  1956   0028A0  6E5A               	movwf	(PWM2_16BIT_Period_SetInterruptHandler@InterruptHandler+1)^(0+1280),c
  1957   0028A2  0E00               	movlw	0
  1958   0028A4  6E5B               	movwf	(PWM2_16BIT_Period_SetInterruptHandler@InterruptHandler+2)^(0+1280),c
  1959   0028A6  EC75  F016         	call	_PWM2_16BIT_Period_SetInterruptHandler	;wreg free
  1960   0028AA                     
  1961                           ;mcc_generated_files/pwm2_16bit.c: 131:     PWM2CON = 0x80;
  1962   0028AA  0E80               	movlw	128
  1963   0028AC  6E78               	movwf	120,c	;volatile
  1964   0028AE  0012               	return		;funcret
  1965   0028B0                     __end_of_PWM2_16BIT_Initialize:
  1966                           	callstack 0
  1967                           
  1968 ;; *************** function _PWM2_16BIT_Slice1Output2_SetInterruptHandler *****************
  1969 ;; Defined at:
  1970 ;;		line 197 in file "mcc_generated_files/pwm2_16bit.c"
  1971 ;; Parameters:    Size  Location     Type
  1972 ;;  InterruptHan    3    2[COMRAM] PTR FTN()void 
  1973 ;;		 -> PWM2_16BIT_Slice1Output2_DefaultInterruptHandler(1), 
  1974 ;; Auto vars:     Size  Location     Type
  1975 ;;		None
  1976 ;; Return value:  Size  Location     Type
  1977 ;;                  1    wreg      void 
  1978 ;; Registers used:
  1979 ;;		wreg, status,2, status,0
  1980 ;; Tracked objects:
  1981 ;;		On entry : 0/0
  1982 ;;		On exit  : 0/0
  1983 ;;		Unchanged: 0/0
  1984 ;; Data sizes:     COMRAM   BANK5   BANK6   BANK7   BANK8   BANK9  BANK10  BANK11  BANK12  BANK13  BANK14  BANK15  BANK1
      +6  BANK17  BANK18  BANK19  BANK20  BANK21  BANK22  BANK23  BANK24  BANK25  BANK26  BANK27  BANK28  BANK29  BANK30  BANK3
      +1  BANK32  BANK33  BANK34  BANK35  BANK36
  1985 ;;      Params:         3       0       0       0       0       0       0       0       0       0       0       0       
      +0       0       0       0       0       0       0       0       0       0       0       0       0       0       0       
      +0       0       0       0       0       0
  1986 ;;      Locals:         0       0       0       0       0       0       0       0       0       0       0       0       
      +0       0       0       0       0       0       0       0       0       0       0       0       0       0       0       
      +0       0       0       0       0       0
  1987 ;;      Temps:          0       0       0       0       0       0       0       0       0       0       0       0       
      +0       0       0       0       0       0       0       0       0       0       0       0       0       0       0       
      +0       0       0       0       0       0
  1988 ;;      Totals:         3       0       0       0       0       0       0       0       0       0       0       0       
      +0       0       0       0       0       0       0       0       0       0       0       0       0       0       0       
      +0       0       0       0       0       0
  1989 ;;Total ram usage:        3 bytes
  1990 ;; Hardware stack levels used: 1
  1991 ;; Hardware stack levels required when called: 4
  1992 ;; This function calls:
  1993 ;;		Nothing
  1994 ;; This function is called by:
  1995 ;;		_PWM2_16BIT_Initialize
  1996 ;; This function uses a non-reentrant model
  1997 ;;
  1998                           
  1999                           	psect	text17
  2000   002CCE                     __ptext17:
  2001                           	callstack 0
  2002   002CCE                     _PWM2_16BIT_Slice1Output2_SetInterruptHandler:
  2003                           	callstack 120
  2004   002CCE                     
  2005                           ;mcc_generated_files/pwm2_16bit.c: 197: void PWM2_16BIT_Slice1Output2_SetInterruptHandle
      +                          r(void (* InterruptHandler)(void));mcc_generated_files/pwm2_16bit.c: 198: {;mcc_generate
      +                          d_files/pwm2_16bit.c: 199:     PWM2_16BIT_Slice1Output2_InterruptHandler = InterruptHand
      +                          ler;
  2006   002CCE  C559  F536         	movff	PWM2_16BIT_Slice1Output2_SetInterruptHandler@InterruptHandler,_PWM2_16BIT_Slice1O
      +                          utput2_InterruptHandler
  2007   002CD2  C55A  F537         	movff	PWM2_16BIT_Slice1Output2_SetInterruptHandler@InterruptHandler+1,_PWM2_16BIT_Slice
      +                          1Output2_InterruptHandler+1
  2008   002CD6  C55B  F538         	movff	PWM2_16BIT_Slice1Output2_SetInterruptHandler@InterruptHandler+2,_PWM2_16BIT_Slice
      +                          1Output2_InterruptHandler+2
  2009   002CDA  0012               	return		;funcret
  2010   002CDC                     __end_of_PWM2_16BIT_Slice1Output2_SetInterruptHandler:
  2011                           	callstack 0
  2012                           
  2013 ;; *************** function _PWM2_16BIT_Slice1Output1_SetInterruptHandler *****************
  2014 ;; Defined at:
  2015 ;;		line 192 in file "mcc_generated_files/pwm2_16bit.c"
  2016 ;; Parameters:    Size  Location     Type
  2017 ;;  InterruptHan    3    2[COMRAM] PTR FTN()void 
  2018 ;;		 -> PWM2_16BIT_Slice1Output1_DefaultInterruptHandler(1), 
  2019 ;; Auto vars:     Size  Location     Type
  2020 ;;		None
  2021 ;; Return value:  Size  Location     Type
  2022 ;;                  1    wreg      void 
  2023 ;; Registers used:
  2024 ;;		wreg, status,2, status,0
  2025 ;; Tracked objects:
  2026 ;;		On entry : 0/0
  2027 ;;		On exit  : 0/0
  2028 ;;		Unchanged: 0/0
  2029 ;; Data sizes:     COMRAM   BANK5   BANK6   BANK7   BANK8   BANK9  BANK10  BANK11  BANK12  BANK13  BANK14  BANK15  BANK1
      +6  BANK17  BANK18  BANK19  BANK20  BANK21  BANK22  BANK23  BANK24  BANK25  BANK26  BANK27  BANK28  BANK29  BANK30  BANK3
      +1  BANK32  BANK33  BANK34  BANK35  BANK36
  2030 ;;      Params:         3       0       0       0       0       0       0       0       0       0       0       0       
      +0       0       0       0       0       0       0       0       0       0       0       0       0       0       0       
      +0       0       0       0       0       0
  2031 ;;      Locals:         0       0       0       0       0       0       0       0       0       0       0       0       
      +0       0       0       0       0       0       0       0       0       0       0       0       0       0       0       
      +0       0       0       0       0       0
  2032 ;;      Temps:          0       0       0       0       0       0       0       0       0       0       0       0       
      +0       0       0       0       0       0       0       0       0       0       0       0       0       0       0       
      +0       0       0       0       0       0
  2033 ;;      Totals:         3       0       0       0       0       0       0       0       0       0       0       0       
      +0       0       0       0       0       0       0       0       0       0       0       0       0       0       0       
      +0       0       0       0       0       0
  2034 ;;Total ram usage:        3 bytes
  2035 ;; Hardware stack levels used: 1
  2036 ;; Hardware stack levels required when called: 4
  2037 ;; This function calls:
  2038 ;;		Nothing
  2039 ;; This function is called by:
  2040 ;;		_PWM2_16BIT_Initialize
  2041 ;; This function uses a non-reentrant model
  2042 ;;
  2043                           
  2044                           	psect	text18
  2045   002CDC                     __ptext18:
  2046                           	callstack 0
  2047   002CDC                     _PWM2_16BIT_Slice1Output1_SetInterruptHandler:
  2048                           	callstack 120
  2049   002CDC                     
  2050                           ;mcc_generated_files/pwm2_16bit.c: 192: void PWM2_16BIT_Slice1Output1_SetInterruptHandle
      +                          r(void (* InterruptHandler)(void));mcc_generated_files/pwm2_16bit.c: 193: {;mcc_generate
      +                          d_files/pwm2_16bit.c: 194:     PWM2_16BIT_Slice1Output1_InterruptHandler = InterruptHand
      +                          ler;
  2051   002CDC  C559  F539         	movff	PWM2_16BIT_Slice1Output1_SetInterruptHandler@InterruptHandler,_PWM2_16BIT_Slice1O
      +                          utput1_InterruptHandler
  2052   002CE0  C55A  F53A         	movff	PWM2_16BIT_Slice1Output1_SetInterruptHandler@InterruptHandler+1,_PWM2_16BIT_Slice
      +                          1Output1_InterruptHandler+1
  2053   002CE4  C55B  F53B         	movff	PWM2_16BIT_Slice1Output1_SetInterruptHandler@InterruptHandler+2,_PWM2_16BIT_Slice
      +                          1Output1_InterruptHandler+2
  2054   002CE8  0012               	return		;funcret
  2055   002CEA                     __end_of_PWM2_16BIT_Slice1Output1_SetInterruptHandler:
  2056                           	callstack 0
  2057                           
  2058 ;; *************** function _PWM2_16BIT_Period_SetInterruptHandler *****************
  2059 ;; Defined at:
  2060 ;;		line 202 in file "mcc_generated_files/pwm2_16bit.c"
  2061 ;; Parameters:    Size  Location     Type
  2062 ;;  InterruptHan    3    2[COMRAM] PTR FTN()void 
  2063 ;;		 -> PWM2_16BIT_Period_DefaultInterruptHandler(1), 
  2064 ;; Auto vars:     Size  Location     Type
  2065 ;;		None
  2066 ;; Return value:  Size  Location     Type
  2067 ;;                  1    wreg      void 
  2068 ;; Registers used:
  2069 ;;		wreg, status,2, status,0
  2070 ;; Tracked objects:
  2071 ;;		On entry : 0/0
  2072 ;;		On exit  : 0/0
  2073 ;;		Unchanged: 0/0
  2074 ;; Data sizes:     COMRAM   BANK5   BANK6   BANK7   BANK8   BANK9  BANK10  BANK11  BANK12  BANK13  BANK14  BANK15  BANK1
      +6  BANK17  BANK18  BANK19  BANK20  BANK21  BANK22  BANK23  BANK24  BANK25  BANK26  BANK27  BANK28  BANK29  BANK30  BANK3
      +1  BANK32  BANK33  BANK34  BANK35  BANK36
  2075 ;;      Params:         3       0       0       0       0       0       0       0       0       0       0       0       
      +0       0       0       0       0       0       0       0       0       0       0       0       0       0       0       
      +0       0       0       0       0       0
  2076 ;;      Locals:         0       0       0       0       0       0       0       0       0       0       0       0       
      +0       0       0       0       0       0       0       0       0       0       0       0       0       0       0       
      +0       0       0       0       0       0
  2077 ;;      Temps:          0       0       0       0       0       0       0       0       0       0       0       0       
      +0       0       0       0       0       0       0       0       0       0       0       0       0       0       0       
      +0       0       0       0       0       0
  2078 ;;      Totals:         3       0       0       0       0       0       0       0       0       0       0       0       
      +0       0       0       0       0       0       0       0       0       0       0       0       0       0       0       
      +0       0       0       0       0       0
  2079 ;;Total ram usage:        3 bytes
  2080 ;; Hardware stack levels used: 1
  2081 ;; Hardware stack levels required when called: 4
  2082 ;; This function calls:
  2083 ;;		Nothing
  2084 ;; This function is called by:
  2085 ;;		_PWM2_16BIT_Initialize
  2086 ;; This function uses a non-reentrant model
  2087 ;;
  2088                           
  2089                           	psect	text19
  2090   002CEA                     __ptext19:
  2091                           	callstack 0
  2092   002CEA                     _PWM2_16BIT_Period_SetInterruptHandler:
  2093                           	callstack 120
  2094   002CEA                     
  2095                           ;mcc_generated_files/pwm2_16bit.c: 202: void PWM2_16BIT_Period_SetInterruptHandler(void 
      +                          (* InterruptHandler)(void));mcc_generated_files/pwm2_16bit.c: 203: {;mcc_generated_files
      +                          /pwm2_16bit.c: 204:     PWM2_16BIT_Period_InterruptHandler = InterruptHandler;
  2096   002CEA  C559  F533         	movff	PWM2_16BIT_Period_SetInterruptHandler@InterruptHandler,_PWM2_16BIT_Period_Interru
      +                          ptHandler
  2097   002CEE  C55A  F534         	movff	PWM2_16BIT_Period_SetInterruptHandler@InterruptHandler+1,_PWM2_16BIT_Period_Inter
      +                          ruptHandler+1
  2098   002CF2  C55B  F535         	movff	PWM2_16BIT_Period_SetInterruptHandler@InterruptHandler+2,_PWM2_16BIT_Period_Inter
      +                          ruptHandler+2
  2099   002CF6  0012               	return		;funcret
  2100   002CF8                     __end_of_PWM2_16BIT_Period_SetInterruptHandler:
  2101                           	callstack 0
  2102                           
  2103 ;; *************** function _PWM1_16BIT_Initialize *****************
  2104 ;; Defined at:
  2105 ;;		line 63 in file "mcc_generated_files/pwm1_16bit.c"
  2106 ;; Parameters:    Size  Location     Type
  2107 ;;		None
  2108 ;; Auto vars:     Size  Location     Type
  2109 ;;		None
  2110 ;; Return value:  Size  Location     Type
  2111 ;;                  1    wreg      void 
  2112 ;; Registers used:
  2113 ;;		wreg, status,2, status,0, cstack
  2114 ;; Tracked objects:
  2115 ;;		On entry : 0/0
  2116 ;;		On exit  : 0/0
  2117 ;;		Unchanged: 0/0
  2118 ;; Data sizes:     COMRAM   BANK5   BANK6   BANK7   BANK8   BANK9  BANK10  BANK11  BANK12  BANK13  BANK14  BANK15  BANK1
      +6  BANK17  BANK18  BANK19  BANK20  BANK21  BANK22  BANK23  BANK24  BANK25  BANK26  BANK27  BANK28  BANK29  BANK30  BANK3
      +1  BANK32  BANK33  BANK34  BANK35  BANK36
  2119 ;;      Params:         0       0       0       0       0       0       0       0       0       0       0       0       
      +0       0       0       0       0       0       0       0       0       0       0       0       0       0       0       
      +0       0       0       0       0       0
  2120 ;;      Locals:         0       0       0       0       0       0       0       0       0       0       0       0       
      +0       0       0       0       0       0       0       0       0       0       0       0       0       0       0       
      +0       0       0       0       0       0
  2121 ;;      Temps:          0       0       0       0       0       0       0       0       0       0       0       0       
      +0       0       0       0       0       0       0       0       0       0       0       0       0       0       0       
      +0       0       0       0       0       0
  2122 ;;      Totals:         0       0       0       0       0       0       0       0       0       0       0       0       
      +0       0       0       0       0       0       0       0       0       0       0       0       0       0       0       
      +0       0       0       0       0       0
  2123 ;;Total ram usage:        0 bytes
  2124 ;; Hardware stack levels used: 1
  2125 ;; Hardware stack levels required when called: 5
  2126 ;; This function calls:
  2127 ;;		_PWM1_16BIT_Period_SetInterruptHandler
  2128 ;;		_PWM1_16BIT_Slice1Output1_SetInterruptHandler
  2129 ;;		_PWM1_16BIT_Slice1Output2_SetInterruptHandler
  2130 ;; This function is called by:
  2131 ;;		_SYSTEM_Initialize
  2132 ;; This function uses a non-reentrant model
  2133 ;;
  2134                           
  2135                           	psect	text20
  2136   0028B0                     __ptext20:
  2137                           	callstack 0
  2138   0028B0                     _PWM1_16BIT_Initialize:
  2139                           	callstack 120
  2140   0028B0                     
  2141                           ;mcc_generated_files/pwm1_16bit.c: 66:     PWM1ERS = 0x00;
  2142   0028B0  0E00               	movlw	0
  2143   0028B2  6E60               	movwf	96,c	;volatile
  2144                           
  2145                           ;mcc_generated_files/pwm1_16bit.c: 69:     PWM1CLK = 0x02;
  2146   0028B4  0E02               	movlw	2
  2147   0028B6  6E61               	movwf	97,c	;volatile
  2148                           
  2149                           ;mcc_generated_files/pwm1_16bit.c: 72:     PWM1LDS = 0x00;
  2150   0028B8  0E00               	movlw	0
  2151   0028BA  6E62               	movwf	98,c	;volatile
  2152                           
  2153                           ;mcc_generated_files/pwm1_16bit.c: 75:     PWM1PRL = 0xE7;
  2154   0028BC  0EE7               	movlw	231
  2155   0028BE  6E63               	movwf	99,c	;volatile
  2156                           
  2157                           ;mcc_generated_files/pwm1_16bit.c: 78:     PWM1PRH = 0x03;
  2158   0028C0  0E03               	movlw	3
  2159   0028C2  6E64               	movwf	100,c	;volatile
  2160                           
  2161                           ;mcc_generated_files/pwm1_16bit.c: 81:     PWM1CPRE = 0x00;
  2162   0028C4  0E00               	movlw	0
  2163   0028C6  6E65               	movwf	101,c	;volatile
  2164                           
  2165                           ;mcc_generated_files/pwm1_16bit.c: 84:     PWM1PIPOS = 0x00;
  2166   0028C8  0E00               	movlw	0
  2167   0028CA  6E66               	movwf	102,c	;volatile
  2168                           
  2169                           ;mcc_generated_files/pwm1_16bit.c: 87:     PWM1GIR = 0x00;
  2170   0028CC  0E00               	movlw	0
  2171   0028CE  6E67               	movwf	103,c	;volatile
  2172                           
  2173                           ;mcc_generated_files/pwm1_16bit.c: 90:     PWM1GIE = 0x00;
  2174   0028D0  0E00               	movlw	0
  2175   0028D2  6E68               	movwf	104,c	;volatile
  2176                           
  2177                           ;mcc_generated_files/pwm1_16bit.c: 93:     PWM1S1CFG = 0x00;
  2178   0028D4  0E00               	movlw	0
  2179   0028D6  6E6A               	movwf	106,c	;volatile
  2180                           
  2181                           ;mcc_generated_files/pwm1_16bit.c: 96:     PWM1S1P1L = 0xF4;
  2182   0028D8  0EF4               	movlw	244
  2183   0028DA  6E6B               	movwf	107,c	;volatile
  2184                           
  2185                           ;mcc_generated_files/pwm1_16bit.c: 99:     PWM1S1P1H = 0x01;
  2186   0028DC  0E01               	movlw	1
  2187   0028DE  6E6C               	movwf	108,c	;volatile
  2188                           
  2189                           ;mcc_generated_files/pwm1_16bit.c: 102:     PWM1S1P2L = 0xF4;
  2190   0028E0  0EF4               	movlw	244
  2191   0028E2  6E6D               	movwf	109,c	;volatile
  2192                           
  2193                           ;mcc_generated_files/pwm1_16bit.c: 105:     PWM1S1P2H = 0x01;
  2194   0028E4  0E01               	movlw	1
  2195   0028E6  6E6E               	movwf	110,c	;volatile
  2196   0028E8                     
  2197                           ;mcc_generated_files/pwm1_16bit.c: 108:     PIR4bits.PWM1PIF = 0;
  2198   0028E8  9CB2               	bcf	178,6,c	;volatile
  2199   0028EA                     
  2200                           ;mcc_generated_files/pwm1_16bit.c: 111:     PIR4bits.PWM1IF = 0;
  2201   0028EA  9EB2               	bcf	178,7,c	;volatile
  2202   0028EC                     
  2203                           ;mcc_generated_files/pwm1_16bit.c: 114:     PWM1GIRbits.S1P1IF = 0;
  2204   0028EC  9067               	bcf	103,0,c	;volatile
  2205   0028EE                     
  2206                           ;mcc_generated_files/pwm1_16bit.c: 117:     PWM1GIRbits.S1P2IF = 0;
  2207   0028EE  9267               	bcf	103,1,c	;volatile
  2208   0028F0                     
  2209                           ;mcc_generated_files/pwm1_16bit.c: 120:     PIE4bits.PWM1IE = 0;
  2210   0028F0  9EA2               	bcf	162,7,c	;volatile
  2211   0028F2                     
  2212                           ;mcc_generated_files/pwm1_16bit.c: 123:     PIE4bits.PWM1PIE = 0;
  2213   0028F2  9CA2               	bcf	162,6,c	;volatile
  2214   0028F4                     
  2215                           ;mcc_generated_files/pwm1_16bit.c: 126:     PWM1_16BIT_Slice1Output1_SetInterruptHandler
      +                          (PWM1_16BIT_Slice1Output1_DefaultInterruptHandler);
  2216   0028F4  0E00               	movlw	0
  2217   0028F6  6E59               	movwf	PWM1_16BIT_Slice1Output1_SetInterruptHandler@InterruptHandler^(0+1280),c
  2218   0028F8  0E00               	movlw	0
  2219   0028FA  6E5A               	movwf	(PWM1_16BIT_Slice1Output1_SetInterruptHandler@InterruptHandler+1)^(0+1280),c
  2220   0028FC  0E00               	movlw	0
  2221   0028FE  6E5B               	movwf	(PWM1_16BIT_Slice1Output1_SetInterruptHandler@InterruptHandler+2)^(0+1280),c
  2222   002900  EC83  F016         	call	_PWM1_16BIT_Slice1Output1_SetInterruptHandler	;wreg free
  2223   002904                     
  2224                           ;mcc_generated_files/pwm1_16bit.c: 127:     PWM1_16BIT_Slice1Output2_SetInterruptHandler
      +                          (PWM1_16BIT_Slice1Output2_DefaultInterruptHandler);
  2225   002904  0E00               	movlw	0
  2226   002906  6E59               	movwf	PWM1_16BIT_Slice1Output2_SetInterruptHandler@InterruptHandler^(0+1280),c
  2227   002908  0E00               	movlw	0
  2228   00290A  6E5A               	movwf	(PWM1_16BIT_Slice1Output2_SetInterruptHandler@InterruptHandler+1)^(0+1280),c
  2229   00290C  0E00               	movlw	0
  2230   00290E  6E5B               	movwf	(PWM1_16BIT_Slice1Output2_SetInterruptHandler@InterruptHandler+2)^(0+1280),c
  2231   002910  EC7C  F016         	call	_PWM1_16BIT_Slice1Output2_SetInterruptHandler	;wreg free
  2232   002914                     
  2233                           ;mcc_generated_files/pwm1_16bit.c: 128:     PWM1_16BIT_Period_SetInterruptHandler(PWM1_1
      +                          6BIT_Period_DefaultInterruptHandler);
  2234   002914  0E00               	movlw	0
  2235   002916  6E59               	movwf	PWM1_16BIT_Period_SetInterruptHandler@InterruptHandler^(0+1280),c
  2236   002918  0E00               	movlw	0
  2237   00291A  6E5A               	movwf	(PWM1_16BIT_Period_SetInterruptHandler@InterruptHandler+1)^(0+1280),c
  2238   00291C  0E00               	movlw	0
  2239   00291E  6E5B               	movwf	(PWM1_16BIT_Period_SetInterruptHandler@InterruptHandler+2)^(0+1280),c
  2240   002920  EC8A  F016         	call	_PWM1_16BIT_Period_SetInterruptHandler	;wreg free
  2241   002924                     
  2242                           ;mcc_generated_files/pwm1_16bit.c: 131:     PWM1CON = 0x80;
  2243   002924  0E80               	movlw	128
  2244   002926  6E69               	movwf	105,c	;volatile
  2245   002928  0012               	return		;funcret
  2246   00292A                     __end_of_PWM1_16BIT_Initialize:
  2247                           	callstack 0
  2248                           
  2249 ;; *************** function _PWM1_16BIT_Slice1Output2_SetInterruptHandler *****************
  2250 ;; Defined at:
  2251 ;;		line 197 in file "mcc_generated_files/pwm1_16bit.c"
  2252 ;; Parameters:    Size  Location     Type
  2253 ;;  InterruptHan    3    2[COMRAM] PTR FTN()void 
  2254 ;;		 -> PWM1_16BIT_Slice1Output2_DefaultInterruptHandler(1), 
  2255 ;; Auto vars:     Size  Location     Type
  2256 ;;		None
  2257 ;; Return value:  Size  Location     Type
  2258 ;;                  1    wreg      void 
  2259 ;; Registers used:
  2260 ;;		wreg, status,2, status,0
  2261 ;; Tracked objects:
  2262 ;;		On entry : 0/0
  2263 ;;		On exit  : 0/0
  2264 ;;		Unchanged: 0/0
  2265 ;; Data sizes:     COMRAM   BANK5   BANK6   BANK7   BANK8   BANK9  BANK10  BANK11  BANK12  BANK13  BANK14  BANK15  BANK1
      +6  BANK17  BANK18  BANK19  BANK20  BANK21  BANK22  BANK23  BANK24  BANK25  BANK26  BANK27  BANK28  BANK29  BANK30  BANK3
      +1  BANK32  BANK33  BANK34  BANK35  BANK36
  2266 ;;      Params:         3       0       0       0       0       0       0       0       0       0       0       0       
      +0       0       0       0       0       0       0       0       0       0       0       0       0       0       0       
      +0       0       0       0       0       0
  2267 ;;      Locals:         0       0       0       0       0       0       0       0       0       0       0       0       
      +0       0       0       0       0       0       0       0       0       0       0       0       0       0       0       
      +0       0       0       0       0       0
  2268 ;;      Temps:          0       0       0       0       0       0       0       0       0       0       0       0       
      +0       0       0       0       0       0       0       0       0       0       0       0       0       0       0       
      +0       0       0       0       0       0
  2269 ;;      Totals:         3       0       0       0       0       0       0       0       0       0       0       0       
      +0       0       0       0       0       0       0       0       0       0       0       0       0       0       0       
      +0       0       0       0       0       0
  2270 ;;Total ram usage:        3 bytes
  2271 ;; Hardware stack levels used: 1
  2272 ;; Hardware stack levels required when called: 4
  2273 ;; This function calls:
  2274 ;;		Nothing
  2275 ;; This function is called by:
  2276 ;;		_PWM1_16BIT_Initialize
  2277 ;; This function uses a non-reentrant model
  2278 ;;
  2279                           
  2280                           	psect	text21
  2281   002CF8                     __ptext21:
  2282                           	callstack 0
  2283   002CF8                     _PWM1_16BIT_Slice1Output2_SetInterruptHandler:
  2284                           	callstack 120
  2285   002CF8                     
  2286                           ;mcc_generated_files/pwm1_16bit.c: 197: void PWM1_16BIT_Slice1Output2_SetInterruptHandle
      +                          r(void (* InterruptHandler)(void));mcc_generated_files/pwm1_16bit.c: 198: {;mcc_generate
      +                          d_files/pwm1_16bit.c: 199:     PWM1_16BIT_Slice1Output2_InterruptHandler = InterruptHand
      +                          ler;
  2287   002CF8  C559  F551         	movff	PWM1_16BIT_Slice1Output2_SetInterruptHandler@InterruptHandler,_PWM1_16BIT_Slice1O
      +                          utput2_InterruptHandler
  2288   002CFC  C55A  F552         	movff	PWM1_16BIT_Slice1Output2_SetInterruptHandler@InterruptHandler+1,_PWM1_16BIT_Slice
      +                          1Output2_InterruptHandler+1
  2289   002D00  C55B  F553         	movff	PWM1_16BIT_Slice1Output2_SetInterruptHandler@InterruptHandler+2,_PWM1_16BIT_Slice
      +                          1Output2_InterruptHandler+2
  2290   002D04  0012               	return		;funcret
  2291   002D06                     __end_of_PWM1_16BIT_Slice1Output2_SetInterruptHandler:
  2292                           	callstack 0
  2293                           
  2294 ;; *************** function _PWM1_16BIT_Slice1Output1_SetInterruptHandler *****************
  2295 ;; Defined at:
  2296 ;;		line 192 in file "mcc_generated_files/pwm1_16bit.c"
  2297 ;; Parameters:    Size  Location     Type
  2298 ;;  InterruptHan    3    2[COMRAM] PTR FTN()void 
  2299 ;;		 -> PWM1_16BIT_Slice1Output1_DefaultInterruptHandler(1), 
  2300 ;; Auto vars:     Size  Location     Type
  2301 ;;		None
  2302 ;; Return value:  Size  Location     Type
  2303 ;;                  1    wreg      void 
  2304 ;; Registers used:
  2305 ;;		wreg, status,2, status,0
  2306 ;; Tracked objects:
  2307 ;;		On entry : 0/0
  2308 ;;		On exit  : 0/0
  2309 ;;		Unchanged: 0/0
  2310 ;; Data sizes:     COMRAM   BANK5   BANK6   BANK7   BANK8   BANK9  BANK10  BANK11  BANK12  BANK13  BANK14  BANK15  BANK1
      +6  BANK17  BANK18  BANK19  BANK20  BANK21  BANK22  BANK23  BANK24  BANK25  BANK26  BANK27  BANK28  BANK29  BANK30  BANK3
      +1  BANK32  BANK33  BANK34  BANK35  BANK36
  2311 ;;      Params:         3       0       0       0       0       0       0       0       0       0       0       0       
      +0       0       0       0       0       0       0       0       0       0       0       0       0       0       0       
      +0       0       0       0       0       0
  2312 ;;      Locals:         0       0       0       0       0       0       0       0       0       0       0       0       
      +0       0       0       0       0       0       0       0       0       0       0       0       0       0       0       
      +0       0       0       0       0       0
  2313 ;;      Temps:          0       0       0       0       0       0       0       0       0       0       0       0       
      +0       0       0       0       0       0       0       0       0       0       0       0       0       0       0       
      +0       0       0       0       0       0
  2314 ;;      Totals:         3       0       0       0       0       0       0       0       0       0       0       0       
      +0       0       0       0       0       0       0       0       0       0       0       0       0       0       0       
      +0       0       0       0       0       0
  2315 ;;Total ram usage:        3 bytes
  2316 ;; Hardware stack levels used: 1
  2317 ;; Hardware stack levels required when called: 4
  2318 ;; This function calls:
  2319 ;;		Nothing
  2320 ;; This function is called by:
  2321 ;;		_PWM1_16BIT_Initialize
  2322 ;; This function uses a non-reentrant model
  2323 ;;
  2324                           
  2325                           	psect	text22
  2326   002D06                     __ptext22:
  2327                           	callstack 0
  2328   002D06                     _PWM1_16BIT_Slice1Output1_SetInterruptHandler:
  2329                           	callstack 120
  2330   002D06                     
  2331                           ;mcc_generated_files/pwm1_16bit.c: 192: void PWM1_16BIT_Slice1Output1_SetInterruptHandle
      +                          r(void (* InterruptHandler)(void));mcc_generated_files/pwm1_16bit.c: 193: {;mcc_generate
      +                          d_files/pwm1_16bit.c: 194:     PWM1_16BIT_Slice1Output1_InterruptHandler = InterruptHand
      +                          ler;
  2332   002D06  C559  F554         	movff	PWM1_16BIT_Slice1Output1_SetInterruptHandler@InterruptHandler,_PWM1_16BIT_Slice1O
      +                          utput1_InterruptHandler
  2333   002D0A  C55A  F555         	movff	PWM1_16BIT_Slice1Output1_SetInterruptHandler@InterruptHandler+1,_PWM1_16BIT_Slice
      +                          1Output1_InterruptHandler+1
  2334   002D0E  C55B  F556         	movff	PWM1_16BIT_Slice1Output1_SetInterruptHandler@InterruptHandler+2,_PWM1_16BIT_Slice
      +                          1Output1_InterruptHandler+2
  2335   002D12  0012               	return		;funcret
  2336   002D14                     __end_of_PWM1_16BIT_Slice1Output1_SetInterruptHandler:
  2337                           	callstack 0
  2338                           
  2339 ;; *************** function _PWM1_16BIT_Period_SetInterruptHandler *****************
  2340 ;; Defined at:
  2341 ;;		line 202 in file "mcc_generated_files/pwm1_16bit.c"
  2342 ;; Parameters:    Size  Location     Type
  2343 ;;  InterruptHan    3    2[COMRAM] PTR FTN()void 
  2344 ;;		 -> PWM1_16BIT_Period_DefaultInterruptHandler(1), 
  2345 ;; Auto vars:     Size  Location     Type
  2346 ;;		None
  2347 ;; Return value:  Size  Location     Type
  2348 ;;                  1    wreg      void 
  2349 ;; Registers used:
  2350 ;;		wreg, status,2, status,0
  2351 ;; Tracked objects:
  2352 ;;		On entry : 0/0
  2353 ;;		On exit  : 0/0
  2354 ;;		Unchanged: 0/0
  2355 ;; Data sizes:     COMRAM   BANK5   BANK6   BANK7   BANK8   BANK9  BANK10  BANK11  BANK12  BANK13  BANK14  BANK15  BANK1
      +6  BANK17  BANK18  BANK19  BANK20  BANK21  BANK22  BANK23  BANK24  BANK25  BANK26  BANK27  BANK28  BANK29  BANK30  BANK3
      +1  BANK32  BANK33  BANK34  BANK35  BANK36
  2356 ;;      Params:         3       0       0       0       0       0       0       0       0       0       0       0       
      +0       0       0       0       0       0       0       0       0       0       0       0       0       0       0       
      +0       0       0       0       0       0
  2357 ;;      Locals:         0       0       0       0       0       0       0       0       0       0       0       0       
      +0       0       0       0       0       0       0       0       0       0       0       0       0       0       0       
      +0       0       0       0       0       0
  2358 ;;      Temps:          0       0       0       0       0       0       0       0       0       0       0       0       
      +0       0       0       0       0       0       0       0       0       0       0       0       0       0       0       
      +0       0       0       0       0       0
  2359 ;;      Totals:         3       0       0       0       0       0       0       0       0       0       0       0       
      +0       0       0       0       0       0       0       0       0       0       0       0       0       0       0       
      +0       0       0       0       0       0
  2360 ;;Total ram usage:        3 bytes
  2361 ;; Hardware stack levels used: 1
  2362 ;; Hardware stack levels required when called: 4
  2363 ;; This function calls:
  2364 ;;		Nothing
  2365 ;; This function is called by:
  2366 ;;		_PWM1_16BIT_Initialize
  2367 ;; This function uses a non-reentrant model
  2368 ;;
  2369                           
  2370                           	psect	text23
  2371   002D14                     __ptext23:
  2372                           	callstack 0
  2373   002D14                     _PWM1_16BIT_Period_SetInterruptHandler:
  2374                           	callstack 120
  2375   002D14                     
  2376                           ;mcc_generated_files/pwm1_16bit.c: 202: void PWM1_16BIT_Period_SetInterruptHandler(void 
      +                          (* InterruptHandler)(void));mcc_generated_files/pwm1_16bit.c: 203: {;mcc_generated_files
      +                          /pwm1_16bit.c: 204:     PWM1_16BIT_Period_InterruptHandler = InterruptHandler;
  2377   002D14  C559  F54E         	movff	PWM1_16BIT_Period_SetInterruptHandler@InterruptHandler,_PWM1_16BIT_Period_Interru
      +                          ptHandler
  2378   002D18  C55A  F54F         	movff	PWM1_16BIT_Period_SetInterruptHandler@InterruptHandler+1,_PWM1_16BIT_Period_Inter
      +                          ruptHandler+1
  2379   002D1C  C55B  F550         	movff	PWM1_16BIT_Period_SetInterruptHandler@InterruptHandler+2,_PWM1_16BIT_Period_Inter
      +                          ruptHandler+2
  2380   002D20  0012               	return		;funcret
  2381   002D22                     __end_of_PWM1_16BIT_Period_SetInterruptHandler:
  2382                           	callstack 0
  2383                           
  2384 ;; *************** function _PMD_Initialize *****************
  2385 ;; Defined at:
  2386 ;;		line 85 in file "mcc_generated_files/mcc.c"
  2387 ;; Parameters:    Size  Location     Type
  2388 ;;		None
  2389 ;; Auto vars:     Size  Location     Type
  2390 ;;		None
  2391 ;; Return value:  Size  Location     Type
  2392 ;;                  1    wreg      void 
  2393 ;; Registers used:
  2394 ;;		wreg, status,2
  2395 ;; Tracked objects:
  2396 ;;		On entry : 0/0
  2397 ;;		On exit  : 0/0
  2398 ;;		Unchanged: 0/0
  2399 ;; Data sizes:     COMRAM   BANK5   BANK6   BANK7   BANK8   BANK9  BANK10  BANK11  BANK12  BANK13  BANK14  BANK15  BANK1
      +6  BANK17  BANK18  BANK19  BANK20  BANK21  BANK22  BANK23  BANK24  BANK25  BANK26  BANK27  BANK28  BANK29  BANK30  BANK3
      +1  BANK32  BANK33  BANK34  BANK35  BANK36
  2400 ;;      Params:         0       0       0       0       0       0       0       0       0       0       0       0       
      +0       0       0       0       0       0       0       0       0       0       0       0       0       0       0       
      +0       0       0       0       0       0
  2401 ;;      Locals:         0       0       0       0       0       0       0       0       0       0       0       0       
      +0       0       0       0       0       0       0       0       0       0       0       0       0       0       0       
      +0       0       0       0       0       0
  2402 ;;      Temps:          0       0       0       0       0       0       0       0       0       0       0       0       
      +0       0       0       0       0       0       0       0       0       0       0       0       0       0       0       
      +0       0       0       0       0       0
  2403 ;;      Totals:         0       0       0       0       0       0       0       0       0       0       0       0       
      +0       0       0       0       0       0       0       0       0       0       0       0       0       0       0       
      +0       0       0       0       0       0
  2404 ;;Total ram usage:        0 bytes
  2405 ;; Hardware stack levels used: 1
  2406 ;; Hardware stack levels required when called: 4
  2407 ;; This function calls:
  2408 ;;		Nothing
  2409 ;; This function is called by:
  2410 ;;		_SYSTEM_Initialize
  2411 ;; This function uses a non-reentrant model
  2412 ;;
  2413                           
  2414                           	psect	text24
  2415   002BA0                     __ptext24:
  2416                           	callstack 0
  2417   002BA0                     _PMD_Initialize:
  2418                           	callstack 121
  2419   002BA0                     
  2420                           ;mcc_generated_files/mcc.c: 88:     PMD0 = 0x00;
  2421   002BA0  0E00               	movlw	0
  2422   002BA2  0100               	movlb	0	; () banked
  2423   002BA4  6F60               	movwf	96,b	;volatile
  2424                           
  2425                           ;mcc_generated_files/mcc.c: 90:     PMD1 = 0x00;
  2426   002BA6  0E00               	movlw	0
  2427   002BA8  6F61               	movwf	97,b	;volatile
  2428                           
  2429                           ;mcc_generated_files/mcc.c: 92:     PMD3 = 0x00;
  2430   002BAA  0E00               	movlw	0
  2431   002BAC  6F63               	movwf	99,b	;volatile
  2432                           
  2433                           ;mcc_generated_files/mcc.c: 94:     PMD4 = 0x00;
  2434   002BAE  0E00               	movlw	0
  2435   002BB0  6F64               	movwf	100,b	;volatile
  2436                           
  2437                           ;mcc_generated_files/mcc.c: 96:     PMD5 = 0x00;
  2438   002BB2  0E00               	movlw	0
  2439   002BB4  6F65               	movwf	101,b	;volatile
  2440                           
  2441                           ;mcc_generated_files/mcc.c: 98:     PMD6 = 0x00;
  2442   002BB6  0E00               	movlw	0
  2443   002BB8  6F66               	movwf	102,b	;volatile
  2444                           
  2445                           ;mcc_generated_files/mcc.c: 100:     PMD7 = 0x00;
  2446   002BBA  0E00               	movlw	0
  2447   002BBC  6F67               	movwf	103,b	;volatile
  2448                           
  2449                           ;mcc_generated_files/mcc.c: 102:     PMD8 = 0x00;
  2450   002BBE  0E00               	movlw	0
  2451   002BC0  6F68               	movwf	104,b	;volatile
  2452   002BC2                     
  2453                           ; BSR set to: 0
  2454   002BC2  0012               	return		;funcret
  2455   002BC4                     __end_of_PMD_Initialize:
  2456                           	callstack 0
  2457                           
  2458 ;; *************** function _PIN_MANAGER_Initialize *****************
  2459 ;; Defined at:
  2460 ;;		line 55 in file "mcc_generated_files/pin_manager.c"
  2461 ;; Parameters:    Size  Location     Type
  2462 ;;		None
  2463 ;; Auto vars:     Size  Location     Type
  2464 ;;		None
  2465 ;; Return value:  Size  Location     Type
  2466 ;;                  1    wreg      void 
  2467 ;; Registers used:
  2468 ;;		wreg, status,2
  2469 ;; Tracked objects:
  2470 ;;		On entry : 0/0
  2471 ;;		On exit  : 0/0
  2472 ;;		Unchanged: 0/0
  2473 ;; Data sizes:     COMRAM   BANK5   BANK6   BANK7   BANK8   BANK9  BANK10  BANK11  BANK12  BANK13  BANK14  BANK15  BANK1
      +6  BANK17  BANK18  BANK19  BANK20  BANK21  BANK22  BANK23  BANK24  BANK25  BANK26  BANK27  BANK28  BANK29  BANK30  BANK3
      +1  BANK32  BANK33  BANK34  BANK35  BANK36
  2474 ;;      Params:         0       0       0       0       0       0       0       0       0       0       0       0       
      +0       0       0       0       0       0       0       0       0       0       0       0       0       0       0       
      +0       0       0       0       0       0
  2475 ;;      Locals:         0       0       0       0       0       0       0       0       0       0       0       0       
      +0       0       0       0       0       0       0       0       0       0       0       0       0       0       0       
      +0       0       0       0       0       0
  2476 ;;      Temps:          0       0       0       0       0       0       0       0       0       0       0       0       
      +0       0       0       0       0       0       0       0       0       0       0       0       0       0       0       
      +0       0       0       0       0       0
  2477 ;;      Totals:         0       0       0       0       0       0       0       0       0       0       0       0       
      +0       0       0       0       0       0       0       0       0       0       0       0       0       0       0       
      +0       0       0       0       0       0
  2478 ;;Total ram usage:        0 bytes
  2479 ;; Hardware stack levels used: 1
  2480 ;; Hardware stack levels required when called: 4
  2481 ;; This function calls:
  2482 ;;		Nothing
  2483 ;; This function is called by:
  2484 ;;		_SYSTEM_Initialize
  2485 ;; This function uses a non-reentrant model
  2486 ;;
  2487                           
  2488                           	psect	text25
  2489   002640                     __ptext25:
  2490                           	callstack 0
  2491   002640                     _PIN_MANAGER_Initialize:
  2492                           	callstack 121
  2493   002640                     
  2494                           ;mcc_generated_files/pin_manager.c: 60:     LATE = 0x00;
  2495   002640  0E00               	movlw	0
  2496   002642  6EC2               	movwf	194,c	;volatile
  2497                           
  2498                           ;mcc_generated_files/pin_manager.c: 61:     LATD = 0x00;
  2499   002644  0E00               	movlw	0
  2500   002646  6EC1               	movwf	193,c	;volatile
  2501                           
  2502                           ;mcc_generated_files/pin_manager.c: 62:     LATA = 0x00;
  2503   002648  0E00               	movlw	0
  2504   00264A  6EBE               	movwf	190,c	;volatile
  2505                           
  2506                           ;mcc_generated_files/pin_manager.c: 63:     LATF = 0x00;
  2507   00264C  0E00               	movlw	0
  2508   00264E  6EC3               	movwf	195,c	;volatile
  2509                           
  2510                           ;mcc_generated_files/pin_manager.c: 64:     LATB = 0x10;
  2511   002650  0E10               	movlw	16
  2512   002652  6EBF               	movwf	191,c	;volatile
  2513                           
  2514                           ;mcc_generated_files/pin_manager.c: 65:     LATC = 0x00;
  2515   002654  0E00               	movlw	0
  2516   002656  6EC0               	movwf	192,c	;volatile
  2517                           
  2518                           ;mcc_generated_files/pin_manager.c: 70:     TRISE = 0x01;
  2519   002658  0E01               	movlw	1
  2520   00265A  6ECA               	movwf	202,c	;volatile
  2521                           
  2522                           ;mcc_generated_files/pin_manager.c: 71:     TRISF = 0x32;
  2523   00265C  0E32               	movlw	50
  2524   00265E  6ECB               	movwf	203,c	;volatile
  2525                           
  2526                           ;mcc_generated_files/pin_manager.c: 72:     TRISA = 0xFB;
  2527   002660  0EFB               	movlw	251
  2528   002662  6EC6               	movwf	198,c	;volatile
  2529                           
  2530                           ;mcc_generated_files/pin_manager.c: 73:     TRISB = 0xF9;
  2531   002664  0EF9               	movlw	249
  2532   002666  6EC7               	movwf	199,c	;volatile
  2533                           
  2534                           ;mcc_generated_files/pin_manager.c: 74:     TRISC = 0x2F;
  2535   002668  0E2F               	movlw	47
  2536   00266A  6EC8               	movwf	200,c	;volatile
  2537                           
  2538                           ;mcc_generated_files/pin_manager.c: 75:     TRISD = 0xAC;
  2539   00266C  0EAC               	movlw	172
  2540   00266E  6EC9               	movwf	201,c	;volatile
  2541                           
  2542                           ;mcc_generated_files/pin_manager.c: 80:     ANSELD = 0x13;
  2543   002670  0E13               	movlw	19
  2544   002672  0104               	movlb	4	; () banked
  2545   002674  6F18               	movwf	24,b	;volatile
  2546                           
  2547                           ;mcc_generated_files/pin_manager.c: 81:     ANSELC = 0x83;
  2548   002676  0E83               	movlw	131
  2549   002678  6F10               	movwf	16,b	;volatile
  2550                           
  2551                           ;mcc_generated_files/pin_manager.c: 82:     ANSELB = 0xC9;
  2552   00267A  0EC9               	movlw	201
  2553   00267C  6F08               	movwf	8,b	;volatile
  2554                           
  2555                           ;mcc_generated_files/pin_manager.c: 83:     ANSELE = 0x00;
  2556   00267E  0E00               	movlw	0
  2557   002680  6F20               	movwf	32,b	;volatile
  2558                           
  2559                           ;mcc_generated_files/pin_manager.c: 84:     ANSELF = 0x00;
  2560   002682  0E00               	movlw	0
  2561   002684  6F28               	movwf	40,b	;volatile
  2562                           
  2563                           ;mcc_generated_files/pin_manager.c: 85:     ANSELA = 0xEE;
  2564   002686  0EEE               	movlw	238
  2565   002688  6F00               	movwf	0,b	;volatile
  2566                           
  2567                           ;mcc_generated_files/pin_manager.c: 90:     WPUD = 0x00;
  2568   00268A  0E00               	movlw	0
  2569   00268C  6F19               	movwf	25,b	;volatile
  2570                           
  2571                           ;mcc_generated_files/pin_manager.c: 91:     WPUF = 0x00;
  2572   00268E  0E00               	movlw	0
  2573   002690  6F29               	movwf	41,b	;volatile
  2574                           
  2575                           ;mcc_generated_files/pin_manager.c: 92:     WPUE = 0x00;
  2576   002692  0E00               	movlw	0
  2577   002694  6F21               	movwf	33,b	;volatile
  2578                           
  2579                           ;mcc_generated_files/pin_manager.c: 93:     WPUB = 0x10;
  2580   002696  0E10               	movlw	16
  2581   002698  6F09               	movwf	9,b	;volatile
  2582                           
  2583                           ;mcc_generated_files/pin_manager.c: 94:     WPUA = 0x00;
  2584   00269A  0E00               	movlw	0
  2585   00269C  6F01               	movwf	1,b	;volatile
  2586                           
  2587                           ;mcc_generated_files/pin_manager.c: 95:     WPUC = 0x00;
  2588   00269E  0E00               	movlw	0
  2589   0026A0  6F11               	movwf	17,b	;volatile
  2590                           
  2591                           ;mcc_generated_files/pin_manager.c: 100:     RB1I2C = 0x00;
  2592   0026A2  0E00               	movlw	0
  2593   0026A4  0102               	movlb	2	; () banked
  2594   0026A6  6F89               	movwf	137,b	;volatile
  2595                           
  2596                           ;mcc_generated_files/pin_manager.c: 101:     RB2I2C = 0x00;
  2597   0026A8  0E00               	movlw	0
  2598   0026AA  6F88               	movwf	136,b	;volatile
  2599                           
  2600                           ;mcc_generated_files/pin_manager.c: 102:     RC3I2C = 0x00;
  2601   0026AC  0E00               	movlw	0
  2602   0026AE  6F87               	movwf	135,b	;volatile
  2603                           
  2604                           ;mcc_generated_files/pin_manager.c: 103:     RC4I2C = 0x00;
  2605   0026B0  0E00               	movlw	0
  2606   0026B2  6F86               	movwf	134,b	;volatile
  2607                           
  2608                           ;mcc_generated_files/pin_manager.c: 108:     ODCONE = 0x00;
  2609   0026B4  0E00               	movlw	0
  2610   0026B6  0104               	movlb	4	; () banked
  2611   0026B8  6F22               	movwf	34,b	;volatile
  2612                           
  2613                           ;mcc_generated_files/pin_manager.c: 109:     ODCONF = 0x00;
  2614   0026BA  0E00               	movlw	0
  2615   0026BC  6F2A               	movwf	42,b	;volatile
  2616                           
  2617                           ;mcc_generated_files/pin_manager.c: 110:     ODCONA = 0x00;
  2618   0026BE  0E00               	movlw	0
  2619   0026C0  6F02               	movwf	2,b	;volatile
  2620                           
  2621                           ;mcc_generated_files/pin_manager.c: 111:     ODCONB = 0x06;
  2622   0026C2  0E06               	movlw	6
  2623   0026C4  6F0A               	movwf	10,b	;volatile
  2624                           
  2625                           ;mcc_generated_files/pin_manager.c: 112:     ODCONC = 0x10;
  2626   0026C6  0E10               	movlw	16
  2627   0026C8  6F12               	movwf	18,b	;volatile
  2628                           
  2629                           ;mcc_generated_files/pin_manager.c: 113:     ODCOND = 0x00;
  2630   0026CA  0E00               	movlw	0
  2631   0026CC  6F1A               	movwf	26,b	;volatile
  2632   0026CE                     
  2633                           ; BSR set to: 4
  2634                           ;mcc_generated_files/pin_manager.c: 118:     SLRCONA = 0xFF;
  2635   0026CE  6903               	setf	3,b	;volatile
  2636   0026D0                     
  2637                           ; BSR set to: 4
  2638                           ;mcc_generated_files/pin_manager.c: 119:     SLRCONB = 0xFF;
  2639   0026D0  690B               	setf	11,b	;volatile
  2640   0026D2                     
  2641                           ; BSR set to: 4
  2642                           ;mcc_generated_files/pin_manager.c: 120:     SLRCONC = 0xFF;
  2643   0026D2  6913               	setf	19,b	;volatile
  2644   0026D4                     
  2645                           ; BSR set to: 4
  2646                           ;mcc_generated_files/pin_manager.c: 121:     SLRCOND = 0xFF;
  2647   0026D4  691B               	setf	27,b	;volatile
  2648                           
  2649                           ;mcc_generated_files/pin_manager.c: 122:     SLRCONE = 0x07;
  2650   0026D6  0E07               	movlw	7
  2651   0026D8  6F23               	movwf	35,b	;volatile
  2652   0026DA                     
  2653                           ; BSR set to: 4
  2654                           ;mcc_generated_files/pin_manager.c: 123:     SLRCONF = 0xFF;
  2655   0026DA  692B               	setf	43,b	;volatile
  2656   0026DC                     
  2657                           ; BSR set to: 4
  2658                           ;mcc_generated_files/pin_manager.c: 128:     INLVLA = 0xFF;
  2659   0026DC  6904               	setf	4,b	;volatile
  2660   0026DE                     
  2661                           ; BSR set to: 4
  2662                           ;mcc_generated_files/pin_manager.c: 129:     INLVLB = 0xFF;
  2663   0026DE  690C               	setf	12,b	;volatile
  2664   0026E0                     
  2665                           ; BSR set to: 4
  2666                           ;mcc_generated_files/pin_manager.c: 130:     INLVLC = 0xFF;
  2667   0026E0  6914               	setf	20,b	;volatile
  2668   0026E2                     
  2669                           ; BSR set to: 4
  2670                           ;mcc_generated_files/pin_manager.c: 131:     INLVLD = 0xFF;
  2671   0026E2  691C               	setf	28,b	;volatile
  2672                           
  2673                           ;mcc_generated_files/pin_manager.c: 132:     INLVLE = 0x0F;
  2674   0026E4  0E0F               	movlw	15
  2675   0026E6  6F24               	movwf	36,b	;volatile
  2676   0026E8                     
  2677                           ; BSR set to: 4
  2678                           ;mcc_generated_files/pin_manager.c: 133:     INLVLF = 0xFF;
  2679   0026E8  692C               	setf	44,b	;volatile
  2680                           
  2681                           ;mcc_generated_files/pin_manager.c: 142:     U2RXPPS = 0x1F;
  2682   0026EA  0E1F               	movlw	31
  2683   0026EC  0102               	movlb	2	; () banked
  2684   0026EE  6F74               	movwf	116,b	;volatile
  2685                           
  2686                           ;mcc_generated_files/pin_manager.c: 143:     INT0PPS = 0x00;
  2687   0026F0  0E00               	movlw	0
  2688   0026F2  6F3E               	movwf	62,b	;volatile
  2689                           
  2690                           ;mcc_generated_files/pin_manager.c: 144:     RC4PPS = 0x32;
  2691   0026F4  0E32               	movlw	50
  2692   0026F6  6F15               	movwf	21,b	;volatile
  2693                           
  2694                           ;mcc_generated_files/pin_manager.c: 145:     INT2PPS = 0x2D;
  2695   0026F8  0E2D               	movlw	45
  2696   0026FA  6F40               	movwf	64,b	;volatile
  2697                           
  2698                           ;mcc_generated_files/pin_manager.c: 146:     INT1PPS = 0x1D;
  2699   0026FC  0E1D               	movlw	29
  2700   0026FE  6F3F               	movwf	63,b	;volatile
  2701                           
  2702                           ;mcc_generated_files/pin_manager.c: 147:     RF0PPS = 0x20;
  2703   002700  0E20               	movlw	32
  2704   002702  6F29               	movwf	41,b	;volatile
  2705                           
  2706                           ;mcc_generated_files/pin_manager.c: 148:     U1RXPPS = 0x29;
  2707   002704  0E29               	movlw	41
  2708   002706  6F72               	movwf	114,b	;volatile
  2709                           
  2710                           ;mcc_generated_files/pin_manager.c: 149:     RD6PPS = 0x23;
  2711   002708  0E23               	movlw	35
  2712   00270A  6F1F               	movwf	31,b	;volatile
  2713                           
  2714                           ;mcc_generated_files/pin_manager.c: 150:     T0CKIPPS = 0x04;
  2715   00270C  0E04               	movlw	4
  2716   00270E  6F41               	movwf	65,b	;volatile
  2717                           
  2718                           ;mcc_generated_files/pin_manager.c: 151:     I2C1SCLPPS = 0x09;
  2719   002710  0E09               	movlw	9
  2720   002712  6F71               	movwf	113,b	;volatile
  2721                           
  2722                           ;mcc_generated_files/pin_manager.c: 152:     SPI1SCKPPS = 0x16;
  2723   002714  0E16               	movlw	22
  2724   002716  6F6A               	movwf	106,b	;volatile
  2725                           
  2726                           ;mcc_generated_files/pin_manager.c: 153:     PWMIN0PPS = 0x20;
  2727   002718  0E20               	movlw	32
  2728   00271A  6F57               	movwf	87,b	;volatile
  2729                           
  2730                           ;mcc_generated_files/pin_manager.c: 154:     I2C1SDAPPS = 0x0A;
  2731   00271C  0E0A               	movlw	10
  2732   00271E  6F70               	movwf	112,b	;volatile
  2733                           
  2734                           ;mcc_generated_files/pin_manager.c: 155:     RB1PPS = 0x37;
  2735   002720  0E37               	movlw	55
  2736   002722  6F0A               	movwf	10,b	;volatile
  2737                           
  2738                           ;mcc_generated_files/pin_manager.c: 156:     RB2PPS = 0x38;
  2739   002724  0E38               	movlw	56
  2740   002726  6F0B               	movwf	11,b	;volatile
  2741                           
  2742                           ;mcc_generated_files/pin_manager.c: 157:     RD0PPS = 0x1A;
  2743   002728  0E1A               	movlw	26
  2744   00272A  6F19               	movwf	25,b	;volatile
  2745                           
  2746                           ;mcc_generated_files/pin_manager.c: 158:     RD1PPS = 0x1C;
  2747   00272C  0E1C               	movlw	28
  2748   00272E  6F1A               	movwf	26,b	;volatile
  2749                           
  2750                           ;mcc_generated_files/pin_manager.c: 159:     RC6PPS = 0x31;
  2751   002730  0E31               	movlw	49
  2752   002732  6F17               	movwf	23,b	;volatile
  2753                           
  2754                           ;mcc_generated_files/pin_manager.c: 160:     RC7PPS = 0x18;
  2755   002734  0E18               	movlw	24
  2756   002736  6F18               	movwf	24,b	;volatile
  2757                           
  2758                           ;mcc_generated_files/pin_manager.c: 161:     SPI1SDIPPS = 0x15;
  2759   002738  0E15               	movlw	21
  2760   00273A  6F6B               	movwf	107,b	;volatile
  2761   00273C                     
  2762                           ; BSR set to: 2
  2763   00273C  0012               	return		;funcret
  2764   00273E                     __end_of_PIN_MANAGER_Initialize:
  2765                           	callstack 0
  2766                           
  2767 ;; *************** function _OSCILLATOR_Initialize *****************
  2768 ;; Defined at:
  2769 ;;		line 69 in file "mcc_generated_files/mcc.c"
  2770 ;; Parameters:    Size  Location     Type
  2771 ;;		None
  2772 ;; Auto vars:     Size  Location     Type
  2773 ;;		None
  2774 ;; Return value:  Size  Location     Type
  2775 ;;                  1    wreg      void 
  2776 ;; Registers used:
  2777 ;;		wreg, status,2
  2778 ;; Tracked objects:
  2779 ;;		On entry : 0/0
  2780 ;;		On exit  : 0/0
  2781 ;;		Unchanged: 0/0
  2782 ;; Data sizes:     COMRAM   BANK5   BANK6   BANK7   BANK8   BANK9  BANK10  BANK11  BANK12  BANK13  BANK14  BANK15  BANK1
      +6  BANK17  BANK18  BANK19  BANK20  BANK21  BANK22  BANK23  BANK24  BANK25  BANK26  BANK27  BANK28  BANK29  BANK30  BANK3
      +1  BANK32  BANK33  BANK34  BANK35  BANK36
  2783 ;;      Params:         0       0       0       0       0       0       0       0       0       0       0       0       
      +0       0       0       0       0       0       0       0       0       0       0       0       0       0       0       
      +0       0       0       0       0       0
  2784 ;;      Locals:         0       0       0       0       0       0       0       0       0       0       0       0       
      +0       0       0       0       0       0       0       0       0       0       0       0       0       0       0       
      +0       0       0       0       0       0
  2785 ;;      Temps:          0       0       0       0       0       0       0       0       0       0       0       0       
      +0       0       0       0       0       0       0       0       0       0       0       0       0       0       0       
      +0       0       0       0       0       0
  2786 ;;      Totals:         0       0       0       0       0       0       0       0       0       0       0       0       
      +0       0       0       0       0       0       0       0       0       0       0       0       0       0       0       
      +0       0       0       0       0       0
  2787 ;;Total ram usage:        0 bytes
  2788 ;; Hardware stack levels used: 1
  2789 ;; Hardware stack levels required when called: 4
  2790 ;; This function calls:
  2791 ;;		Nothing
  2792 ;; This function is called by:
  2793 ;;		_SYSTEM_Initialize
  2794 ;; This function uses a non-reentrant model
  2795 ;;
  2796                           
  2797                           	psect	text26
  2798   002C06                     __ptext26:
  2799                           	callstack 0
  2800   002C06                     _OSCILLATOR_Initialize:
  2801                           	callstack 121
  2802   002C06                     
  2803                           ;mcc_generated_files/mcc.c: 72:     OSCCON1 = 0x62;
  2804   002C06  0E62               	movlw	98
  2805   002C08  0100               	movlb	0	; () banked
  2806   002C0A  6FAD               	movwf	173,b	;volatile
  2807                           
  2808                           ;mcc_generated_files/mcc.c: 74:     OSCCON3 = 0x00;
  2809   002C0C  0E00               	movlw	0
  2810   002C0E  6FAF               	movwf	175,b	;volatile
  2811                           
  2812                           ;mcc_generated_files/mcc.c: 76:     OSCEN = 0x00;
  2813   002C10  0E00               	movlw	0
  2814   002C12  6FB3               	movwf	179,b	;volatile
  2815                           
  2816                           ;mcc_generated_files/mcc.c: 78:     OSCFRQ = 0x02;
  2817   002C14  0E02               	movlw	2
  2818   002C16  6FB1               	movwf	177,b	;volatile
  2819                           
  2820                           ;mcc_generated_files/mcc.c: 80:     OSCTUNE = 0x00;
  2821   002C18  0E00               	movlw	0
  2822   002C1A  6FB0               	movwf	176,b	;volatile
  2823                           
  2824                           ;mcc_generated_files/mcc.c: 82:     ACTCON = 0x00;
  2825   002C1C  0E00               	movlw	0
  2826   002C1E  6FAC               	movwf	172,b	;volatile
  2827   002C20                     
  2828                           ; BSR set to: 0
  2829   002C20  0012               	return		;funcret
  2830   002C22                     __end_of_OSCILLATOR_Initialize:
  2831                           	callstack 0
  2832                           
  2833 ;; *************** function _INTERRUPT_Initialize *****************
  2834 ;; Defined at:
  2835 ;;		line 52 in file "mcc_generated_files/interrupt_manager.c"
  2836 ;; Parameters:    Size  Location     Type
  2837 ;;		None
  2838 ;; Auto vars:     Size  Location     Type
  2839 ;;		None
  2840 ;; Return value:  Size  Location     Type
  2841 ;;                  1    wreg      void 
  2842 ;; Registers used:
  2843 ;;		None
  2844 ;; Tracked objects:
  2845 ;;		On entry : 0/0
  2846 ;;		On exit  : 0/0
  2847 ;;		Unchanged: 0/0
  2848 ;; Data sizes:     COMRAM   BANK5   BANK6   BANK7   BANK8   BANK9  BANK10  BANK11  BANK12  BANK13  BANK14  BANK15  BANK1
      +6  BANK17  BANK18  BANK19  BANK20  BANK21  BANK22  BANK23  BANK24  BANK25  BANK26  BANK27  BANK28  BANK29  BANK30  BANK3
      +1  BANK32  BANK33  BANK34  BANK35  BANK36
  2849 ;;      Params:         0       0       0       0       0       0       0       0       0       0       0       0       
      +0       0       0       0       0       0       0       0       0       0       0       0       0       0       0       
      +0       0       0       0       0       0
  2850 ;;      Locals:         0       0       0       0       0       0       0       0       0       0       0       0       
      +0       0       0       0       0       0       0       0       0       0       0       0       0       0       0       
      +0       0       0       0       0       0
  2851 ;;      Temps:          0       0       0       0       0       0       0       0       0       0       0       0       
      +0       0       0       0       0       0       0       0       0       0       0       0       0       0       0       
      +0       0       0       0       0       0
  2852 ;;      Totals:         0       0       0       0       0       0       0       0       0       0       0       0       
      +0       0       0       0       0       0       0       0       0       0       0       0       0       0       0       
      +0       0       0       0       0       0
  2853 ;;Total ram usage:        0 bytes
  2854 ;; Hardware stack levels used: 1
  2855 ;; Hardware stack levels required when called: 4
  2856 ;; This function calls:
  2857 ;;		Nothing
  2858 ;; This function is called by:
  2859 ;;		_SYSTEM_Initialize
  2860 ;; This function uses a non-reentrant model
  2861 ;;
  2862                           
  2863                           	psect	text27
  2864   002D88                     __ptext27:
  2865                           	callstack 0
  2866   002D88                     _INTERRUPT_Initialize:
  2867                           	callstack 121
  2868   002D88                     
  2869                           ;mcc_generated_files/interrupt_manager.c: 55:     INTCON0bits.IPEN = 0;
  2870   002D88  9AD6               	bcf	214,5,c	;volatile
  2871   002D8A  0012               	return		;funcret
  2872   002D8C                     __end_of_INTERRUPT_Initialize:
  2873                           	callstack 0
  2874                           
  2875 ;; *************** function _I2C1_Initialize *****************
  2876 ;; Defined at:
  2877 ;;		line 183 in file "mcc_generated_files/i2c1_master.c"
  2878 ;; Parameters:    Size  Location     Type
  2879 ;;		None
  2880 ;; Auto vars:     Size  Location     Type
  2881 ;;		None
  2882 ;; Return value:  Size  Location     Type
  2883 ;;                  1    wreg      void 
  2884 ;; Registers used:
  2885 ;;		wreg, status,2
  2886 ;; Tracked objects:
  2887 ;;		On entry : 0/0
  2888 ;;		On exit  : 0/0
  2889 ;;		Unchanged: 0/0
  2890 ;; Data sizes:     COMRAM   BANK5   BANK6   BANK7   BANK8   BANK9  BANK10  BANK11  BANK12  BANK13  BANK14  BANK15  BANK1
      +6  BANK17  BANK18  BANK19  BANK20  BANK21  BANK22  BANK23  BANK24  BANK25  BANK26  BANK27  BANK28  BANK29  BANK30  BANK3
      +1  BANK32  BANK33  BANK34  BANK35  BANK36
  2891 ;;      Params:         0       0       0       0       0       0       0       0       0       0       0       0       
      +0       0       0       0       0       0       0       0       0       0       0       0       0       0       0       
      +0       0       0       0       0       0
  2892 ;;      Locals:         0       0       0       0       0       0       0       0       0       0       0       0       
      +0       0       0       0       0       0       0       0       0       0       0       0       0       0       0       
      +0       0       0       0       0       0
  2893 ;;      Temps:          0       0       0       0       0       0       0       0       0       0       0       0       
      +0       0       0       0       0       0       0       0       0       0       0       0       0       0       0       
      +0       0       0       0       0       0
  2894 ;;      Totals:         0       0       0       0       0       0       0       0       0       0       0       0       
      +0       0       0       0       0       0       0       0       0       0       0       0       0       0       0       
      +0       0       0       0       0       0
  2895 ;;Total ram usage:        0 bytes
  2896 ;; Hardware stack levels used: 1
  2897 ;; Hardware stack levels required when called: 4
  2898 ;; This function calls:
  2899 ;;		Nothing
  2900 ;; This function is called by:
  2901 ;;		_SYSTEM_Initialize
  2902 ;; This function uses a non-reentrant model
  2903 ;;
  2904                           
  2905                           	psect	text28
  2906   002BC4                     __ptext28:
  2907                           	callstack 0
  2908   002BC4                     _I2C1_Initialize:
  2909                           	callstack 121
  2910   002BC4                     
  2911                           ;mcc_generated_files/i2c1_master.c: 186:     I2C1CON0 = 0x04;
  2912   002BC4  0E04               	movlw	4
  2913   002BC6  0102               	movlb	2	; () banked
  2914   002BC8  6F94               	movwf	148,b	;volatile
  2915                           
  2916                           ;mcc_generated_files/i2c1_master.c: 188:     I2C1CON1 = 0x80;
  2917   002BCA  0E80               	movlw	128
  2918   002BCC  6F95               	movwf	149,b	;volatile
  2919                           
  2920                           ;mcc_generated_files/i2c1_master.c: 190:     I2C1CON2 = 0x18;
  2921   002BCE  0E18               	movlw	24
  2922   002BD0  6F96               	movwf	150,b	;volatile
  2923                           
  2924                           ;mcc_generated_files/i2c1_master.c: 192:     I2C1CLK = 0x03;
  2925   002BD2  0E03               	movlw	3
  2926   002BD4  6F9C               	movwf	156,b	;volatile
  2927                           
  2928                           ;mcc_generated_files/i2c1_master.c: 194:     I2C1PIR = 0x00;
  2929   002BD6  0E00               	movlw	0
  2930   002BD8  6F9A               	movwf	154,b	;volatile
  2931                           
  2932                           ;mcc_generated_files/i2c1_master.c: 196:     I2C1PIE = 0x00;
  2933   002BDA  0E00               	movlw	0
  2934   002BDC  6F9B               	movwf	155,b	;volatile
  2935                           
  2936                           ;mcc_generated_files/i2c1_master.c: 198:     I2C1ERR = 0x00;
  2937   002BDE  0E00               	movlw	0
  2938   002BE0  6F97               	movwf	151,b	;volatile
  2939   002BE2                     
  2940                           ; BSR set to: 2
  2941                           ;mcc_generated_files/i2c1_master.c: 200:     I2C1CNT = 0xFF;
  2942   002BE2  698D               	setf	141,b	;volatile
  2943   002BE4                     
  2944                           ; BSR set to: 2
  2945   002BE4  0012               	return		;funcret
  2946   002BE6                     __end_of_I2C1_Initialize:
  2947                           	callstack 0
  2948                           
  2949 ;; *************** function _EXT_INT_Initialize *****************
  2950 ;; Defined at:
  2951 ;;		line 113 in file "mcc_generated_files/ext_int.c"
  2952 ;; Parameters:    Size  Location     Type
  2953 ;;		None
  2954 ;; Auto vars:     Size  Location     Type
  2955 ;;		None
  2956 ;; Return value:  Size  Location     Type
  2957 ;;                  1    wreg      void 
  2958 ;; Registers used:
  2959 ;;		wreg, status,2, status,0, cstack
  2960 ;; Tracked objects:
  2961 ;;		On entry : 0/0
  2962 ;;		On exit  : 0/0
  2963 ;;		Unchanged: 0/0
  2964 ;; Data sizes:     COMRAM   BANK5   BANK6   BANK7   BANK8   BANK9  BANK10  BANK11  BANK12  BANK13  BANK14  BANK15  BANK1
      +6  BANK17  BANK18  BANK19  BANK20  BANK21  BANK22  BANK23  BANK24  BANK25  BANK26  BANK27  BANK28  BANK29  BANK30  BANK3
      +1  BANK32  BANK33  BANK34  BANK35  BANK36
  2965 ;;      Params:         0       0       0       0       0       0       0       0       0       0       0       0       
      +0       0       0       0       0       0       0       0       0       0       0       0       0       0       0       
      +0       0       0       0       0       0
  2966 ;;      Locals:         0       0       0       0       0       0       0       0       0       0       0       0       
      +0       0       0       0       0       0       0       0       0       0       0       0       0       0       0       
      +0       0       0       0       0       0
  2967 ;;      Temps:          0       0       0       0       0       0       0       0       0       0       0       0       
      +0       0       0       0       0       0       0       0       0       0       0       0       0       0       0       
      +0       0       0       0       0       0
  2968 ;;      Totals:         0       0       0       0       0       0       0       0       0       0       0       0       
      +0       0       0       0       0       0       0       0       0       0       0       0       0       0       0       
      +0       0       0       0       0       0
  2969 ;;Total ram usage:        0 bytes
  2970 ;; Hardware stack levels used: 1
  2971 ;; Hardware stack levels required when called: 5
  2972 ;; This function calls:
  2973 ;;		_INT0_SetInterruptHandler
  2974 ;;		_INT1_SetInterruptHandler
  2975 ;;		_INT2_SetInterruptHandler
  2976 ;; This function is called by:
  2977 ;;		_SYSTEM_Initialize
  2978 ;; This function uses a non-reentrant model
  2979 ;;
  2980                           
  2981                           	psect	text29
  2982   002A62                     __ptext29:
  2983                           	callstack 0
  2984   002A62                     _EXT_INT_Initialize:
  2985                           	callstack 120
  2986   002A62                     
  2987                           ;mcc_generated_files/ext_int.c: 118:     (PIR1bits.INT0IF = 0);
  2988   002A62  90AF               	bcf	175,0,c	;volatile
  2989                           
  2990                           ;mcc_generated_files/ext_int.c: 119:     (INTCON0bits.INT0EDG = 1);
  2991   002A64  80D6               	bsf	214,0,c	;volatile
  2992   002A66                     
  2993                           ;mcc_generated_files/ext_int.c: 121:     INT0_SetInterruptHandler(INT0_DefaultInterruptH
      +                          andler);
  2994   002A66  0E90               	movlw	low _INT0_DefaultInterruptHandler
  2995   002A68  6E59               	movwf	INT0_SetInterruptHandler@InterruptHandler^(0+1280),c
  2996   002A6A  0E2D               	movlw	high _INT0_DefaultInterruptHandler
  2997   002A6C  6E5A               	movwf	(INT0_SetInterruptHandler@InterruptHandler+1)^(0+1280),c
  2998   002A6E  0E00               	movlw	low (_INT0_DefaultInterruptHandler shr (0+16))
  2999   002A70  6E5B               	movwf	(INT0_SetInterruptHandler@InterruptHandler+2)^(0+1280),c
  3000   002A72  EC9F  F016         	call	_INT0_SetInterruptHandler	;wreg free
  3001   002A76                     
  3002                           ;mcc_generated_files/ext_int.c: 122:     (PIE1bits.INT0IE = 1);
  3003   002A76  809F               	bsf	159,0,c	;volatile
  3004   002A78                     
  3005                           ;mcc_generated_files/ext_int.c: 127:     (PIR6bits.INT1IF = 0);
  3006   002A78  90B4               	bcf	180,0,c	;volatile
  3007   002A7A                     
  3008                           ;mcc_generated_files/ext_int.c: 128:     (INTCON0bits.INT1EDG = 1);
  3009   002A7A  82D6               	bsf	214,1,c	;volatile
  3010                           
  3011                           ;mcc_generated_files/ext_int.c: 130:     INT1_SetInterruptHandler(INT1_DefaultInterruptH
      +                          andler);
  3012   002A7C  0E8E               	movlw	low _INT1_DefaultInterruptHandler
  3013   002A7E  6E59               	movwf	INT1_SetInterruptHandler@InterruptHandler^(0+1280),c
  3014   002A80  0E2D               	movlw	high _INT1_DefaultInterruptHandler
  3015   002A82  6E5A               	movwf	(INT1_SetInterruptHandler@InterruptHandler+1)^(0+1280),c
  3016   002A84  0E00               	movlw	low (_INT1_DefaultInterruptHandler shr (0+16))
  3017   002A86  6E5B               	movwf	(INT1_SetInterruptHandler@InterruptHandler+2)^(0+1280),c
  3018   002A88  EC98  F016         	call	_INT1_SetInterruptHandler	;wreg free
  3019   002A8C                     
  3020                           ;mcc_generated_files/ext_int.c: 131:     (PIE6bits.INT1IE = 1);
  3021   002A8C  80A4               	bsf	164,0,c	;volatile
  3022   002A8E                     
  3023                           ;mcc_generated_files/ext_int.c: 136:     (PIR10bits.INT2IF = 0);
  3024   002A8E  90B8               	bcf	184,0,c	;volatile
  3025   002A90                     
  3026                           ;mcc_generated_files/ext_int.c: 137:     (INTCON0bits.INT2EDG = 1);
  3027   002A90  84D6               	bsf	214,2,c	;volatile
  3028                           
  3029                           ;mcc_generated_files/ext_int.c: 139:     INT2_SetInterruptHandler(INT2_DefaultInterruptH
      +                          andler);
  3030   002A92  0E8C               	movlw	low _INT2_DefaultInterruptHandler
  3031   002A94  6E59               	movwf	INT2_SetInterruptHandler@InterruptHandler^(0+1280),c
  3032   002A96  0E2D               	movlw	high _INT2_DefaultInterruptHandler
  3033   002A98  6E5A               	movwf	(INT2_SetInterruptHandler@InterruptHandler+1)^(0+1280),c
  3034   002A9A  0E00               	movlw	low (_INT2_DefaultInterruptHandler shr (0+16))
  3035   002A9C  6E5B               	movwf	(INT2_SetInterruptHandler@InterruptHandler+2)^(0+1280),c
  3036   002A9E  EC91  F016         	call	_INT2_SetInterruptHandler	;wreg free
  3037   002AA2                     
  3038                           ;mcc_generated_files/ext_int.c: 140:     (PIE10bits.INT2IE = 1);
  3039   002AA2  80A8               	bsf	168,0,c	;volatile
  3040   002AA4  0012               	return		;funcret
  3041   002AA6                     __end_of_EXT_INT_Initialize:
  3042                           	callstack 0
  3043                           
  3044 ;; *************** function _INT2_SetInterruptHandler *****************
  3045 ;; Defined at:
  3046 ;;		line 104 in file "mcc_generated_files/ext_int.c"
  3047 ;; Parameters:    Size  Location     Type
  3048 ;;  InterruptHan    3    2[COMRAM] PTR FTN()void 
  3049 ;;		 -> INT2_DefaultInterruptHandler(1), 
  3050 ;; Auto vars:     Size  Location     Type
  3051 ;;		None
  3052 ;; Return value:  Size  Location     Type
  3053 ;;                  1    wreg      void 
  3054 ;; Registers used:
  3055 ;;		wreg, status,2, status,0
  3056 ;; Tracked objects:
  3057 ;;		On entry : 0/0
  3058 ;;		On exit  : 0/0
  3059 ;;		Unchanged: 0/0
  3060 ;; Data sizes:     COMRAM   BANK5   BANK6   BANK7   BANK8   BANK9  BANK10  BANK11  BANK12  BANK13  BANK14  BANK15  BANK1
      +6  BANK17  BANK18  BANK19  BANK20  BANK21  BANK22  BANK23  BANK24  BANK25  BANK26  BANK27  BANK28  BANK29  BANK30  BANK3
      +1  BANK32  BANK33  BANK34  BANK35  BANK36
  3061 ;;      Params:         3       0       0       0       0       0       0       0       0       0       0       0       
      +0       0       0       0       0       0       0       0       0       0       0       0       0       0       0       
      +0       0       0       0       0       0
  3062 ;;      Locals:         0       0       0       0       0       0       0       0       0       0       0       0       
      +0       0       0       0       0       0       0       0       0       0       0       0       0       0       0       
      +0       0       0       0       0       0
  3063 ;;      Temps:          0       0       0       0       0       0       0       0       0       0       0       0       
      +0       0       0       0       0       0       0       0       0       0       0       0       0       0       0       
      +0       0       0       0       0       0
  3064 ;;      Totals:         3       0       0       0       0       0       0       0       0       0       0       0       
      +0       0       0       0       0       0       0       0       0       0       0       0       0       0       0       
      +0       0       0       0       0       0
  3065 ;;Total ram usage:        3 bytes
  3066 ;; Hardware stack levels used: 1
  3067 ;; Hardware stack levels required when called: 4
  3068 ;; This function calls:
  3069 ;;		Nothing
  3070 ;; This function is called by:
  3071 ;;		_EXT_INT_Initialize
  3072 ;; This function uses a non-reentrant model
  3073 ;;
  3074                           
  3075                           	psect	text30
  3076   002D22                     __ptext30:
  3077                           	callstack 0
  3078   002D22                     _INT2_SetInterruptHandler:
  3079                           	callstack 120
  3080   002D22                     
  3081                           ;mcc_generated_files/ext_int.c: 105:     INT2_InterruptHandler = InterruptHandler;
  3082   002D22  C559  F545         	movff	INT2_SetInterruptHandler@InterruptHandler,_INT2_InterruptHandler
  3083   002D26  C55A  F546         	movff	INT2_SetInterruptHandler@InterruptHandler+1,_INT2_InterruptHandler+1
  3084   002D2A  C55B  F547         	movff	INT2_SetInterruptHandler@InterruptHandler+2,_INT2_InterruptHandler+2
  3085   002D2E  0012               	return		;funcret
  3086   002D30                     __end_of_INT2_SetInterruptHandler:
  3087                           	callstack 0
  3088                           
  3089 ;; *************** function _INT1_SetInterruptHandler *****************
  3090 ;; Defined at:
  3091 ;;		line 78 in file "mcc_generated_files/ext_int.c"
  3092 ;; Parameters:    Size  Location     Type
  3093 ;;  InterruptHan    3    2[COMRAM] PTR FTN()void 
  3094 ;;		 -> INT1_DefaultInterruptHandler(1), 
  3095 ;; Auto vars:     Size  Location     Type
  3096 ;;		None
  3097 ;; Return value:  Size  Location     Type
  3098 ;;                  1    wreg      void 
  3099 ;; Registers used:
  3100 ;;		wreg, status,2, status,0
  3101 ;; Tracked objects:
  3102 ;;		On entry : 0/0
  3103 ;;		On exit  : 0/0
  3104 ;;		Unchanged: 0/0
  3105 ;; Data sizes:     COMRAM   BANK5   BANK6   BANK7   BANK8   BANK9  BANK10  BANK11  BANK12  BANK13  BANK14  BANK15  BANK1
      +6  BANK17  BANK18  BANK19  BANK20  BANK21  BANK22  BANK23  BANK24  BANK25  BANK26  BANK27  BANK28  BANK29  BANK30  BANK3
      +1  BANK32  BANK33  BANK34  BANK35  BANK36
  3106 ;;      Params:         3       0       0       0       0       0       0       0       0       0       0       0       
      +0       0       0       0       0       0       0       0       0       0       0       0       0       0       0       
      +0       0       0       0       0       0
  3107 ;;      Locals:         0       0       0       0       0       0       0       0       0       0       0       0       
      +0       0       0       0       0       0       0       0       0       0       0       0       0       0       0       
      +0       0       0       0       0       0
  3108 ;;      Temps:          0       0       0       0       0       0       0       0       0       0       0       0       
      +0       0       0       0       0       0       0       0       0       0       0       0       0       0       0       
      +0       0       0       0       0       0
  3109 ;;      Totals:         3       0       0       0       0       0       0       0       0       0       0       0       
      +0       0       0       0       0       0       0       0       0       0       0       0       0       0       0       
      +0       0       0       0       0       0
  3110 ;;Total ram usage:        3 bytes
  3111 ;; Hardware stack levels used: 1
  3112 ;; Hardware stack levels required when called: 4
  3113 ;; This function calls:
  3114 ;;		Nothing
  3115 ;; This function is called by:
  3116 ;;		_EXT_INT_Initialize
  3117 ;; This function uses a non-reentrant model
  3118 ;;
  3119                           
  3120                           	psect	text31
  3121   002D30                     __ptext31:
  3122                           	callstack 0
  3123   002D30                     _INT1_SetInterruptHandler:
  3124                           	callstack 120
  3125   002D30                     
  3126                           ;mcc_generated_files/ext_int.c: 79:     INT1_InterruptHandler = InterruptHandler;
  3127   002D30  C559  F548         	movff	INT1_SetInterruptHandler@InterruptHandler,_INT1_InterruptHandler
  3128   002D34  C55A  F549         	movff	INT1_SetInterruptHandler@InterruptHandler+1,_INT1_InterruptHandler+1
  3129   002D38  C55B  F54A         	movff	INT1_SetInterruptHandler@InterruptHandler+2,_INT1_InterruptHandler+2
  3130   002D3C  0012               	return		;funcret
  3131   002D3E                     __end_of_INT1_SetInterruptHandler:
  3132                           	callstack 0
  3133                           
  3134 ;; *************** function _INT0_SetInterruptHandler *****************
  3135 ;; Defined at:
  3136 ;;		line 52 in file "mcc_generated_files/ext_int.c"
  3137 ;; Parameters:    Size  Location     Type
  3138 ;;  InterruptHan    3    2[COMRAM] PTR FTN()void 
  3139 ;;		 -> INT0_DefaultInterruptHandler(1), 
  3140 ;; Auto vars:     Size  Location     Type
  3141 ;;		None
  3142 ;; Return value:  Size  Location     Type
  3143 ;;                  1    wreg      void 
  3144 ;; Registers used:
  3145 ;;		wreg, status,2, status,0
  3146 ;; Tracked objects:
  3147 ;;		On entry : 0/0
  3148 ;;		On exit  : 0/0
  3149 ;;		Unchanged: 0/0
  3150 ;; Data sizes:     COMRAM   BANK5   BANK6   BANK7   BANK8   BANK9  BANK10  BANK11  BANK12  BANK13  BANK14  BANK15  BANK1
      +6  BANK17  BANK18  BANK19  BANK20  BANK21  BANK22  BANK23  BANK24  BANK25  BANK26  BANK27  BANK28  BANK29  BANK30  BANK3
      +1  BANK32  BANK33  BANK34  BANK35  BANK36
  3151 ;;      Params:         3       0       0       0       0       0       0       0       0       0       0       0       
      +0       0       0       0       0       0       0       0       0       0       0       0       0       0       0       
      +0       0       0       0       0       0
  3152 ;;      Locals:         0       0       0       0       0       0       0       0       0       0       0       0       
      +0       0       0       0       0       0       0       0       0       0       0       0       0       0       0       
      +0       0       0       0       0       0
  3153 ;;      Temps:          0       0       0       0       0       0       0       0       0       0       0       0       
      +0       0       0       0       0       0       0       0       0       0       0       0       0       0       0       
      +0       0       0       0       0       0
  3154 ;;      Totals:         3       0       0       0       0       0       0       0       0       0       0       0       
      +0       0       0       0       0       0       0       0       0       0       0       0       0       0       0       
      +0       0       0       0       0       0
  3155 ;;Total ram usage:        3 bytes
  3156 ;; Hardware stack levels used: 1
  3157 ;; Hardware stack levels required when called: 4
  3158 ;; This function calls:
  3159 ;;		Nothing
  3160 ;; This function is called by:
  3161 ;;		_EXT_INT_Initialize
  3162 ;; This function uses a non-reentrant model
  3163 ;;
  3164                           
  3165                           	psect	text32
  3166   002D3E                     __ptext32:
  3167                           	callstack 0
  3168   002D3E                     _INT0_SetInterruptHandler:
  3169                           	callstack 120
  3170   002D3E                     
  3171                           ;mcc_generated_files/ext_int.c: 53:     INT0_InterruptHandler = InterruptHandler;
  3172   002D3E  C559  F54B         	movff	INT0_SetInterruptHandler@InterruptHandler,_INT0_InterruptHandler
  3173   002D42  C55A  F54C         	movff	INT0_SetInterruptHandler@InterruptHandler+1,_INT0_InterruptHandler+1
  3174   002D46  C55B  F54D         	movff	INT0_SetInterruptHandler@InterruptHandler+2,_INT0_InterruptHandler+2
  3175   002D4A  0012               	return		;funcret
  3176   002D4C                     __end_of_INT0_SetInterruptHandler:
  3177                           	callstack 0
  3178                           
  3179 ;; *************** function _ADCC_Initialize *****************
  3180 ;; Defined at:
  3181 ;;		line 62 in file "mcc_generated_files/adcc.c"
  3182 ;; Parameters:    Size  Location     Type
  3183 ;;		None
  3184 ;; Auto vars:     Size  Location     Type
  3185 ;;		None
  3186 ;; Return value:  Size  Location     Type
  3187 ;;                  1    wreg      void 
  3188 ;; Registers used:
  3189 ;;		wreg, status,2
  3190 ;; Tracked objects:
  3191 ;;		On entry : 0/0
  3192 ;;		On exit  : 0/0
  3193 ;;		Unchanged: 0/0
  3194 ;; Data sizes:     COMRAM   BANK5   BANK6   BANK7   BANK8   BANK9  BANK10  BANK11  BANK12  BANK13  BANK14  BANK15  BANK1
      +6  BANK17  BANK18  BANK19  BANK20  BANK21  BANK22  BANK23  BANK24  BANK25  BANK26  BANK27  BANK28  BANK29  BANK30  BANK3
      +1  BANK32  BANK33  BANK34  BANK35  BANK36
  3195 ;;      Params:         0       0       0       0       0       0       0       0       0       0       0       0       
      +0       0       0       0       0       0       0       0       0       0       0       0       0       0       0       
      +0       0       0       0       0       0
  3196 ;;      Locals:         0       0       0       0       0       0       0       0       0       0       0       0       
      +0       0       0       0       0       0       0       0       0       0       0       0       0       0       0       
      +0       0       0       0       0       0
  3197 ;;      Temps:          0       0       0       0       0       0       0       0       0       0       0       0       
      +0       0       0       0       0       0       0       0       0       0       0       0       0       0       0       
      +0       0       0       0       0       0
  3198 ;;      Totals:         0       0       0       0       0       0       0       0       0       0       0       0       
      +0       0       0       0       0       0       0       0       0       0       0       0       0       0       0       
      +0       0       0       0       0       0
  3199 ;;Total ram usage:        0 bytes
  3200 ;; Hardware stack levels used: 1
  3201 ;; Hardware stack levels required when called: 4
  3202 ;; This function calls:
  3203 ;;		Nothing
  3204 ;; This function is called by:
  3205 ;;		_SYSTEM_Initialize
  3206 ;;		_SOM_ADC_Initialize
  3207 ;; This function uses a non-reentrant model
  3208 ;;
  3209                           
  3210                           	psect	text33
  3211   002A06                     __ptext33:
  3212                           	callstack 0
  3213   002A06                     _ADCC_Initialize:
  3214                           	callstack 121
  3215   002A06                     
  3216                           ;mcc_generated_files/adcc.c: 66:     ADLTHL = 0x00;
  3217   002A06  0E00               	movlw	0
  3218   002A08  0103               	movlb	3	; () banked
  3219   002A0A  6FD9               	movwf	217,b	;volatile
  3220                           
  3221                           ;mcc_generated_files/adcc.c: 68:     ADLTHH = 0x00;
  3222   002A0C  0E00               	movlw	0
  3223   002A0E  6FDA               	movwf	218,b	;volatile
  3224                           
  3225                           ;mcc_generated_files/adcc.c: 70:     ADUTHL = 0x00;
  3226   002A10  0E00               	movlw	0
  3227   002A12  6FDB               	movwf	219,b	;volatile
  3228                           
  3229                           ;mcc_generated_files/adcc.c: 72:     ADUTHH = 0x00;
  3230   002A14  0E00               	movlw	0
  3231   002A16  6FDC               	movwf	220,b	;volatile
  3232                           
  3233                           ;mcc_generated_files/adcc.c: 74:     ADSTPTL = 0x00;
  3234   002A18  0E00               	movlw	0
  3235   002A1A  6FDF               	movwf	223,b	;volatile
  3236                           
  3237                           ;mcc_generated_files/adcc.c: 76:     ADSTPTH = 0x00;
  3238   002A1C  0E00               	movlw	0
  3239   002A1E  6FE0               	movwf	224,b	;volatile
  3240                           
  3241                           ;mcc_generated_files/adcc.c: 78:     ADACCU = 0x00;
  3242   002A20  0E00               	movlw	0
  3243   002A22  6FE5               	movwf	229,b	;volatile
  3244                           
  3245                           ;mcc_generated_files/adcc.c: 80:     ADRPT = 0x00;
  3246   002A24  0E00               	movlw	0
  3247   002A26  6FE7               	movwf	231,b	;volatile
  3248                           
  3249                           ;mcc_generated_files/adcc.c: 82:     ADPCH = 0x00;
  3250   002A28  0E00               	movlw	0
  3251   002A2A  6FEC               	movwf	236,b	;volatile
  3252                           
  3253                           ;mcc_generated_files/adcc.c: 84:     ADACQL = 0x00;
  3254   002A2C  0E00               	movlw	0
  3255   002A2E  6FEE               	movwf	238,b	;volatile
  3256                           
  3257                           ;mcc_generated_files/adcc.c: 86:     ADACQH = 0x00;
  3258   002A30  0E00               	movlw	0
  3259   002A32  6FEF               	movwf	239,b	;volatile
  3260                           
  3261                           ;mcc_generated_files/adcc.c: 88:     ADCAP = 0x00;
  3262   002A34  0E00               	movlw	0
  3263   002A36  6FF0               	movwf	240,b	;volatile
  3264                           
  3265                           ;mcc_generated_files/adcc.c: 90:     ADPREL = 0x00;
  3266   002A38  0E00               	movlw	0
  3267   002A3A  6FF1               	movwf	241,b	;volatile
  3268                           
  3269                           ;mcc_generated_files/adcc.c: 92:     ADPREH = 0x00;
  3270   002A3C  0E00               	movlw	0
  3271   002A3E  6FF2               	movwf	242,b	;volatile
  3272                           
  3273                           ;mcc_generated_files/adcc.c: 94:     ADCON1 = 0x00;
  3274   002A40  0E00               	movlw	0
  3275   002A42  6FF4               	movwf	244,b	;volatile
  3276                           
  3277                           ;mcc_generated_files/adcc.c: 96:     ADCON2 = 0x10;
  3278   002A44  0E10               	movlw	16
  3279   002A46  6FF5               	movwf	245,b	;volatile
  3280                           
  3281                           ;mcc_generated_files/adcc.c: 98:     ADCON3 = 0x00;
  3282   002A48  0E00               	movlw	0
  3283   002A4A  6FF6               	movwf	246,b	;volatile
  3284                           
  3285                           ;mcc_generated_files/adcc.c: 100:     ADSTAT = 0x00;
  3286   002A4C  0E00               	movlw	0
  3287   002A4E  6FF7               	movwf	247,b	;volatile
  3288                           
  3289                           ;mcc_generated_files/adcc.c: 102:     ADREF = 0x00;
  3290   002A50  0E00               	movlw	0
  3291   002A52  6FF8               	movwf	248,b	;volatile
  3292                           
  3293                           ;mcc_generated_files/adcc.c: 104:     ADACT = 0x00;
  3294   002A54  0E00               	movlw	0
  3295   002A56  6FF9               	movwf	249,b	;volatile
  3296                           
  3297                           ;mcc_generated_files/adcc.c: 106:     ADCLK = 0x00;
  3298   002A58  0E00               	movlw	0
  3299   002A5A  6FFA               	movwf	250,b	;volatile
  3300                           
  3301                           ;mcc_generated_files/adcc.c: 108:     ADCON0 = 0x84;
  3302   002A5C  0E84               	movlw	132
  3303   002A5E  6FF3               	movwf	243,b	;volatile
  3304   002A60                     
  3305                           ; BSR set to: 3
  3306   002A60  0012               	return		;funcret
  3307   002A62                     __end_of_ADCC_Initialize:
  3308                           	callstack 0
  3309                           
  3310 ;; *************** function _SOM_DAC_SetOutput *****************
  3311 ;; Defined at:
  3312 ;;		line 8 in file "mcc_generated_files/SOM_DAC.c"
  3313 ;; Parameters:    Size  Location     Type
  3314 ;;  InputData       1    wreg     unsigned char 
  3315 ;; Auto vars:     Size  Location     Type
  3316 ;;  InputData       1    3[COMRAM] unsigned char 
  3317 ;; Return value:  Size  Location     Type
  3318 ;;                  1    wreg      void 
  3319 ;; Registers used:
  3320 ;;		wreg, status,2, cstack
  3321 ;; Tracked objects:
  3322 ;;		On entry : 0/0
  3323 ;;		On exit  : 0/0
  3324 ;;		Unchanged: 0/0
  3325 ;; Data sizes:     COMRAM   BANK5   BANK6   BANK7   BANK8   BANK9  BANK10  BANK11  BANK12  BANK13  BANK14  BANK15  BANK1
      +6  BANK17  BANK18  BANK19  BANK20  BANK21  BANK22  BANK23  BANK24  BANK25  BANK26  BANK27  BANK28  BANK29  BANK30  BANK3
      +1  BANK32  BANK33  BANK34  BANK35  BANK36
  3326 ;;      Params:         0       0       0       0       0       0       0       0       0       0       0       0       
      +0       0       0       0       0       0       0       0       0       0       0       0       0       0       0       
      +0       0       0       0       0       0
  3327 ;;      Locals:         1       0       0       0       0       0       0       0       0       0       0       0       
      +0       0       0       0       0       0       0       0       0       0       0       0       0       0       0       
      +0       0       0       0       0       0
  3328 ;;      Temps:          0       0       0       0       0       0       0       0       0       0       0       0       
      +0       0       0       0       0       0       0       0       0       0       0       0       0       0       0       
      +0       0       0       0       0       0
  3329 ;;      Totals:         1       0       0       0       0       0       0       0       0       0       0       0       
      +0       0       0       0       0       0       0       0       0       0       0       0       0       0       0       
      +0       0       0       0       0       0
  3330 ;;Total ram usage:        1 bytes
  3331 ;; Hardware stack levels used: 1
  3332 ;; Hardware stack levels required when called: 5
  3333 ;; This function calls:
  3334 ;;		_DAC1_SetOutput
  3335 ;; This function is called by:
  3336 ;;		_main
  3337 ;; This function uses a non-reentrant model
  3338 ;;
  3339                           
  3340                           	psect	text34
  3341   002D58                     __ptext34:
  3342                           	callstack 0
  3343   002D58                     _SOM_DAC_SetOutput:
  3344                           	callstack 121
  3345                           
  3346                           ; BSR set to: 3
  3347                           ;incstack = 0
  3348                           ;SOM_DAC_SetOutput@InputData stored from wreg
  3349   002D58  6E5A               	movwf	SOM_DAC_SetOutput@InputData^(0+1280),c
  3350   002D5A                     
  3351                           ;mcc_generated_files/SOM_DAC.c: 8: void SOM_DAC_SetOutput(uint8_t InputData);mcc_generat
      +                          ed_files/SOM_DAC.c: 9: {;mcc_generated_files/SOM_DAC.c: 10:    DAC1_SetOutput(InputData)
      +                          ;
  3352   002D5A  505A               	movf	SOM_DAC_SetOutput@InputData^(0+1280),w,c
  3353   002D5C  ECB1  F016         	call	_DAC1_SetOutput
  3354   002D60  0012               	return		;funcret
  3355   002D62                     __end_of_SOM_DAC_SetOutput:
  3356                           	callstack 0
  3357                           
  3358 ;; *************** function _DAC1_SetOutput *****************
  3359 ;; Defined at:
  3360 ;;		line 66 in file "mcc_generated_files/dac1.c"
  3361 ;; Parameters:    Size  Location     Type
  3362 ;;  inputData       1    wreg     unsigned char 
  3363 ;; Auto vars:     Size  Location     Type
  3364 ;;  inputData       1    2[COMRAM] unsigned char 
  3365 ;; Return value:  Size  Location     Type
  3366 ;;                  1    wreg      void 
  3367 ;; Registers used:
  3368 ;;		wreg
  3369 ;; Tracked objects:
  3370 ;;		On entry : 0/0
  3371 ;;		On exit  : 0/0
  3372 ;;		Unchanged: 0/0
  3373 ;; Data sizes:     COMRAM   BANK5   BANK6   BANK7   BANK8   BANK9  BANK10  BANK11  BANK12  BANK13  BANK14  BANK15  BANK1
      +6  BANK17  BANK18  BANK19  BANK20  BANK21  BANK22  BANK23  BANK24  BANK25  BANK26  BANK27  BANK28  BANK29  BANK30  BANK3
      +1  BANK32  BANK33  BANK34  BANK35  BANK36
  3374 ;;      Params:         0       0       0       0       0       0       0       0       0       0       0       0       
      +0       0       0       0       0       0       0       0       0       0       0       0       0       0       0       
      +0       0       0       0       0       0
  3375 ;;      Locals:         1       0       0       0       0       0       0       0       0       0       0       0       
      +0       0       0       0       0       0       0       0       0       0       0       0       0       0       0       
      +0       0       0       0       0       0
  3376 ;;      Temps:          0       0       0       0       0       0       0       0       0       0       0       0       
      +0       0       0       0       0       0       0       0       0       0       0       0       0       0       0       
      +0       0       0       0       0       0
  3377 ;;      Totals:         1       0       0       0       0       0       0       0       0       0       0       0       
      +0       0       0       0       0       0       0       0       0       0       0       0       0       0       0       
      +0       0       0       0       0       0
  3378 ;;Total ram usage:        1 bytes
  3379 ;; Hardware stack levels used: 1
  3380 ;; Hardware stack levels required when called: 4
  3381 ;; This function calls:
  3382 ;;		Nothing
  3383 ;; This function is called by:
  3384 ;;		_SOM_DAC_SetOutput
  3385 ;; This function uses a non-reentrant model
  3386 ;;
  3387                           
  3388                           	psect	text35
  3389   002D62                     __ptext35:
  3390                           	callstack 0
  3391   002D62                     _DAC1_SetOutput:
  3392                           	callstack 121
  3393                           
  3394                           ;incstack = 0
  3395                           ;DAC1_SetOutput@inputData stored from wreg
  3396   002D62  6E59               	movwf	DAC1_SetOutput@inputData^(0+1280),c
  3397   002D64                     
  3398                           ;mcc_generated_files/dac1.c: 66: void DAC1_SetOutput(uint8_t inputData);mcc_generated_fi
      +                          les/dac1.c: 67: {;mcc_generated_files/dac1.c: 68:     DAC1DATL = inputData;
  3399   002D64  C559  F07D         	movff	DAC1_SetOutput@inputData,125	;volatile
  3400   002D68  0012               	return		;funcret
  3401   002D6A                     __end_of_DAC1_SetOutput:
  3402                           	callstack 0
  3403                           
  3404 ;; *************** function _SOM_DAC_Initialize *****************
  3405 ;; Defined at:
  3406 ;;		line 3 in file "mcc_generated_files/SOM_DAC.c"
  3407 ;; Parameters:    Size  Location     Type
  3408 ;;		None
  3409 ;; Auto vars:     Size  Location     Type
  3410 ;;		None
  3411 ;; Return value:  Size  Location     Type
  3412 ;;                  1    wreg      void 
  3413 ;; Registers used:
  3414 ;;		wreg, status,2, cstack
  3415 ;; Tracked objects:
  3416 ;;		On entry : 0/0
  3417 ;;		On exit  : 0/0
  3418 ;;		Unchanged: 0/0
  3419 ;; Data sizes:     COMRAM   BANK5   BANK6   BANK7   BANK8   BANK9  BANK10  BANK11  BANK12  BANK13  BANK14  BANK15  BANK1
      +6  BANK17  BANK18  BANK19  BANK20  BANK21  BANK22  BANK23  BANK24  BANK25  BANK26  BANK27  BANK28  BANK29  BANK30  BANK3
      +1  BANK32  BANK33  BANK34  BANK35  BANK36
  3420 ;;      Params:         0       0       0       0       0       0       0       0       0       0       0       0       
      +0       0       0       0       0       0       0       0       0       0       0       0       0       0       0       
      +0       0       0       0       0       0
  3421 ;;      Locals:         0       0       0       0       0       0       0       0       0       0       0       0       
      +0       0       0       0       0       0       0       0       0       0       0       0       0       0       0       
      +0       0       0       0       0       0
  3422 ;;      Temps:          0       0       0       0       0       0       0       0       0       0       0       0       
      +0       0       0       0       0       0       0       0       0       0       0       0       0       0       0       
      +0       0       0       0       0       0
  3423 ;;      Totals:         0       0       0       0       0       0       0       0       0       0       0       0       
      +0       0       0       0       0       0       0       0       0       0       0       0       0       0       0       
      +0       0       0       0       0       0
  3424 ;;Total ram usage:        0 bytes
  3425 ;; Hardware stack levels used: 1
  3426 ;; Hardware stack levels required when called: 5
  3427 ;; This function calls:
  3428 ;;		_DAC1_Initialize
  3429 ;; This function is called by:
  3430 ;;		_main
  3431 ;; This function uses a non-reentrant model
  3432 ;;
  3433                           
  3434                           	psect	text36
  3435   002D82                     __ptext36:
  3436                           	callstack 0
  3437   002D82                     _SOM_DAC_Initialize:
  3438                           	callstack 121
  3439   002D82                     
  3440                           ;mcc_generated_files/SOM_DAC.c: 5:     DAC1_Initialize();
  3441   002D82  ECA6  F016         	call	_DAC1_Initialize	;wreg free
  3442   002D86  0012               	return		;funcret
  3443   002D88                     __end_of_SOM_DAC_Initialize:
  3444                           	callstack 0
  3445                           
  3446 ;; *************** function _DAC1_Initialize *****************
  3447 ;; Defined at:
  3448 ;;		line 58 in file "mcc_generated_files/dac1.c"
  3449 ;; Parameters:    Size  Location     Type
  3450 ;;		None
  3451 ;; Auto vars:     Size  Location     Type
  3452 ;;		None
  3453 ;; Return value:  Size  Location     Type
  3454 ;;                  1    wreg      void 
  3455 ;; Registers used:
  3456 ;;		wreg, status,2
  3457 ;; Tracked objects:
  3458 ;;		On entry : 0/0
  3459 ;;		On exit  : 0/0
  3460 ;;		Unchanged: 0/0
  3461 ;; Data sizes:     COMRAM   BANK5   BANK6   BANK7   BANK8   BANK9  BANK10  BANK11  BANK12  BANK13  BANK14  BANK15  BANK1
      +6  BANK17  BANK18  BANK19  BANK20  BANK21  BANK22  BANK23  BANK24  BANK25  BANK26  BANK27  BANK28  BANK29  BANK30  BANK3
      +1  BANK32  BANK33  BANK34  BANK35  BANK36
  3462 ;;      Params:         0       0       0       0       0       0       0       0       0       0       0       0       
      +0       0       0       0       0       0       0       0       0       0       0       0       0       0       0       
      +0       0       0       0       0       0
  3463 ;;      Locals:         0       0       0       0       0       0       0       0       0       0       0       0       
      +0       0       0       0       0       0       0       0       0       0       0       0       0       0       0       
      +0       0       0       0       0       0
  3464 ;;      Temps:          0       0       0       0       0       0       0       0       0       0       0       0       
      +0       0       0       0       0       0       0       0       0       0       0       0       0       0       0       
      +0       0       0       0       0       0
  3465 ;;      Totals:         0       0       0       0       0       0       0       0       0       0       0       0       
      +0       0       0       0       0       0       0       0       0       0       0       0       0       0       0       
      +0       0       0       0       0       0
  3466 ;;Total ram usage:        0 bytes
  3467 ;; Hardware stack levels used: 1
  3468 ;; Hardware stack levels required when called: 4
  3469 ;; This function calls:
  3470 ;;		Nothing
  3471 ;; This function is called by:
  3472 ;;		_SYSTEM_Initialize
  3473 ;;		_SOM_DAC_Initialize
  3474 ;; This function uses a non-reentrant model
  3475 ;;
  3476                           
  3477                           	psect	text37
  3478   002D4C                     __ptext37:
  3479                           	callstack 0
  3480   002D4C                     _DAC1_Initialize:
  3481                           	callstack 121
  3482   002D4C                     
  3483                           ;mcc_generated_files/dac1.c: 61:     DAC1CON = 0xA0;
  3484   002D4C  0EA0               	movlw	160
  3485   002D4E  0100               	movlb	0	; () banked
  3486   002D50  6F7F               	movwf	127,b	;volatile
  3487                           
  3488                           ;mcc_generated_files/dac1.c: 63:     DAC1DATL = 0x33;
  3489   002D52  0E33               	movlw	51
  3490   002D54  6F7D               	movwf	125,b	;volatile
  3491   002D56                     
  3492                           ; BSR set to: 0
  3493   002D56  0012               	return		;funcret
  3494   002D58                     __end_of_DAC1_Initialize:
  3495                           	callstack 0
  3496                           
  3497 ;; *************** function _INTERRUPT_InterruptManager *****************
  3498 ;; Defined at:
  3499 ;;		line 58 in file "mcc_generated_files/interrupt_manager.c"
  3500 ;; Parameters:    Size  Location     Type
  3501 ;;		None
  3502 ;; Auto vars:     Size  Location     Type
  3503 ;;		None
  3504 ;; Return value:  Size  Location     Type
  3505 ;;                  1    wreg      void 
  3506 ;; Registers used:
  3507 ;;		wreg, status,2, status,0, pcl, pclath, pclatu, tosl, cstack
  3508 ;; Tracked objects:
  3509 ;;		On entry : 0/0
  3510 ;;		On exit  : 0/0
  3511 ;;		Unchanged: 0/0
  3512 ;; Data sizes:     COMRAM   BANK5   BANK6   BANK7   BANK8   BANK9  BANK10  BANK11  BANK12  BANK13  BANK14  BANK15  BANK1
      +6  BANK17  BANK18  BANK19  BANK20  BANK21  BANK22  BANK23  BANK24  BANK25  BANK26  BANK27  BANK28  BANK29  BANK30  BANK3
      +1  BANK32  BANK33  BANK34  BANK35  BANK36
  3513 ;;      Params:         0       0       0       0       0       0       0       0       0       0       0       0       
      +0       0       0       0       0       0       0       0       0       0       0       0       0       0       0       
      +0       0       0       0       0       0
  3514 ;;      Locals:         0       0       0       0       0       0       0       0       0       0       0       0       
      +0       0       0       0       0       0       0       0       0       0       0       0       0       0       0       
      +0       0       0       0       0       0
  3515 ;;      Temps:          2       0       0       0       0       0       0       0       0       0       0       0       
      +0       0       0       0       0       0       0       0       0       0       0       0       0       0       0       
      +0       0       0       0       0       0
  3516 ;;      Totals:         2       0       0       0       0       0       0       0       0       0       0       0       
      +0       0       0       0       0       0       0       0       0       0       0       0       0       0       0       
      +0       0       0       0       0       0
  3517 ;;Total ram usage:        2 bytes
  3518 ;; Hardware stack levels used: 1
  3519 ;; Hardware stack levels required when called: 3
  3520 ;; This function calls:
  3521 ;;		_INT0_ISR
  3522 ;;		_INT1_ISR
  3523 ;;		_INT2_ISR
  3524 ;; This function is called by:
  3525 ;;		Interrupt level 2
  3526 ;; This function uses a non-reentrant model
  3527 ;;
  3528                           
  3529                           	psect	text38
  3530   00273E                     __ptext38:
  3531                           	callstack 0
  3532   00273E                     _INTERRUPT_InterruptManager:
  3533                           	callstack 120
  3534                           
  3535                           ; BSR set to: 0
  3536                           ;incstack = 0
  3537   00273E  C4FA F557          	movff	pclath,??_INTERRUPT_InterruptManager
  3538   002742  C4FB F558          	movff	pclatu,??_INTERRUPT_InterruptManager+1
  3539   002746                     
  3540                           ;mcc_generated_files/interrupt_manager.c: 61:     if(PIE1bits.INT0IE == 1 && PIR1bits.IN
      +                          T0IF == 1)
  3541   002746  A09F               	btfss	159,0,c	;volatile
  3542   002748  EFA8  F013         	goto	i2u65_41
  3543   00274C  EFAA  F013         	goto	i2u65_40
  3544   002750                     i2u65_41:
  3545   002750  EFB5  F013         	goto	i2l587
  3546   002754                     i2u65_40:
  3547   002754  A0AF               	btfss	175,0,c	;volatile
  3548   002756  EFAF  F013         	goto	i2u66_41
  3549   00275A  EFB1  F013         	goto	i2u66_40
  3550   00275E                     i2u66_41:
  3551   00275E  EFB5  F013         	goto	i2l587
  3552   002762                     i2u66_40:
  3553   002762                     
  3554                           ;mcc_generated_files/interrupt_manager.c: 62:     {;mcc_generated_files/interrupt_manage
      +                          r.c: 63:         INT0_ISR();
  3555   002762  ECBD  F016         	call	_INT0_ISR	;wreg free
  3556                           
  3557                           ;mcc_generated_files/interrupt_manager.c: 64:     }
  3558   002766  EFD9  F013         	goto	i2l593
  3559   00276A                     i2l587:
  3560   00276A  A0A4               	btfss	164,0,c	;volatile
  3561   00276C  EFBA  F013         	goto	i2u67_41
  3562   002770  EFBC  F013         	goto	i2u67_40
  3563   002774                     i2u67_41:
  3564   002774  EFC7  F013         	goto	i2l589
  3565   002778                     i2u67_40:
  3566   002778  A0B4               	btfss	180,0,c	;volatile
  3567   00277A  EFC1  F013         	goto	i2u68_41
  3568   00277E  EFC3  F013         	goto	i2u68_40
  3569   002782                     i2u68_41:
  3570   002782  EFC7  F013         	goto	i2l589
  3571   002786                     i2u68_40:
  3572   002786                     
  3573                           ;mcc_generated_files/interrupt_manager.c: 66:     {;mcc_generated_files/interrupt_manage
      +                          r.c: 67:         INT1_ISR();
  3574   002786  ECB9  F016         	call	_INT1_ISR	;wreg free
  3575                           
  3576                           ;mcc_generated_files/interrupt_manager.c: 68:     }
  3577   00278A  EFD9  F013         	goto	i2l593
  3578   00278E                     i2l589:
  3579   00278E  A0A8               	btfss	168,0,c	;volatile
  3580   002790  EFCC  F013         	goto	i2u69_41
  3581   002794  EFCE  F013         	goto	i2u69_40
  3582   002798                     i2u69_41:
  3583   002798  EFD9  F013         	goto	i2l590
  3584   00279C                     i2u69_40:
  3585   00279C  A0B8               	btfss	184,0,c	;volatile
  3586   00279E  EFD3  F013         	goto	i2u70_41
  3587   0027A2  EFD5  F013         	goto	i2u70_40
  3588   0027A6                     i2u70_41:
  3589   0027A6  EFD9  F013         	goto	i2l590
  3590   0027AA                     i2u70_40:
  3591   0027AA                     
  3592                           ;mcc_generated_files/interrupt_manager.c: 70:     {;mcc_generated_files/interrupt_manage
      +                          r.c: 71:         INT2_ISR();
  3593   0027AA  ECB5  F016         	call	_INT2_ISR	;wreg free
  3594                           
  3595                           ;mcc_generated_files/interrupt_manager.c: 72:     }
  3596   0027AE  EFD9  F013         	goto	i2l593
  3597   0027B2                     i2l590:
  3598   0027B2                     i2l593:
  3599   0027B2  C558  F4FB         	movff	??_INTERRUPT_InterruptManager+1,pclatu
  3600   0027B6  C557  F4FA         	movff	??_INTERRUPT_InterruptManager,pclath
  3601   0027BA  0011               	retfie		f
  3602   0027BC                     __end_of_INTERRUPT_InterruptManager:
  3603                           	callstack 0
  3604                           
  3605 ;; *************** function _INT2_ISR *****************
  3606 ;; Defined at:
  3607 ;;		line 86 in file "mcc_generated_files/ext_int.c"
  3608 ;; Parameters:    Size  Location     Type
  3609 ;;		None
  3610 ;; Auto vars:     Size  Location     Type
  3611 ;;		None
  3612 ;; Return value:  Size  Location     Type
  3613 ;;                  1    wreg      void 
  3614 ;; Registers used:
  3615 ;;		wreg, status,2, status,0, pcl, pclath, pclatu, tosl, cstack
  3616 ;; Tracked objects:
  3617 ;;		On entry : 0/0
  3618 ;;		On exit  : 0/0
  3619 ;;		Unchanged: 0/0
  3620 ;; Data sizes:     COMRAM   BANK5   BANK6   BANK7   BANK8   BANK9  BANK10  BANK11  BANK12  BANK13  BANK14  BANK15  BANK1
      +6  BANK17  BANK18  BANK19  BANK20  BANK21  BANK22  BANK23  BANK24  BANK25  BANK26  BANK27  BANK28  BANK29  BANK30  BANK3
      +1  BANK32  BANK33  BANK34  BANK35  BANK36
  3621 ;;      Params:         0       0       0       0       0       0       0       0       0       0       0       0       
      +0       0       0       0       0       0       0       0       0       0       0       0       0       0       0       
      +0       0       0       0       0       0
  3622 ;;      Locals:         0       0       0       0       0       0       0       0       0       0       0       0       
      +0       0       0       0       0       0       0       0       0       0       0       0       0       0       0       
      +0       0       0       0       0       0
  3623 ;;      Temps:          0       0       0       0       0       0       0       0       0       0       0       0       
      +0       0       0       0       0       0       0       0       0       0       0       0       0       0       0       
      +0       0       0       0       0       0
  3624 ;;      Totals:         0       0       0       0       0       0       0       0       0       0       0       0       
      +0       0       0       0       0       0       0       0       0       0       0       0       0       0       0       
      +0       0       0       0       0       0
  3625 ;;Total ram usage:        0 bytes
  3626 ;; Hardware stack levels used: 1
  3627 ;; Hardware stack levels required when called: 2
  3628 ;; This function calls:
  3629 ;;		_INT2_CallBack
  3630 ;; This function is called by:
  3631 ;;		_INTERRUPT_InterruptManager
  3632 ;; This function uses a non-reentrant model
  3633 ;;
  3634                           
  3635                           	psect	text39
  3636   002D6A                     __ptext39:
  3637                           	callstack 0
  3638   002D6A                     _INT2_ISR:
  3639                           	callstack 120
  3640   002D6A                     
  3641                           ;mcc_generated_files/ext_int.c: 88:     (PIR10bits.INT2IF = 0);
  3642   002D6A  90B8               	bcf	184,0,c	;volatile
  3643   002D6C                     
  3644                           ;mcc_generated_files/ext_int.c: 91:     INT2_CallBack();
  3645   002D6C  EC72  F015         	call	_INT2_CallBack	;wreg free
  3646   002D70  0012               	return		;funcret
  3647   002D72                     __end_of_INT2_ISR:
  3648                           	callstack 0
  3649                           
  3650 ;; *************** function _INT2_CallBack *****************
  3651 ;; Defined at:
  3652 ;;		line 95 in file "mcc_generated_files/ext_int.c"
  3653 ;; Parameters:    Size  Location     Type
  3654 ;;		None
  3655 ;; Auto vars:     Size  Location     Type
  3656 ;;		None
  3657 ;; Return value:  Size  Location     Type
  3658 ;;                  1    wreg      void 
  3659 ;; Registers used:
  3660 ;;		wreg, status,2, status,0, pcl, pclath, pclatu, tosl, cstack
  3661 ;; Tracked objects:
  3662 ;;		On entry : 0/0
  3663 ;;		On exit  : 0/0
  3664 ;;		Unchanged: 0/0
  3665 ;; Data sizes:     COMRAM   BANK5   BANK6   BANK7   BANK8   BANK9  BANK10  BANK11  BANK12  BANK13  BANK14  BANK15  BANK1
      +6  BANK17  BANK18  BANK19  BANK20  BANK21  BANK22  BANK23  BANK24  BANK25  BANK26  BANK27  BANK28  BANK29  BANK30  BANK3
      +1  BANK32  BANK33  BANK34  BANK35  BANK36
  3666 ;;      Params:         0       0       0       0       0       0       0       0       0       0       0       0       
      +0       0       0       0       0       0       0       0       0       0       0       0       0       0       0       
      +0       0       0       0       0       0
  3667 ;;      Locals:         0       0       0       0       0       0       0       0       0       0       0       0       
      +0       0       0       0       0       0       0       0       0       0       0       0       0       0       0       
      +0       0       0       0       0       0
  3668 ;;      Temps:          0       0       0       0       0       0       0       0       0       0       0       0       
      +0       0       0       0       0       0       0       0       0       0       0       0       0       0       0       
      +0       0       0       0       0       0
  3669 ;;      Totals:         0       0       0       0       0       0       0       0       0       0       0       0       
      +0       0       0       0       0       0       0       0       0       0       0       0       0       0       0       
      +0       0       0       0       0       0
  3670 ;;Total ram usage:        0 bytes
  3671 ;; Hardware stack levels used: 1
  3672 ;; Hardware stack levels required when called: 1
  3673 ;; This function calls:
  3674 ;;		Absolute function
  3675 ;;		_INT2_DefaultInterruptHandler
  3676 ;; This function is called by:
  3677 ;;		_INT2_ISR
  3678 ;; This function uses a non-reentrant model
  3679 ;;
  3680                           
  3681                           	psect	text40
  3682   002AE4                     __ptext40:
  3683                           	callstack 0
  3684   002AE4                     _INT2_CallBack:
  3685                           	callstack 120
  3686   002AE4                     
  3687                           ;mcc_generated_files/ext_int.c: 98:     if(INT2_InterruptHandler)
  3688   002AE4  5045               	movf	_INT2_InterruptHandler^(0+1280),w,c
  3689   002AE6  1046               	iorwf	(_INT2_InterruptHandler+1)^(0+1280),w,c
  3690   002AE8  1047               	iorwf	(_INT2_InterruptHandler+2)^(0+1280),w,c
  3691   002AEA  B4D8               	btfsc	status,2,c
  3692   002AEC  EF7A  F015         	goto	i2u9_41
  3693   002AF0  EF7C  F015         	goto	i2u9_40
  3694   002AF4                     i2u9_41:
  3695   002AF4  EF89  F015         	goto	i2l408
  3696   002AF8                     i2u9_40:
  3697   002AF8                     
  3698                           ;mcc_generated_files/ext_int.c: 99:     {;mcc_generated_files/ext_int.c: 100:         IN
      +                          T2_InterruptHandler();
  3699   002AF8  D802               	call	i2u10_48
  3700   002AFA  EF89  F015         	goto	i2u10_49
  3701   002AFE                     i2u10_48:
  3702   002AFE  0005               	push	
  3703   002B00  6EFA               	movwf	pclath,c
  3704   002B02  5045               	movf	_INT2_InterruptHandler^(0+1280),w,c
  3705   002B04  6EFD               	movwf	tosl,c
  3706   002B06  5046               	movf	(_INT2_InterruptHandler+1)^(0+1280),w,c
  3707   002B08  6EFE               	movwf	tosh,c
  3708   002B0A  5047               	movf	(_INT2_InterruptHandler+2)^(0+1280),w,c
  3709   002B0C  6EFF               	movwf	tosu,c
  3710   002B0E  50FA               	movf	pclath,w,c
  3711   002B10  0012               	return		;indir
  3712   002B12                     i2u10_49:
  3713   002B12                     i2l408:
  3714   002B12  0012               	return		;funcret
  3715   002B14                     __end_of_INT2_CallBack:
  3716                           	callstack 0
  3717                           
  3718 ;; *************** function _INT2_DefaultInterruptHandler *****************
  3719 ;; Defined at:
  3720 ;;		line 108 in file "mcc_generated_files/ext_int.c"
  3721 ;; Parameters:    Size  Location     Type
  3722 ;;		None
  3723 ;; Auto vars:     Size  Location     Type
  3724 ;;		None
  3725 ;; Return value:  Size  Location     Type
  3726 ;;                  1    wreg      void 
  3727 ;; Registers used:
  3728 ;;		None
  3729 ;; Tracked objects:
  3730 ;;		On entry : 0/0
  3731 ;;		On exit  : 0/0
  3732 ;;		Unchanged: 0/0
  3733 ;; Data sizes:     COMRAM   BANK5   BANK6   BANK7   BANK8   BANK9  BANK10  BANK11  BANK12  BANK13  BANK14  BANK15  BANK1
      +6  BANK17  BANK18  BANK19  BANK20  BANK21  BANK22  BANK23  BANK24  BANK25  BANK26  BANK27  BANK28  BANK29  BANK30  BANK3
      +1  BANK32  BANK33  BANK34  BANK35  BANK36
  3734 ;;      Params:         0       0       0       0       0       0       0       0       0       0       0       0       
      +0       0       0       0       0       0       0       0       0       0       0       0       0       0       0       
      +0       0       0       0       0       0
  3735 ;;      Locals:         0       0       0       0       0       0       0       0       0       0       0       0       
      +0       0       0       0       0       0       0       0       0       0       0       0       0       0       0       
      +0       0       0       0       0       0
  3736 ;;      Temps:          0       0       0       0       0       0       0       0       0       0       0       0       
      +0       0       0       0       0       0       0       0       0       0       0       0       0       0       0       
      +0       0       0       0       0       0
  3737 ;;      Totals:         0       0       0       0       0       0       0       0       0       0       0       0       
      +0       0       0       0       0       0       0       0       0       0       0       0       0       0       0       
      +0       0       0       0       0       0
  3738 ;;Total ram usage:        0 bytes
  3739 ;; Hardware stack levels used: 1
  3740 ;; This function calls:
  3741 ;;		Nothing
  3742 ;; This function is called by:
  3743 ;;		_EXT_INT_Initialize
  3744 ;;		_INT2_CallBack
  3745 ;; This function uses a non-reentrant model
  3746 ;;
  3747                           
  3748                           	psect	text41
  3749   002D8C                     __ptext41:
  3750                           	callstack 0
  3751   002D8C                     _INT2_DefaultInterruptHandler:
  3752                           	callstack 120
  3753   002D8C  0012               	return		;funcret
  3754   002D8E                     __end_of_INT2_DefaultInterruptHandler:
  3755                           	callstack 0
  3756                           
  3757 ;; *************** function _INT1_ISR *****************
  3758 ;; Defined at:
  3759 ;;		line 60 in file "mcc_generated_files/ext_int.c"
  3760 ;; Parameters:    Size  Location     Type
  3761 ;;		None
  3762 ;; Auto vars:     Size  Location     Type
  3763 ;;		None
  3764 ;; Return value:  Size  Location     Type
  3765 ;;                  1    wreg      void 
  3766 ;; Registers used:
  3767 ;;		wreg, status,2, status,0, pcl, pclath, pclatu, tosl, cstack
  3768 ;; Tracked objects:
  3769 ;;		On entry : 0/0
  3770 ;;		On exit  : 0/0
  3771 ;;		Unchanged: 0/0
  3772 ;; Data sizes:     COMRAM   BANK5   BANK6   BANK7   BANK8   BANK9  BANK10  BANK11  BANK12  BANK13  BANK14  BANK15  BANK1
      +6  BANK17  BANK18  BANK19  BANK20  BANK21  BANK22  BANK23  BANK24  BANK25  BANK26  BANK27  BANK28  BANK29  BANK30  BANK3
      +1  BANK32  BANK33  BANK34  BANK35  BANK36
  3773 ;;      Params:         0       0       0       0       0       0       0       0       0       0       0       0       
      +0       0       0       0       0       0       0       0       0       0       0       0       0       0       0       
      +0       0       0       0       0       0
  3774 ;;      Locals:         0       0       0       0       0       0       0       0       0       0       0       0       
      +0       0       0       0       0       0       0       0       0       0       0       0       0       0       0       
      +0       0       0       0       0       0
  3775 ;;      Temps:          0       0       0       0       0       0       0       0       0       0       0       0       
      +0       0       0       0       0       0       0       0       0       0       0       0       0       0       0       
      +0       0       0       0       0       0
  3776 ;;      Totals:         0       0       0       0       0       0       0       0       0       0       0       0       
      +0       0       0       0       0       0       0       0       0       0       0       0       0       0       0       
      +0       0       0       0       0       0
  3777 ;;Total ram usage:        0 bytes
  3778 ;; Hardware stack levels used: 1
  3779 ;; Hardware stack levels required when called: 2
  3780 ;; This function calls:
  3781 ;;		_INT1_CallBack
  3782 ;; This function is called by:
  3783 ;;		_INTERRUPT_InterruptManager
  3784 ;; This function uses a non-reentrant model
  3785 ;;
  3786                           
  3787                           	psect	text42
  3788   002D72                     __ptext42:
  3789                           	callstack 0
  3790   002D72                     _INT1_ISR:
  3791                           	callstack 120
  3792   002D72                     
  3793                           ;mcc_generated_files/ext_int.c: 62:     (PIR6bits.INT1IF = 0);
  3794   002D72  90B4               	bcf	180,0,c	;volatile
  3795   002D74                     
  3796                           ;mcc_generated_files/ext_int.c: 65:     INT1_CallBack();
  3797   002D74  EC8A  F015         	call	_INT1_CallBack	;wreg free
  3798   002D78  0012               	return		;funcret
  3799   002D7A                     __end_of_INT1_ISR:
  3800                           	callstack 0
  3801                           
  3802 ;; *************** function _INT1_CallBack *****************
  3803 ;; Defined at:
  3804 ;;		line 69 in file "mcc_generated_files/ext_int.c"
  3805 ;; Parameters:    Size  Location     Type
  3806 ;;		None
  3807 ;; Auto vars:     Size  Location     Type
  3808 ;;		None
  3809 ;; Return value:  Size  Location     Type
  3810 ;;                  1    wreg      void 
  3811 ;; Registers used:
  3812 ;;		wreg, status,2, status,0, pcl, pclath, pclatu, tosl, cstack
  3813 ;; Tracked objects:
  3814 ;;		On entry : 0/0
  3815 ;;		On exit  : 0/0
  3816 ;;		Unchanged: 0/0
  3817 ;; Data sizes:     COMRAM   BANK5   BANK6   BANK7   BANK8   BANK9  BANK10  BANK11  BANK12  BANK13  BANK14  BANK15  BANK1
      +6  BANK17  BANK18  BANK19  BANK20  BANK21  BANK22  BANK23  BANK24  BANK25  BANK26  BANK27  BANK28  BANK29  BANK30  BANK3
      +1  BANK32  BANK33  BANK34  BANK35  BANK36
  3818 ;;      Params:         0       0       0       0       0       0       0       0       0       0       0       0       
      +0       0       0       0       0       0       0       0       0       0       0       0       0       0       0       
      +0       0       0       0       0       0
  3819 ;;      Locals:         0       0       0       0       0       0       0       0       0       0       0       0       
      +0       0       0       0       0       0       0       0       0       0       0       0       0       0       0       
      +0       0       0       0       0       0
  3820 ;;      Temps:          0       0       0       0       0       0       0       0       0       0       0       0       
      +0       0       0       0       0       0       0       0       0       0       0       0       0       0       0       
      +0       0       0       0       0       0
  3821 ;;      Totals:         0       0       0       0       0       0       0       0       0       0       0       0       
      +0       0       0       0       0       0       0       0       0       0       0       0       0       0       0       
      +0       0       0       0       0       0
  3822 ;;Total ram usage:        0 bytes
  3823 ;; Hardware stack levels used: 1
  3824 ;; Hardware stack levels required when called: 1
  3825 ;; This function calls:
  3826 ;;		Absolute function
  3827 ;;		_INT1_DefaultInterruptHandler
  3828 ;; This function is called by:
  3829 ;;		_INT1_ISR
  3830 ;; This function uses a non-reentrant model
  3831 ;;
  3832                           
  3833                           	psect	text43
  3834   002B14                     __ptext43:
  3835                           	callstack 0
  3836   002B14                     _INT1_CallBack:
  3837                           	callstack 120
  3838   002B14                     
  3839                           ;mcc_generated_files/ext_int.c: 72:     if(INT1_InterruptHandler)
  3840   002B14  5048               	movf	_INT1_InterruptHandler^(0+1280),w,c
  3841   002B16  1049               	iorwf	(_INT1_InterruptHandler+1)^(0+1280),w,c
  3842   002B18  104A               	iorwf	(_INT1_InterruptHandler+2)^(0+1280),w,c
  3843   002B1A  B4D8               	btfsc	status,2,c
  3844   002B1C  EF92  F015         	goto	i2u7_41
  3845   002B20  EF94  F015         	goto	i2u7_40
  3846   002B24                     i2u7_41:
  3847   002B24  EFA1  F015         	goto	i2l395
  3848   002B28                     i2u7_40:
  3849   002B28                     
  3850                           ;mcc_generated_files/ext_int.c: 73:     {;mcc_generated_files/ext_int.c: 74:         INT
      +                          1_InterruptHandler();
  3851   002B28  D802               	call	i2u8_48
  3852   002B2A  EFA1  F015         	goto	i2u8_49
  3853   002B2E                     i2u8_48:
  3854   002B2E  0005               	push	
  3855   002B30  6EFA               	movwf	pclath,c
  3856   002B32  5048               	movf	_INT1_InterruptHandler^(0+1280),w,c
  3857   002B34  6EFD               	movwf	tosl,c
  3858   002B36  5049               	movf	(_INT1_InterruptHandler+1)^(0+1280),w,c
  3859   002B38  6EFE               	movwf	tosh,c
  3860   002B3A  504A               	movf	(_INT1_InterruptHandler+2)^(0+1280),w,c
  3861   002B3C  6EFF               	movwf	tosu,c
  3862   002B3E  50FA               	movf	pclath,w,c
  3863   002B40  0012               	return		;indir
  3864   002B42                     i2u8_49:
  3865   002B42                     i2l395:
  3866   002B42  0012               	return		;funcret
  3867   002B44                     __end_of_INT1_CallBack:
  3868                           	callstack 0
  3869                           
  3870 ;; *************** function _INT1_DefaultInterruptHandler *****************
  3871 ;; Defined at:
  3872 ;;		line 82 in file "mcc_generated_files/ext_int.c"
  3873 ;; Parameters:    Size  Location     Type
  3874 ;;		None
  3875 ;; Auto vars:     Size  Location     Type
  3876 ;;		None
  3877 ;; Return value:  Size  Location     Type
  3878 ;;                  1    wreg      void 
  3879 ;; Registers used:
  3880 ;;		None
  3881 ;; Tracked objects:
  3882 ;;		On entry : 0/0
  3883 ;;		On exit  : 0/0
  3884 ;;		Unchanged: 0/0
  3885 ;; Data sizes:     COMRAM   BANK5   BANK6   BANK7   BANK8   BANK9  BANK10  BANK11  BANK12  BANK13  BANK14  BANK15  BANK1
      +6  BANK17  BANK18  BANK19  BANK20  BANK21  BANK22  BANK23  BANK24  BANK25  BANK26  BANK27  BANK28  BANK29  BANK30  BANK3
      +1  BANK32  BANK33  BANK34  BANK35  BANK36
  3886 ;;      Params:         0       0       0       0       0       0       0       0       0       0       0       0       
      +0       0       0       0       0       0       0       0       0       0       0       0       0       0       0       
      +0       0       0       0       0       0
  3887 ;;      Locals:         0       0       0       0       0       0       0       0       0       0       0       0       
      +0       0       0       0       0       0       0       0       0       0       0       0       0       0       0       
      +0       0       0       0       0       0
  3888 ;;      Temps:          0       0       0       0       0       0       0       0       0       0       0       0       
      +0       0       0       0       0       0       0       0       0       0       0       0       0       0       0       
      +0       0       0       0       0       0
  3889 ;;      Totals:         0       0       0       0       0       0       0       0       0       0       0       0       
      +0       0       0       0       0       0       0       0       0       0       0       0       0       0       0       
      +0       0       0       0       0       0
  3890 ;;Total ram usage:        0 bytes
  3891 ;; Hardware stack levels used: 1
  3892 ;; This function calls:
  3893 ;;		Nothing
  3894 ;; This function is called by:
  3895 ;;		_EXT_INT_Initialize
  3896 ;;		_INT1_CallBack
  3897 ;; This function uses a non-reentrant model
  3898 ;;
  3899                           
  3900                           	psect	text44
  3901   002D8E                     __ptext44:
  3902                           	callstack 0
  3903   002D8E                     _INT1_DefaultInterruptHandler:
  3904                           	callstack 120
  3905   002D8E  0012               	return		;funcret
  3906   002D90                     __end_of_INT1_DefaultInterruptHandler:
  3907                           	callstack 0
  3908                           
  3909 ;; *************** function _INT0_ISR *****************
  3910 ;; Defined at:
  3911 ;;		line 34 in file "mcc_generated_files/ext_int.c"
  3912 ;; Parameters:    Size  Location     Type
  3913 ;;		None
  3914 ;; Auto vars:     Size  Location     Type
  3915 ;;		None
  3916 ;; Return value:  Size  Location     Type
  3917 ;;                  1    wreg      void 
  3918 ;; Registers used:
  3919 ;;		wreg, status,2, status,0, pcl, pclath, pclatu, tosl, cstack
  3920 ;; Tracked objects:
  3921 ;;		On entry : 0/0
  3922 ;;		On exit  : 0/0
  3923 ;;		Unchanged: 0/0
  3924 ;; Data sizes:     COMRAM   BANK5   BANK6   BANK7   BANK8   BANK9  BANK10  BANK11  BANK12  BANK13  BANK14  BANK15  BANK1
      +6  BANK17  BANK18  BANK19  BANK20  BANK21  BANK22  BANK23  BANK24  BANK25  BANK26  BANK27  BANK28  BANK29  BANK30  BANK3
      +1  BANK32  BANK33  BANK34  BANK35  BANK36
  3925 ;;      Params:         0       0       0       0       0       0       0       0       0       0       0       0       
      +0       0       0       0       0       0       0       0       0       0       0       0       0       0       0       
      +0       0       0       0       0       0
  3926 ;;      Locals:         0       0       0       0       0       0       0       0       0       0       0       0       
      +0       0       0       0       0       0       0       0       0       0       0       0       0       0       0       
      +0       0       0       0       0       0
  3927 ;;      Temps:          0       0       0       0       0       0       0       0       0       0       0       0       
      +0       0       0       0       0       0       0       0       0       0       0       0       0       0       0       
      +0       0       0       0       0       0
  3928 ;;      Totals:         0       0       0       0       0       0       0       0       0       0       0       0       
      +0       0       0       0       0       0       0       0       0       0       0       0       0       0       0       
      +0       0       0       0       0       0
  3929 ;;Total ram usage:        0 bytes
  3930 ;; Hardware stack levels used: 1
  3931 ;; Hardware stack levels required when called: 2
  3932 ;; This function calls:
  3933 ;;		_INT0_CallBack
  3934 ;; This function is called by:
  3935 ;;		_INTERRUPT_InterruptManager
  3936 ;; This function uses a non-reentrant model
  3937 ;;
  3938                           
  3939                           	psect	text45
  3940   002D7A                     __ptext45:
  3941                           	callstack 0
  3942   002D7A                     _INT0_ISR:
  3943                           	callstack 120
  3944   002D7A                     
  3945                           ;mcc_generated_files/ext_int.c: 36:     (PIR1bits.INT0IF = 0);
  3946   002D7A  90AF               	bcf	175,0,c	;volatile
  3947   002D7C                     
  3948                           ;mcc_generated_files/ext_int.c: 39:     INT0_CallBack();
  3949   002D7C  ECA2  F015         	call	_INT0_CallBack	;wreg free
  3950   002D80  0012               	return		;funcret
  3951   002D82                     __end_of_INT0_ISR:
  3952                           	callstack 0
  3953                           
  3954 ;; *************** function _INT0_CallBack *****************
  3955 ;; Defined at:
  3956 ;;		line 43 in file "mcc_generated_files/ext_int.c"
  3957 ;; Parameters:    Size  Location     Type
  3958 ;;		None
  3959 ;; Auto vars:     Size  Location     Type
  3960 ;;		None
  3961 ;; Return value:  Size  Location     Type
  3962 ;;                  1    wreg      void 
  3963 ;; Registers used:
  3964 ;;		wreg, status,2, status,0, pcl, pclath, pclatu, tosl, cstack
  3965 ;; Tracked objects:
  3966 ;;		On entry : 0/0
  3967 ;;		On exit  : 0/0
  3968 ;;		Unchanged: 0/0
  3969 ;; Data sizes:     COMRAM   BANK5   BANK6   BANK7   BANK8   BANK9  BANK10  BANK11  BANK12  BANK13  BANK14  BANK15  BANK1
      +6  BANK17  BANK18  BANK19  BANK20  BANK21  BANK22  BANK23  BANK24  BANK25  BANK26  BANK27  BANK28  BANK29  BANK30  BANK3
      +1  BANK32  BANK33  BANK34  BANK35  BANK36
  3970 ;;      Params:         0       0       0       0       0       0       0       0       0       0       0       0       
      +0       0       0       0       0       0       0       0       0       0       0       0       0       0       0       
      +0       0       0       0       0       0
  3971 ;;      Locals:         0       0       0       0       0       0       0       0       0       0       0       0       
      +0       0       0       0       0       0       0       0       0       0       0       0       0       0       0       
      +0       0       0       0       0       0
  3972 ;;      Temps:          0       0       0       0       0       0       0       0       0       0       0       0       
      +0       0       0       0       0       0       0       0       0       0       0       0       0       0       0       
      +0       0       0       0       0       0
  3973 ;;      Totals:         0       0       0       0       0       0       0       0       0       0       0       0       
      +0       0       0       0       0       0       0       0       0       0       0       0       0       0       0       
      +0       0       0       0       0       0
  3974 ;;Total ram usage:        0 bytes
  3975 ;; Hardware stack levels used: 1
  3976 ;; Hardware stack levels required when called: 1
  3977 ;; This function calls:
  3978 ;;		Absolute function
  3979 ;;		_INT0_DefaultInterruptHandler
  3980 ;; This function is called by:
  3981 ;;		_INT0_ISR
  3982 ;; This function uses a non-reentrant model
  3983 ;;
  3984                           
  3985                           	psect	text46
  3986   002B44                     __ptext46:
  3987                           	callstack 0
  3988   002B44                     _INT0_CallBack:
  3989                           	callstack 120
  3990   002B44                     
  3991                           ;mcc_generated_files/ext_int.c: 46:     if(INT0_InterruptHandler)
  3992   002B44  504B               	movf	_INT0_InterruptHandler^(0+1280),w,c
  3993   002B46  104C               	iorwf	(_INT0_InterruptHandler+1)^(0+1280),w,c
  3994   002B48  104D               	iorwf	(_INT0_InterruptHandler+2)^(0+1280),w,c
  3995   002B4A  B4D8               	btfsc	status,2,c
  3996   002B4C  EFAA  F015         	goto	i2u5_41
  3997   002B50  EFAC  F015         	goto	i2u5_40
  3998   002B54                     i2u5_41:
  3999   002B54  EFB9  F015         	goto	i2l382
  4000   002B58                     i2u5_40:
  4001   002B58                     
  4002                           ;mcc_generated_files/ext_int.c: 47:     {;mcc_generated_files/ext_int.c: 48:         INT
      +                          0_InterruptHandler();
  4003   002B58  D802               	call	i2u6_48
  4004   002B5A  EFB9  F015         	goto	i2u6_49
  4005   002B5E                     i2u6_48:
  4006   002B5E  0005               	push	
  4007   002B60  6EFA               	movwf	pclath,c
  4008   002B62  504B               	movf	_INT0_InterruptHandler^(0+1280),w,c
  4009   002B64  6EFD               	movwf	tosl,c
  4010   002B66  504C               	movf	(_INT0_InterruptHandler+1)^(0+1280),w,c
  4011   002B68  6EFE               	movwf	tosh,c
  4012   002B6A  504D               	movf	(_INT0_InterruptHandler+2)^(0+1280),w,c
  4013   002B6C  6EFF               	movwf	tosu,c
  4014   002B6E  50FA               	movf	pclath,w,c
  4015   002B70  0012               	return		;indir
  4016   002B72                     i2u6_49:
  4017   002B72                     i2l382:
  4018   002B72  0012               	return		;funcret
  4019   002B74                     __end_of_INT0_CallBack:
  4020                           	callstack 0
  4021                           
  4022 ;; *************** function _INT0_DefaultInterruptHandler *****************
  4023 ;; Defined at:
  4024 ;;		line 56 in file "mcc_generated_files/ext_int.c"
  4025 ;; Parameters:    Size  Location     Type
  4026 ;;		None
  4027 ;; Auto vars:     Size  Location     Type
  4028 ;;		None
  4029 ;; Return value:  Size  Location     Type
  4030 ;;                  1    wreg      void 
  4031 ;; Registers used:
  4032 ;;		None
  4033 ;; Tracked objects:
  4034 ;;		On entry : 0/0
  4035 ;;		On exit  : 0/0
  4036 ;;		Unchanged: 0/0
  4037 ;; Data sizes:     COMRAM   BANK5   BANK6   BANK7   BANK8   BANK9  BANK10  BANK11  BANK12  BANK13  BANK14  BANK15  BANK1
      +6  BANK17  BANK18  BANK19  BANK20  BANK21  BANK22  BANK23  BANK24  BANK25  BANK26  BANK27  BANK28  BANK29  BANK30  BANK3
      +1  BANK32  BANK33  BANK34  BANK35  BANK36
  4038 ;;      Params:         0       0       0       0       0       0       0       0       0       0       0       0       
      +0       0       0       0       0       0       0       0       0       0       0       0       0       0       0       
      +0       0       0       0       0       0
  4039 ;;      Locals:         0       0       0       0       0       0       0       0       0       0       0       0       
      +0       0       0       0       0       0       0       0       0       0       0       0       0       0       0       
      +0       0       0       0       0       0
  4040 ;;      Temps:          0       0       0       0       0       0       0       0       0       0       0       0       
      +0       0       0       0       0       0       0       0       0       0       0       0       0       0       0       
      +0       0       0       0       0       0
  4041 ;;      Totals:         0       0       0       0       0       0       0       0       0       0       0       0       
      +0       0       0       0       0       0       0       0       0       0       0       0       0       0       0       
      +0       0       0       0       0       0
  4042 ;;Total ram usage:        0 bytes
  4043 ;; Hardware stack levels used: 1
  4044 ;; This function calls:
  4045 ;;		Nothing
  4046 ;; This function is called by:
  4047 ;;		_EXT_INT_Initialize
  4048 ;;		_INT0_CallBack
  4049 ;; This function uses a non-reentrant model
  4050 ;;
  4051                           
  4052                           	psect	text47
  4053   002D90                     __ptext47:
  4054                           	callstack 0
  4055   002D90                     _INT0_DefaultInterruptHandler:
  4056                           	callstack 120
  4057   002D90  0012               	return		;funcret
  4058   002D92                     __end_of_INT0_DefaultInterruptHandler:
  4059                           	callstack 0
  4060                           
  4061                           ;
  4062                           ; Interrupt Vector Table @ 0x8
  4063                           ;
  4064                           
  4065                           	psect	ivt0x8
  4066   000008                     __pivt0x8:
  4067                           	callstack 0
  4068   000008                     ivt0x8_base:
  4069                           	callstack 0
  4070                           
  4071                           ; high-priority vector
  4072   000008  EF9F  F013         	goto	_INTERRUPT_InterruptManager
  4073   000018                     	org	16
  4074                           
  4075                           ; low-priority vector
  4076   000018  00FF               	reset	
  4077                           
  4078                           	psect	text48
  4079   000000                     __ptext48:
  4080                           	callstack 0
  4081   000000                     
  4082                           	psect	rparam
  4083   000000                     
  4084                           	psect	idloc
  4085                           
  4086                           ;Config register IDLOC0 @ 0x200000
  4087                           ;	unspecified, using default values
  4088   200000                     	org	2097152
  4089   200000  0FFF               	dw	4095
  4090                           
  4091                           ;Config register IDLOC1 @ 0x200002
  4092                           ;	unspecified, using default values
  4093   200002                     	org	2097154
  4094   200002  0FFF               	dw	4095
  4095                           
  4096                           ;Config register IDLOC2 @ 0x200004
  4097                           ;	unspecified, using default values
  4098   200004                     	org	2097156
  4099   200004  0FFF               	dw	4095
  4100                           
  4101                           ;Config register IDLOC3 @ 0x200006
  4102                           ;	unspecified, using default values
  4103   200006                     	org	2097158
  4104   200006  0FFF               	dw	4095
  4105                           
  4106                           ;Config register IDLOC4 @ 0x200008
  4107                           ;	unspecified, using default values
  4108   200008                     	org	2097160
  4109   200008  0FFF               	dw	4095
  4110                           
  4111                           ;Config register IDLOC5 @ 0x20000A
  4112                           ;	unspecified, using default values
  4113   20000A                     	org	2097162
  4114   20000A  0FFF               	dw	4095
  4115                           
  4116                           ;Config register IDLOC6 @ 0x20000C
  4117                           ;	unspecified, using default values
  4118   20000C                     	org	2097164
  4119   20000C  0FFF               	dw	4095
  4120                           
  4121                           ;Config register IDLOC7 @ 0x20000E
  4122                           ;	unspecified, using default values
  4123   20000E                     	org	2097166
  4124   20000E  0FFF               	dw	4095
  4125                           
  4126                           ;Config register IDLOC8 @ 0x200010
  4127                           ;	unspecified, using default values
  4128   200010                     	org	2097168
  4129   200010  0FFF               	dw	4095
  4130                           
  4131                           ;Config register IDLOC9 @ 0x200012
  4132                           ;	unspecified, using default values
  4133   200012                     	org	2097170
  4134   200012  0FFF               	dw	4095
  4135                           
  4136                           ;Config register IDLOC10 @ 0x200014
  4137                           ;	unspecified, using default values
  4138   200014                     	org	2097172
  4139   200014  0FFF               	dw	4095
  4140                           
  4141                           ;Config register IDLOC11 @ 0x200016
  4142                           ;	unspecified, using default values
  4143   200016                     	org	2097174
  4144   200016  0FFF               	dw	4095
  4145                           
  4146                           ;Config register IDLOC12 @ 0x200018
  4147                           ;	unspecified, using default values
  4148   200018                     	org	2097176
  4149   200018  0FFF               	dw	4095
  4150                           
  4151                           ;Config register IDLOC13 @ 0x20001A
  4152                           ;	unspecified, using default values
  4153   20001A                     	org	2097178
  4154   20001A  0FFF               	dw	4095
  4155                           
  4156                           ;Config register IDLOC14 @ 0x20001C
  4157                           ;	unspecified, using default values
  4158   20001C                     	org	2097180
  4159   20001C  0FFF               	dw	4095
  4160                           
  4161                           ;Config register IDLOC15 @ 0x20001E
  4162                           ;	unspecified, using default values
  4163   20001E                     	org	2097182
  4164   20001E  0FFF               	dw	4095
  4165                           
  4166                           ;Config register IDLOC16 @ 0x200020
  4167                           ;	unspecified, using default values
  4168   200020                     	org	2097184
  4169   200020  0FFF               	dw	4095
  4170                           
  4171                           ;Config register IDLOC17 @ 0x200022
  4172                           ;	unspecified, using default values
  4173   200022                     	org	2097186
  4174   200022  0FFF               	dw	4095
  4175                           
  4176                           ;Config register IDLOC18 @ 0x200024
  4177                           ;	unspecified, using default values
  4178   200024                     	org	2097188
  4179   200024  0FFF               	dw	4095
  4180                           
  4181                           ;Config register IDLOC19 @ 0x200026
  4182                           ;	unspecified, using default values
  4183   200026                     	org	2097190
  4184   200026  0FFF               	dw	4095
  4185                           
  4186                           ;Config register IDLOC20 @ 0x200028
  4187                           ;	unspecified, using default values
  4188   200028                     	org	2097192
  4189   200028  0FFF               	dw	4095
  4190                           
  4191                           ;Config register IDLOC21 @ 0x20002A
  4192                           ;	unspecified, using default values
  4193   20002A                     	org	2097194
  4194   20002A  0FFF               	dw	4095
  4195                           
  4196                           ;Config register IDLOC22 @ 0x20002C
  4197                           ;	unspecified, using default values
  4198   20002C                     	org	2097196
  4199   20002C  0FFF               	dw	4095
  4200                           
  4201                           ;Config register IDLOC23 @ 0x20002E
  4202                           ;	unspecified, using default values
  4203   20002E                     	org	2097198
  4204   20002E  0FFF               	dw	4095
  4205                           
  4206                           ;Config register IDLOC24 @ 0x200030
  4207                           ;	unspecified, using default values
  4208   200030                     	org	2097200
  4209   200030  0FFF               	dw	4095
  4210                           
  4211                           ;Config register IDLOC25 @ 0x200032
  4212                           ;	unspecified, using default values
  4213   200032                     	org	2097202
  4214   200032  0FFF               	dw	4095
  4215                           
  4216                           ;Config register IDLOC26 @ 0x200034
  4217                           ;	unspecified, using default values
  4218   200034                     	org	2097204
  4219   200034  0FFF               	dw	4095
  4220                           
  4221                           ;Config register IDLOC27 @ 0x200036
  4222                           ;	unspecified, using default values
  4223   200036                     	org	2097206
  4224   200036  0FFF               	dw	4095
  4225                           
  4226                           ;Config register IDLOC28 @ 0x200038
  4227                           ;	unspecified, using default values
  4228   200038                     	org	2097208
  4229   200038  0FFF               	dw	4095
  4230                           
  4231                           ;Config register IDLOC29 @ 0x20003A
  4232                           ;	unspecified, using default values
  4233   20003A                     	org	2097210
  4234   20003A  0FFF               	dw	4095
  4235                           
  4236                           ;Config register IDLOC30 @ 0x20003C
  4237                           ;	unspecified, using default values
  4238   20003C                     	org	2097212
  4239   20003C  0FFF               	dw	4095
  4240                           
  4241                           ;Config register IDLOC31 @ 0x20003E
  4242                           ;	unspecified, using default values
  4243   20003E                     	org	2097214
  4244   20003E  0FFF               	dw	4095
  4245                           
  4246                           	psect	config
  4247                           
  4248                           ;Config register CONFIG1 @ 0x300000
  4249                           ;	External Oscillator Selection
  4250                           ;	FEXTOSC = OFF, Oscillator not enabled
  4251                           ;	Reset Oscillator Selection
  4252                           ;	RSTOSC = HFINTOSC_1MHZ, HFINTOSC with HFFRQ = 4 MHz and CDIV = 4:1
  4253   300000                     	org	3145728
  4254   300000  EC                 	db	236
  4255                           
  4256                           ;Config register CONFIG2 @ 0x300001
  4257                           ;	Clock out Enable bit
  4258                           ;	CLKOUTEN = OFF, CLKOUT function is disabled
  4259                           ;	PRLOCKED One-Way Set Enable bit
  4260                           ;	PR1WAY = ON, PRLOCKED bit can be cleared and set only once
  4261                           ;	Clock Switch Enable bit
  4262                           ;	CSWEN = ON, Writing to NOSC and NDIV is allowed
  4263                           ;	Fail-Safe Clock Monitor Enable bit
  4264                           ;	FCMEN = ON, Fail-Safe Clock Monitor enabled
  4265   300001                     	org	3145729
  4266   300001  FF                 	db	255
  4267                           
  4268                           ;Config register CONFIG3 @ 0x300002
  4269                           ;	MCLR Enable bit
  4270                           ;	MCLRE = EXTMCLR, If LVP = 0, MCLR pin is MCLR; If LVP = 1, RE3 pin function is MCLR
  4271                           ;	Power-up timer selection bits
  4272                           ;	PWRTS = PWRT_OFF, PWRT is disabled
  4273                           ;	Multi-vector enable bit
  4274                           ;	MVECEN = OFF, Interrupt contoller does not use vector table to prioritze interrupts
  4275                           ;	IVTLOCK bit One-way set enable bit
  4276                           ;	IVT1WAY = ON, IVTLOCKED bit can be cleared and set only once
  4277                           ;	Low Power BOR Enable bit
  4278                           ;	LPBOREN = OFF, Low-Power BOR disabled
  4279                           ;	Brown-out Reset Enable bits
  4280                           ;	BOREN = SBORDIS, Brown-out Reset enabled , SBOREN bit is ignored
  4281   300002                     	org	3145730
  4282   300002  F7                 	db	247
  4283                           
  4284                           ;Config register CONFIG4 @ 0x300003
  4285                           ;	Brown-out Reset Voltage Selection bits
  4286                           ;	BORV = VBOR_1P9, Brown-out Reset Voltage (VBOR) set to 1.9V
  4287                           ;	ZCD Disable bit
  4288                           ;	ZCD = OFF, ZCD module is disabled. ZCD can be enabled by setting the ZCDSEN bit of ZCD
      +                          CON
  4289                           ;	PPSLOCK bit One-Way Set Enable bit
  4290                           ;	PPS1WAY = ON, PPSLOCKED bit can be cleared and set only once; PPS registers remain loc
      +                          ked after one clear/set cycle
  4291                           ;	Stack Full/Underflow Reset Enable bit
  4292                           ;	STVREN = ON, Stack full/underflow will cause Reset
  4293                           ;	Low Voltage Programming Enable bit
  4294                           ;	LVP = ON, Low voltage programming enabled. MCLR/VPP pin function is MCLR. MCLRE config
      +                          uration bit is ignored
  4295                           ;	Extended Instruction Set Enable bit
  4296                           ;	XINST = OFF, Extended Instruction Set and Indexed Addressing Mode disabled
  4297   300003                     	org	3145731
  4298   300003  FF                 	db	255
  4299                           
  4300                           ;Config register CONFIG5 @ 0x300004
  4301                           ;	WDT Period selection bits
  4302                           ;	WDTCPS = WDTCPS_31, Divider ratio 1:65536; software control of WDTPS
  4303                           ;	WDT operating mode
  4304                           ;	WDTE = OFF, WDT Disabled; SWDTEN is ignored
  4305   300004                     	org	3145732
  4306   300004  9F                 	db	159
  4307                           
  4308                           ;Config register CONFIG6 @ 0x300005
  4309                           ;	WDT Window Select bits
  4310                           ;	WDTCWS = WDTCWS_7, window always open (100%); software control; keyed access not requi
      +                          red
  4311                           ;	WDT input clock selector
  4312                           ;	WDTCCS = SC, Software Control
  4313   300005                     	org	3145733
  4314   300005  FF                 	db	255
  4315                           
  4316                           ;Config register CONFIG7 @ 0x300006
  4317                           ;	Boot Block Size selection bits
  4318                           ;	BBSIZE = BBSIZE_512, Boot Block size is 512 words
  4319                           ;	Boot Block enable bit
  4320                           ;	BBEN = OFF, Boot block disabled
  4321                           ;	Storage Area Flash enable bit
  4322                           ;	SAFEN = OFF, SAF disabled
  4323                           ;	Background Debugger
  4324                           ;	DEBUG = OFF, Background Debugger disabled
  4325   300006                     	org	3145734
  4326   300006  FF                 	db	255
  4327                           
  4328                           ;Config register CONFIG8 @ 0x300007
  4329                           ;	Boot Block Write Protection bit
  4330                           ;	WRTB = OFF, Boot Block not Write protected
  4331                           ;	Configuration Register Write Protection bit
  4332                           ;	WRTC = OFF, Configuration registers not Write protected
  4333                           ;	Data EEPROM Write Protection bit
  4334                           ;	WRTD = OFF, Data EEPROM not Write protected
  4335                           ;	SAF Write protection bit
  4336                           ;	WRTSAF = OFF, SAF not Write Protected
  4337                           ;	Application Block write protection bit
  4338                           ;	WRTAPP = OFF, Application Block not write protected
  4339   300007                     	org	3145735
  4340   300007  FF                 	db	255
  4341                           
  4342                           ; Padding undefined space
  4343   300008                     	org	3145736
  4344   300008  FF                 	db	255
  4345                           
  4346                           ;Config register CONFIG10 @ 0x300009
  4347                           ;	PFM and Data EEPROM Code Protection bit
  4348                           ;	CP = OFF, PFM and Data EEPROM code protection disabled
  4349   300009                     	org	3145737
  4350   300009  FF                 	db	255
  4351                           tosu	equ	0x4FF
  4352                           tosh	equ	0x4FE
  4353                           tosl	equ	0x4FD
  4354                           stkptr	equ	0x4FC
  4355                           pclatu	equ	0x4FB
  4356                           pclath	equ	0x4FA
  4357                           pcl	equ	0x4F9
  4358                           tblptru	equ	0x4F8
  4359                           tblptrh	equ	0x4F7
  4360                           tblptrl	equ	0x4F6
  4361                           tablat	equ	0x4F5
  4362                           prodh	equ	0x4F4
  4363                           prodl	equ	0x4F3
  4364                           indf0	equ	0x4EF
  4365                           postinc0	equ	0x4EE
  4366                           postdec0	equ	0x4ED
  4367                           preinc0	equ	0x4EC
  4368                           plusw0	equ	0x4EB
  4369                           fsr0h	equ	0x4EA
  4370                           fsr0l	equ	0x4E9
  4371                           wreg	equ	0x4E8
  4372                           indf1	equ	0x4E7
  4373                           postinc1	equ	0x4E6
  4374                           postdec1	equ	0x4E5
  4375                           preinc1	equ	0x4E4
  4376                           plusw1	equ	0x4E3
  4377                           fsr1h	equ	0x4E2
  4378                           fsr1l	equ	0x4E1
  4379                           bsr	equ	0x4E0
  4380                           indf2	equ	0x4DF
  4381                           postinc2	equ	0x4DE
  4382                           postdec2	equ	0x4DD
  4383                           preinc2	equ	0x4DC
  4384                           plusw2	equ	0x4DB
  4385                           fsr2h	equ	0x4DA
  4386                           fsr2l	equ	0x4D9
  4387                           status	equ	0x4D8

Data Sizes:
    Strings     0
    Constant    62
    Data        0
    BSS         44
    Persistent  54
    Stack       0

Auto Spaces:
    Space          Size  Autos    Used
    COMRAM           95      7      93
    BANK5           160      0      12
    BANK6           256      0       0
    BANK7           256      0       0
    BANK8           256      0       0
    BANK9           256      0       0
    BANK10          256      0       0
    BANK11          256      0       0
    BANK12          256      0       0
    BANK13          256      0       0
    BANK14          256      0       0
    BANK15          256      0       0
    BANK16          256      0       0
    BANK17          256      0       0
    BANK18          256      0       0
    BANK19          256      0       0
    BANK20          256      0       0
    BANK21          256      0       0
    BANK22          256      0       0
    BANK23          256      0       0
    BANK24          256      0       0
    BANK25          256      0       0
    BANK26          256      0       0
    BANK27          256      0       0
    BANK28          256      0       0
    BANK29          256      0       0
    BANK30          256      0       0
    BANK31          256      0       0
    BANK32          256      0       0
    BANK33          256      0       0
    BANK34          256      0       0
    BANK35          256      0       0
    BANK36          256      0       0

Pointer List with Targets:

    I2C1_Read1ByteRegister@returnValue.data	PTR unsigned char  size(2) Largest target is 0

    I2C1_Read2ByteRegister@returnValue.data	PTR unsigned char  size(2) Largest target is 0

    I2C1_Write1ByteRegister@data.data	PTR unsigned char  size(2) Largest target is 0

    I2C1_Write2ByteRegister@data.data	PTR unsigned char  size(2) Largest target is 0

    I2C1_DO_TX$5499$0	PTR void  size(2) Largest target is 5
		 -> I2C1_ReadDataBlock@bufferBlock(COMRAM[4]), I2C1_Write2ByteRegister@data(COMRAM[2]), I2C1_Write1ByteRegister@data(COMRAM[1]), I2C1_Read2ByteRegister@returnValue(COMRAM[2]), 
		 -> NULL(NULL[0]), I2C1_Read1ByteRegister@returnValue(COMRAM[1]), 

    I2C1_DO_TX_EMPTY$5505$0	PTR void  size(2) Largest target is 5
		 -> I2C1_ReadDataBlock@bufferBlock(COMRAM[4]), I2C1_Write2ByteRegister@data(COMRAM[2]), I2C1_Write1ByteRegister@data(COMRAM[1]), I2C1_Read2ByteRegister@returnValue(COMRAM[2]), 
		 -> NULL(NULL[0]), I2C1_Read1ByteRegister@returnValue(COMRAM[1]), 

    I2C1_DO_RX_EMPTY$5511$0	PTR void  size(2) Largest target is 5
		 -> I2C1_ReadDataBlock@bufferBlock(COMRAM[4]), I2C1_Write2ByteRegister@data(COMRAM[2]), I2C1_Write1ByteRegister@data(COMRAM[1]), I2C1_Read2ByteRegister@returnValue(COMRAM[2]), 
		 -> NULL(NULL[0]), I2C1_Read1ByteRegister@returnValue(COMRAM[1]), 

    cb$0	PTR void  size(2) Largest target is 5
		 -> I2C1_ReadDataBlock@bufferBlock(COMRAM[4]), I2C1_Write2ByteRegister@data(COMRAM[2]), I2C1_Write1ByteRegister@data(COMRAM[1]), I2C1_Read2ByteRegister@returnValue(COMRAM[2]), 
		 -> NULL(NULL[0]), I2C1_Read1ByteRegister@returnValue(COMRAM[1]), 

    cb$0	PTR void  size(2) Largest target is 5
		 -> I2C1_ReadDataBlock@bufferBlock(COMRAM[4]), I2C1_Write2ByteRegister@data(COMRAM[2]), I2C1_Write1ByteRegister@data(COMRAM[1]), I2C1_Read2ByteRegister@returnValue(COMRAM[2]), 
		 -> NULL(NULL[0]), I2C1_Read1ByteRegister@returnValue(COMRAM[1]), 

    S2319$0$0	PTR void  size(2) Largest target is 5
		 -> I2C1_ReadDataBlock@bufferBlock(COMRAM[4]), I2C1_Write2ByteRegister@data(COMRAM[2]), I2C1_Write1ByteRegister@data(COMRAM[1]), I2C1_Read2ByteRegister@returnValue(COMRAM[2]), 
		 -> NULL(NULL[0]), I2C1_Read1ByteRegister@returnValue(COMRAM[1]), 

    S2319$data_ptr	PTR unsigned char  size(2) Largest target is 5
		 -> I2C1_ReadDataBlock@reg(COMRAM[1]), I2C1_ReadDataBlock@bufferBlock(COMRAM[4]), I2C1_Write2ByteRegister@reg(COMRAM[1]), I2C1_Write2ByteRegister@data(COMRAM[2]), 
		 -> I2C1_Write1ByteRegister@reg(COMRAM[1]), I2C1_Write1ByteRegister@data(COMRAM[1]), I2C1_Read2ByteRegister@reg(COMRAM[1]), I2C1_Read2ByteRegister@returnValue(COMRAM[2]), 
		 -> NULL(NULL[0]), I2C1_Read1ByteRegister@reg(COMRAM[1]), I2C1_Read1ByteRegister@returnValue(COMRAM[1]), 

    I2C1_Status.data_ptr	PTR unsigned char  size(2) Largest target is 5
		 -> I2C1_Read1ByteRegister@returnValue.data(COMRAM[3]), I2C1_Read2ByteRegister@returnValue.data(COMRAM[3]), I2C1_Write1ByteRegister@data.data(COMRAM[3]), I2C1_Write2ByteRegister@data.data(COMRAM[3]), 
		 -> I2C1_ReadDataBlock@reg(COMRAM[1]), I2C1_ReadDataBlock@bufferBlock(COMRAM[4]), bufferBlock.data(COMRAM[3]), I2C1_Write2ByteRegister@reg(COMRAM[1]), 
		 -> I2C1_Write2ByteRegister@data(COMRAM[2]), I2C1_Write1ByteRegister@reg(COMRAM[1]), I2C1_Write1ByteRegister@data(COMRAM[1]), I2C1_Read2ByteRegister@reg(COMRAM[1]), 
		 -> I2C1_Read2ByteRegister@returnValue(COMRAM[2]), NULL(NULL[0]), I2C1_Read1ByteRegister@reg(COMRAM[1]), I2C1_Read1ByteRegister@returnValue(COMRAM[1]), 

    S2319$callbackPayload	PTR void [6] size(2) Largest target is 5
		 -> I2C1_ReadDataBlock@bufferBlock(COMRAM[4]), I2C1_Write2ByteRegister@data(COMRAM[2]), I2C1_Write1ByteRegister@data(COMRAM[1]), I2C1_Read2ByteRegister@returnValue(COMRAM[2]), 
		 -> NULL(NULL[0]), I2C1_Read1ByteRegister@returnValue(COMRAM[1]), 

    I2C1_Status.callbackPayload	PTR void [6] size(2) Largest target is 5
		 -> I2C1_ReadDataBlock@bufferBlock(COMRAM[4]), I2C1_Write2ByteRegister@data(COMRAM[2]), I2C1_Write1ByteRegister@data(COMRAM[1]), I2C1_Read2ByteRegister@returnValue(COMRAM[2]), 
		 -> NULL(NULL[0]), I2C1_Read1ByteRegister@returnValue(COMRAM[1]), 

    S2319$callbackTable	PTR FTN(PTR void ,)enum E360[6] size(3) Largest target is 1
		 -> I2C1_CallbackReturnReset(), I2C1_CallbackReturnStop(), Absolute function(), rdBlkRegCompleteHandler(), 
		 -> wr2RegCompleteHandler(), wr1RegCompleteHandler(), rd2RegCompleteHandler(), rd1RegCompleteHandler(), 

    I2C1_Status.callbackTable	PTR FTN(PTR void ,)enum E360[6] size(3) Largest target is 1
		 -> I2C1_CallbackReturnReset(), I2C1_CallbackReturnStop(), Absolute function(), rdBlkRegCompleteHandler(), 
		 -> wr2RegCompleteHandler(), wr1RegCompleteHandler(), rd2RegCompleteHandler(), rd1RegCompleteHandler(), 

    i2c1_fsmStateTable	const PTR FTN()enum E17079[19] size(3) Largest target is 1
		 -> I2C1_DO_BUS_ERROR(), I2C1_DO_BUS_COLLISION(), I2C1_DO_ADDRESS_NACK(), I2C1_DO_RESET(), 
		 -> I2C1_DO_RX_NACK_RESTART(), I2C1_DO_RX_NACK_STOP(), I2C1_DO_TX_ACK(), I2C1_DO_RX_ACK(), 
		 -> I2C1_DO_SEND_STOP(), I2C1_DO_SEND_RESTART(), I2C1_DO_SEND_RESTART_WRITE(), I2C1_DO_SEND_RESTART_READ(), 
		 -> I2C1_DO_RX_EMPTY(), I2C1_DO_TX_EMPTY(), I2C1_DO_RX(), I2C1_DO_TX(), 
		 -> I2C1_DO_SEND_ADR_WRITE(), I2C1_DO_SEND_ADR_READ(), I2C1_DO_IDLE(), 

    UART2_SetErrorHandler@interruptHandler	PTR FTN()void  size(3) Largest target is 1
		 -> UART2_DefaultErrorHandler(), 

    UART2_SetOverrunErrorHandler@interruptHandler	PTR FTN()void  size(3) Largest target is 1
		 -> UART2_DefaultOverrunErrorHandler(), 

    UART2_SetFramingErrorHandler@interruptHandler	PTR FTN()void  size(3) Largest target is 1
		 -> UART2_DefaultFramingErrorHandler(), 

    UART2_ErrorHandler	PTR FTN()void  size(3) Largest target is 1
		 -> UART2_DefaultErrorHandler(), Absolute function(), 

    UART2_OverrunErrorHandler	PTR FTN()void  size(3) Largest target is 1
		 -> UART2_DefaultOverrunErrorHandler(), Absolute function(), 

    UART2_FramingErrorHandler	PTR FTN()void  size(3) Largest target is 1
		 -> UART2_DefaultFramingErrorHandler(), Absolute function(), 

    UART1_SetErrorHandler@interruptHandler	PTR FTN()void  size(3) Largest target is 1
		 -> UART1_DefaultErrorHandler(), 

    UART1_SetOverrunErrorHandler@interruptHandler	PTR FTN()void  size(3) Largest target is 1
		 -> UART1_DefaultOverrunErrorHandler(), 

    UART1_SetFramingErrorHandler@interruptHandler	PTR FTN()void  size(3) Largest target is 1
		 -> UART1_DefaultFramingErrorHandler(), 

    UART1_ErrorHandler	PTR FTN()void  size(3) Largest target is 1
		 -> UART1_DefaultErrorHandler(), Absolute function(), 

    UART1_OverrunErrorHandler	PTR FTN()void  size(3) Largest target is 1
		 -> UART1_DefaultOverrunErrorHandler(), Absolute function(), 

    UART1_FramingErrorHandler	PTR FTN()void  size(3) Largest target is 1
		 -> UART1_DefaultFramingErrorHandler(), Absolute function(), 

    PWM2_16BIT_Period_SetInterruptHandler@InterruptHandler	PTR FTN()void  size(3) Largest target is 1
		 -> PWM2_16BIT_Period_DefaultInterruptHandler(), 

    PWM2_16BIT_Slice1Output2_SetInterruptHandler@InterruptHandler	PTR FTN()void  size(3) Largest target is 1
		 -> PWM2_16BIT_Slice1Output2_DefaultInterruptHandler(), 

    PWM2_16BIT_Slice1Output1_SetInterruptHandler@InterruptHandler	PTR FTN()void  size(3) Largest target is 1
		 -> PWM2_16BIT_Slice1Output1_DefaultInterruptHandler(), 

    PWM2_16BIT_Period_InterruptHandler	PTR FTN()void  size(3) Largest target is 1
		 -> PWM2_16BIT_Period_DefaultInterruptHandler(), Absolute function(), 

    PWM2_16BIT_Slice1Output2_InterruptHandler	PTR FTN()void  size(3) Largest target is 1
		 -> PWM2_16BIT_Slice1Output2_DefaultInterruptHandler(), Absolute function(), 

    PWM2_16BIT_Slice1Output1_InterruptHandler	PTR FTN()void  size(3) Largest target is 1
		 -> PWM2_16BIT_Slice1Output1_DefaultInterruptHandler(), Absolute function(), 

    PWM3_16BIT_Period_SetInterruptHandler@InterruptHandler	PTR FTN()void  size(3) Largest target is 1
		 -> PWM3_16BIT_Period_DefaultInterruptHandler(), 

    PWM3_16BIT_Slice1Output2_SetInterruptHandler@InterruptHandler	PTR FTN()void  size(3) Largest target is 1
		 -> PWM3_16BIT_Slice1Output2_DefaultInterruptHandler(), 

    PWM3_16BIT_Slice1Output1_SetInterruptHandler@InterruptHandler	PTR FTN()void  size(3) Largest target is 1
		 -> PWM3_16BIT_Slice1Output1_DefaultInterruptHandler(), 

    PWM3_16BIT_Period_InterruptHandler	PTR FTN()void  size(3) Largest target is 1
		 -> PWM3_16BIT_Period_DefaultInterruptHandler(), Absolute function(), 

    PWM3_16BIT_Slice1Output2_InterruptHandler	PTR FTN()void  size(3) Largest target is 1
		 -> PWM3_16BIT_Slice1Output2_DefaultInterruptHandler(), Absolute function(), 

    PWM3_16BIT_Slice1Output1_InterruptHandler	PTR FTN()void  size(3) Largest target is 1
		 -> PWM3_16BIT_Slice1Output1_DefaultInterruptHandler(), Absolute function(), 

    INT2_SetInterruptHandler@InterruptHandler	PTR FTN()void  size(3) Largest target is 1
		 -> INT2_DefaultInterruptHandler(), 

    INT2_InterruptHandler	PTR FTN()void  size(3) Largest target is 1
		 -> INT2_DefaultInterruptHandler(), Absolute function(), 

    INT1_SetInterruptHandler@InterruptHandler	PTR FTN()void  size(3) Largest target is 1
		 -> INT1_DefaultInterruptHandler(), 

    INT1_InterruptHandler	PTR FTN()void  size(3) Largest target is 1
		 -> INT1_DefaultInterruptHandler(), Absolute function(), 

    INT0_SetInterruptHandler@InterruptHandler	PTR FTN()void  size(3) Largest target is 1
		 -> INT0_DefaultInterruptHandler(), 

    INT0_InterruptHandler	PTR FTN()void  size(3) Largest target is 1
		 -> INT0_DefaultInterruptHandler(), Absolute function(), 

    PWM1_16BIT_Period_SetInterruptHandler@InterruptHandler	PTR FTN()void  size(3) Largest target is 1
		 -> PWM1_16BIT_Period_DefaultInterruptHandler(), 

    PWM1_16BIT_Slice1Output2_SetInterruptHandler@InterruptHandler	PTR FTN()void  size(3) Largest target is 1
		 -> PWM1_16BIT_Slice1Output2_DefaultInterruptHandler(), 

    PWM1_16BIT_Slice1Output1_SetInterruptHandler@InterruptHandler	PTR FTN()void  size(3) Largest target is 1
		 -> PWM1_16BIT_Slice1Output1_DefaultInterruptHandler(), 

    PWM1_16BIT_Period_InterruptHandler	PTR FTN()void  size(3) Largest target is 1
		 -> Absolute function(), PWM1_16BIT_Period_DefaultInterruptHandler(), 

    PWM1_16BIT_Slice1Output2_InterruptHandler	PTR FTN()void  size(3) Largest target is 1
		 -> Absolute function(), PWM1_16BIT_Slice1Output2_DefaultInterruptHandler(), 

    PWM1_16BIT_Slice1Output1_InterruptHandler	PTR FTN()void  size(3) Largest target is 1
		 -> Absolute function(), PWM1_16BIT_Slice1Output1_DefaultInterruptHandler(), 

    rdBlkRegCompleteHandler@ptr.data	PTR unsigned char  size(2) Largest target is 0

    S96$data	PTR unsigned char  size(2) Largest target is 0

    bufferBlock.data	PTR unsigned char  size(2) Largest target is 0


Critical Paths under _main in COMRAM

    _UART2_Initialize->_UART2_SetErrorHandler
    _UART2_Initialize->_UART2_SetFramingErrorHandler
    _UART2_Initialize->_UART2_SetOverrunErrorHandler
    _UART1_Initialize->_UART1_SetErrorHandler
    _UART1_Initialize->_UART1_SetFramingErrorHandler
    _UART1_Initialize->_UART1_SetOverrunErrorHandler
    _PWM3_16BIT_Initialize->_PWM3_16BIT_Period_SetInterruptHandler
    _PWM3_16BIT_Initialize->_PWM3_16BIT_Slice1Output1_SetInterruptHandler
    _PWM3_16BIT_Initialize->_PWM3_16BIT_Slice1Output2_SetInterruptHandler
    _PWM2_16BIT_Initialize->_PWM2_16BIT_Period_SetInterruptHandler
    _PWM2_16BIT_Initialize->_PWM2_16BIT_Slice1Output1_SetInterruptHandler
    _PWM2_16BIT_Initialize->_PWM2_16BIT_Slice1Output2_SetInterruptHandler
    _PWM1_16BIT_Initialize->_PWM1_16BIT_Period_SetInterruptHandler
    _PWM1_16BIT_Initialize->_PWM1_16BIT_Slice1Output1_SetInterruptHandler
    _PWM1_16BIT_Initialize->_PWM1_16BIT_Slice1Output2_SetInterruptHandler
    _EXT_INT_Initialize->_INT0_SetInterruptHandler
    _EXT_INT_Initialize->_INT1_SetInterruptHandler
    _EXT_INT_Initialize->_INT2_SetInterruptHandler
    _SOM_DAC_SetOutput->_DAC1_SetOutput

Critical Paths under _INTERRUPT_InterruptManager in COMRAM

    None.

Critical Paths under _main in BANK5

    None.

Critical Paths under _INTERRUPT_InterruptManager in BANK5

    None.

Critical Paths under _main in BANK6

    None.

Critical Paths under _INTERRUPT_InterruptManager in BANK6

    None.

Critical Paths under _main in BANK7

    None.

Critical Paths under _INTERRUPT_InterruptManager in BANK7

    None.

Critical Paths under _main in BANK8

    None.

Critical Paths under _INTERRUPT_InterruptManager in BANK8

    None.

Critical Paths under _main in BANK9

    None.

Critical Paths under _INTERRUPT_InterruptManager in BANK9

    None.

Critical Paths under _main in BANK10

    None.

Critical Paths under _INTERRUPT_InterruptManager in BANK10

    None.

Critical Paths under _main in BANK11

    None.

Critical Paths under _INTERRUPT_InterruptManager in BANK11

    None.

Critical Paths under _main in BANK12

    None.

Critical Paths under _INTERRUPT_InterruptManager in BANK12

    None.

Critical Paths under _main in BANK13

    None.

Critical Paths under _INTERRUPT_InterruptManager in BANK13

    None.

Critical Paths under _main in BANK14

    None.

Critical Paths under _INTERRUPT_InterruptManager in BANK14

    None.

Critical Paths under _main in BANK15

    None.

Critical Paths under _INTERRUPT_InterruptManager in BANK15

    None.

Critical Paths under _main in BANK16

    None.

Critical Paths under _INTERRUPT_InterruptManager in BANK16

    None.

Critical Paths under _main in BANK17

    None.

Critical Paths under _INTERRUPT_InterruptManager in BANK17

    None.

Critical Paths under _main in BANK18

    None.

Critical Paths under _INTERRUPT_InterruptManager in BANK18

    None.

Critical Paths under _main in BANK19

    None.

Critical Paths under _INTERRUPT_InterruptManager in BANK19

    None.

Critical Paths under _main in BANK20

    None.

Critical Paths under _INTERRUPT_InterruptManager in BANK20

    None.

Critical Paths under _main in BANK21

    None.

Critical Paths under _INTERRUPT_InterruptManager in BANK21

    None.

Critical Paths under _main in BANK22

    None.

Critical Paths under _INTERRUPT_InterruptManager in BANK22

    None.

Critical Paths under _main in BANK23

    None.

Critical Paths under _INTERRUPT_InterruptManager in BANK23

    None.

Critical Paths under _main in BANK24

    None.

Critical Paths under _INTERRUPT_InterruptManager in BANK24

    None.

Critical Paths under _main in BANK25

    None.

Critical Paths under _INTERRUPT_InterruptManager in BANK25

    None.

Critical Paths under _main in BANK26

    None.

Critical Paths under _INTERRUPT_InterruptManager in BANK26

    None.

Critical Paths under _main in BANK27

    None.

Critical Paths under _INTERRUPT_InterruptManager in BANK27

    None.

Critical Paths under _main in BANK28

    None.

Critical Paths under _INTERRUPT_InterruptManager in BANK28

    None.

Critical Paths under _main in BANK29

    None.

Critical Paths under _INTERRUPT_InterruptManager in BANK29

    None.

Critical Paths under _main in BANK30

    None.

Critical Paths under _INTERRUPT_InterruptManager in BANK30

    None.

Critical Paths under _main in BANK31

    None.

Critical Paths under _INTERRUPT_InterruptManager in BANK31

    None.

Critical Paths under _main in BANK32

    None.

Critical Paths under _INTERRUPT_InterruptManager in BANK32

    None.

Critical Paths under _main in BANK33

    None.

Critical Paths under _INTERRUPT_InterruptManager in BANK33

    None.

Critical Paths under _main in BANK34

    None.

Critical Paths under _INTERRUPT_InterruptManager in BANK34

    None.

Critical Paths under _main in BANK35

    None.

Critical Paths under _INTERRUPT_InterruptManager in BANK35

    None.

Critical Paths under _main in BANK36

    None.

Critical Paths under _INTERRUPT_InterruptManager in BANK36

    None.

Call Graph Tables:

 ---------------------------------------------------------------------------------
 (Depth) Function   	        Calls       Base Space   Used Autos Params    Refs
 ---------------------------------------------------------------------------------
 (0) _main                                                 2     2      0    1818
                                              5 COMRAM     2     2      0
                 _SOM_DAC_Initialize
                  _SOM_DAC_SetOutput
                  _SYSTEM_Initialize
 ---------------------------------------------------------------------------------
 (1) _SYSTEM_Initialize                                    0     0      0    1764
                    _ADCC_Initialize
                    _DAC1_Initialize
                 _EXT_INT_Initialize
                    _I2C1_Initialize
               _INTERRUPT_Initialize
              _OSCILLATOR_Initialize
             _PIN_MANAGER_Initialize
                     _PMD_Initialize
              _PWM1_16BIT_Initialize
              _PWM2_16BIT_Initialize
              _PWM3_16BIT_Initialize
                    _SPI1_Initialize
                    _TMR0_Initialize
                   _UART1_Initialize
                   _UART2_Initialize
 ---------------------------------------------------------------------------------
 (2) _UART2_Initialize                                     0     0      0     294
              _UART2_SetErrorHandler
       _UART2_SetFramingErrorHandler
       _UART2_SetOverrunErrorHandler
 ---------------------------------------------------------------------------------
 (3) _UART2_SetOverrunErrorHandler                         3     0      3      98
                                              2 COMRAM     3     0      3
 ---------------------------------------------------------------------------------
 (3) _UART2_SetFramingErrorHandler                         3     0      3      98
                                              2 COMRAM     3     0      3
 ---------------------------------------------------------------------------------
 (3) _UART2_SetErrorHandler                                3     0      3      98
                                              2 COMRAM     3     0      3
 ---------------------------------------------------------------------------------
 (2) _UART1_Initialize                                     0     0      0     294
              _UART1_SetErrorHandler
       _UART1_SetFramingErrorHandler
       _UART1_SetOverrunErrorHandler
 ---------------------------------------------------------------------------------
 (3) _UART1_SetOverrunErrorHandler                         3     0      3      98
                                              2 COMRAM     3     0      3
 ---------------------------------------------------------------------------------
 (3) _UART1_SetFramingErrorHandler                         3     0      3      98
                                              2 COMRAM     3     0      3
 ---------------------------------------------------------------------------------
 (3) _UART1_SetErrorHandler                                3     0      3      98
                                              2 COMRAM     3     0      3
 ---------------------------------------------------------------------------------
 (2) _TMR0_Initialize                                      0     0      0       0
 ---------------------------------------------------------------------------------
 (2) _SPI1_Initialize                                      0     0      0       0
 ---------------------------------------------------------------------------------
 (2) _PWM3_16BIT_Initialize                                0     0      0     294
_PWM3_16BIT_Period_SetInterruptHandl
_PWM3_16BIT_Slice1Output1_SetInterru
_PWM3_16BIT_Slice1Output2_SetInterru
 ---------------------------------------------------------------------------------
 (3) _PWM3_16BIT_Slice1Output2_SetInterruptHandler         3     0      3      98
                                              2 COMRAM     3     0      3
 ---------------------------------------------------------------------------------
 (3) _PWM3_16BIT_Slice1Output1_SetInterruptHandler         3     0      3      98
                                              2 COMRAM     3     0      3
 ---------------------------------------------------------------------------------
 (3) _PWM3_16BIT_Period_SetInterruptHandler                3     0      3      98
                                              2 COMRAM     3     0      3
 ---------------------------------------------------------------------------------
 (2) _PWM2_16BIT_Initialize                                0     0      0     294
_PWM2_16BIT_Period_SetInterruptHandl
_PWM2_16BIT_Slice1Output1_SetInterru
_PWM2_16BIT_Slice1Output2_SetInterru
 ---------------------------------------------------------------------------------
 (3) _PWM2_16BIT_Slice1Output2_SetInterruptHandler         3     0      3      98
                                              2 COMRAM     3     0      3
 ---------------------------------------------------------------------------------
 (3) _PWM2_16BIT_Slice1Output1_SetInterruptHandler         3     0      3      98
                                              2 COMRAM     3     0      3
 ---------------------------------------------------------------------------------
 (3) _PWM2_16BIT_Period_SetInterruptHandler                3     0      3      98
                                              2 COMRAM     3     0      3
 ---------------------------------------------------------------------------------
 (2) _PWM1_16BIT_Initialize                                0     0      0     294
_PWM1_16BIT_Period_SetInterruptHandl
_PWM1_16BIT_Slice1Output1_SetInterru
_PWM1_16BIT_Slice1Output2_SetInterru
 ---------------------------------------------------------------------------------
 (3) _PWM1_16BIT_Slice1Output2_SetInterruptHandler         3     0      3      98
                                              2 COMRAM     3     0      3
 ---------------------------------------------------------------------------------
 (3) _PWM1_16BIT_Slice1Output1_SetInterruptHandler         3     0      3      98
                                              2 COMRAM     3     0      3
 ---------------------------------------------------------------------------------
 (3) _PWM1_16BIT_Period_SetInterruptHandler                3     0      3      98
                                              2 COMRAM     3     0      3
 ---------------------------------------------------------------------------------
 (2) _PMD_Initialize                                       0     0      0       0
 ---------------------------------------------------------------------------------
 (2) _PIN_MANAGER_Initialize                               0     0      0       0
 ---------------------------------------------------------------------------------
 (2) _OSCILLATOR_Initialize                                0     0      0       0
 ---------------------------------------------------------------------------------
 (2) _INTERRUPT_Initialize                                 0     0      0       0
 ---------------------------------------------------------------------------------
 (2) _I2C1_Initialize                                      0     0      0       0
 ---------------------------------------------------------------------------------
 (2) _EXT_INT_Initialize                                   0     0      0     294
           _INT0_SetInterruptHandler
           _INT1_SetInterruptHandler
           _INT2_SetInterruptHandler
 ---------------------------------------------------------------------------------
 (3) _INT2_SetInterruptHandler                             3     0      3      98
                                              2 COMRAM     3     0      3
 ---------------------------------------------------------------------------------
 (3) _INT1_SetInterruptHandler                             3     0      3      98
                                              2 COMRAM     3     0      3
 ---------------------------------------------------------------------------------
 (3) _INT0_SetInterruptHandler                             3     0      3      98
                                              2 COMRAM     3     0      3
 ---------------------------------------------------------------------------------
 (2) _ADCC_Initialize                                      0     0      0       0
 ---------------------------------------------------------------------------------
 (1) _SOM_DAC_SetOutput                                    1     1      0      30
                                              3 COMRAM     1     1      0
                     _DAC1_SetOutput
 ---------------------------------------------------------------------------------
 (2) _DAC1_SetOutput                                       1     1      0      15
                                              2 COMRAM     1     1      0
 ---------------------------------------------------------------------------------
 (1) _SOM_DAC_Initialize                                   0     0      0       0
                    _DAC1_Initialize
 ---------------------------------------------------------------------------------
 (2) _DAC1_Initialize                                      0     0      0       0
 ---------------------------------------------------------------------------------
 Estimated maximum stack depth 3
 ---------------------------------------------------------------------------------
 (Depth) Function   	        Calls       Base Space   Used Autos Params    Refs
 ---------------------------------------------------------------------------------
 (4) _INTERRUPT_InterruptManager                           2     2      0       0
                                              0 COMRAM     2     2      0
                           _INT0_ISR
                           _INT1_ISR
                           _INT2_ISR
 ---------------------------------------------------------------------------------
 (5) _INT2_ISR                                             0     0      0       0
                      _INT2_CallBack
 ---------------------------------------------------------------------------------
 (6) _INT2_CallBack                                        0     0      0       0
                   Absolute function *
       _INT2_DefaultInterruptHandler *
 ---------------------------------------------------------------------------------
 (7) _INT2_DefaultInterruptHandler                         0     0      0       0
 ---------------------------------------------------------------------------------
 (5) _INT1_ISR                                             0     0      0       0
                      _INT1_CallBack
 ---------------------------------------------------------------------------------
 (6) _INT1_CallBack                                        0     0      0       0
                   Absolute function *
       _INT1_DefaultInterruptHandler *
 ---------------------------------------------------------------------------------
 (7) _INT1_DefaultInterruptHandler                         0     0      0       0
 ---------------------------------------------------------------------------------
 (5) _INT0_ISR                                             0     0      0       0
                      _INT0_CallBack
 ---------------------------------------------------------------------------------
 (6) _INT0_CallBack                                        0     0      0       0
                   Absolute function *
       _INT0_DefaultInterruptHandler *
 ---------------------------------------------------------------------------------
 (7) _INT0_DefaultInterruptHandler                         0     0      0       0
 ---------------------------------------------------------------------------------
 (7) Absolute function(Fake)                               0     0      0       0
 ---------------------------------------------------------------------------------
 Estimated maximum stack depth 7
 ---------------------------------------------------------------------------------

 Call Graph Graphs:

 _main (ROOT)
   _SOM_DAC_Initialize
     _DAC1_Initialize
   _SOM_DAC_SetOutput
     _DAC1_SetOutput
   _SYSTEM_Initialize
     _ADCC_Initialize
     _DAC1_Initialize
     _EXT_INT_Initialize
       _INT0_SetInterruptHandler
       _INT1_SetInterruptHandler
       _INT2_SetInterruptHandler
     _I2C1_Initialize
     _INTERRUPT_Initialize
     _OSCILLATOR_Initialize
     _PIN_MANAGER_Initialize
     _PMD_Initialize
     _PWM1_16BIT_Initialize
       _PWM1_16BIT_Period_SetInterruptHandler
       _PWM1_16BIT_Slice1Output1_SetInterruptHandler
       _PWM1_16BIT_Slice1Output2_SetInterruptHandler
     _PWM2_16BIT_Initialize
       _PWM2_16BIT_Period_SetInterruptHandler
       _PWM2_16BIT_Slice1Output1_SetInterruptHandler
       _PWM2_16BIT_Slice1Output2_SetInterruptHandler
     _PWM3_16BIT_Initialize
       _PWM3_16BIT_Period_SetInterruptHandler
       _PWM3_16BIT_Slice1Output1_SetInterruptHandler
       _PWM3_16BIT_Slice1Output2_SetInterruptHandler
     _SPI1_Initialize
     _TMR0_Initialize
     _UART1_Initialize
       _UART1_SetErrorHandler
       _UART1_SetFramingErrorHandler
       _UART1_SetOverrunErrorHandler
     _UART2_Initialize
       _UART2_SetErrorHandler
       _UART2_SetFramingErrorHandler
       _UART2_SetOverrunErrorHandler

 _INTERRUPT_InterruptManager (ROOT)
   _INT0_ISR
     _INT0_CallBack
       Absolute function(Fake) *
       _INT0_DefaultInterruptHandler *
   _INT1_ISR
     _INT1_CallBack
       Absolute function(Fake) *
       _INT1_DefaultInterruptHandler *
   _INT2_ISR
     _INT2_CallBack
       Absolute function(Fake) *
       _INT2_DefaultInterruptHandler *

 Address spaces:
Name               Size   Autos  Total    Cost      Usage
BIGRAM            1FFF      0       0      69        0.0%
EEDATA             400      0       0       0        0.0%
BITBIGSFRllllll    156      0       0     112        0.0%
BITBIGSFR_1        100      0       0      68        0.0%
BITBANK36          100      0       0      66        0.0%
BANK36             100      0       0      67        0.0%
BITBANK35          100      0       0      64        0.0%
BANK35             100      0       0      65        0.0%
BITBANK34          100      0       0      62        0.0%
BANK34             100      0       0      63        0.0%
BITBANK33          100      0       0      60        0.0%
BANK33             100      0       0      61        0.0%
BITBANK32          100      0       0      58        0.0%
BANK32             100      0       0      59        0.0%
BITBANK31          100      0       0      56        0.0%
BANK31             100      0       0      57        0.0%
BITBANK30          100      0       0      54        0.0%
BANK30             100      0       0      55        0.0%
BITBANK29          100      0       0      52        0.0%
BANK29             100      0       0      53        0.0%
BITBANK28          100      0       0      50        0.0%
BANK28             100      0       0      51        0.0%
BITBANK27          100      0       0      48        0.0%
BANK27             100      0       0      49        0.0%
BITBANK26          100      0       0      46        0.0%
BANK26             100      0       0      47        0.0%
BITBANK25          100      0       0      44        0.0%
BANK25             100      0       0      45        0.0%
BITBANK24          100      0       0      42        0.0%
BANK24             100      0       0      43        0.0%
BITBANK23          100      0       0      40        0.0%
BANK23             100      0       0      41        0.0%
BITBANK22          100      0       0      38        0.0%
BANK22             100      0       0      39        0.0%
BITBANK21          100      0       0      36        0.0%
BANK21             100      0       0      37        0.0%
BITBANK20          100      0       0      34        0.0%
BANK20             100      0       0      35        0.0%
BITBANK19          100      0       0      32        0.0%
BANK19             100      0       0      33        0.0%
BITBANK18          100      0       0      30        0.0%
BANK18             100      0       0      31        0.0%
BITBANK17          100      0       0      28        0.0%
BANK17             100      0       0      29        0.0%
BITBANK16          100      0       0      26        0.0%
BANK16             100      0       0      27        0.0%
BITBANK15          100      0       0      24        0.0%
BANK15             100      0       0      25        0.0%
BITBANK14          100      0       0      22        0.0%
BANK14             100      0       0      23        0.0%
BITBANK13          100      0       0      20        0.0%
BANK13             100      0       0      21        0.0%
BITBANK12          100      0       0      18        0.0%
BANK12             100      0       0      19        0.0%
BITBANK11          100      0       0      16        0.0%
BANK11             100      0       0      17        0.0%
BITBANK10          100      0       0      14        0.0%
BANK10             100      0       0      15        0.0%
BITBANK9           100      0       0      12        0.0%
BANK9              100      0       0      13        0.0%
BITBANK8           100      0       0      10        0.0%
BANK8              100      0       0      11        0.0%
BITBANK7           100      0       0       8        0.0%
BANK7              100      0       0       9        0.0%
BITBANK6           100      0       0       6        0.0%
BANK6              100      0       0       7        0.0%
BITBIGSFRlllllh     BD      0       0      89        0.0%
BITBANK5            A0      0       0       4        0.0%
BANK5               A0      0       C       5        7.5%
BITBIGSFRllllll     60      0       0     122        0.0%
BITCOMRAM           5F      0       0       0        0.0%
COMRAM              5F      7      5D       1       97.9%
BITBIGSFRlllllh     51      0       0      90        0.0%
BITBIGSFRlhhh       33      0       0      81        0.0%
BITBIGSFRhhhhhh     29      0       0      70        0.0%
BITBIGSFRllllll     1F      0       0     115        0.0%
BITBIGSFRllllll     15      0       0     106        0.0%
BITBIGSFRllllll     14      0       0     120        0.0%
BITBIGSFRllllll     14      0       0     107        0.0%
BITBIGSFRhhlllh     12      0       0      80        0.0%
BITBIGSFRllllll     12      0       0     105        0.0%
BITBIGSFRllllll     11      0       0     102        0.0%
BITBIGSFRllllll      9      0       0     111        0.0%
BITBIGSFRllllll      9      0       0     108        0.0%
BITBIGSFRlllllh      6      0       0     100        0.0%
BITBIGSFRhhlhlh      6      0       0      77        0.0%
BITBIGSFRlllllh      5      0       0      87        0.0%
BITBIGSFRhhhllh      5      0       0      74        0.0%
BITBIGSFRlllllh      4      0       0      98        0.0%
BITBIGSFRllllll      4      0       0     109        0.0%
BITBIGSFRllllll      4      0       0     104        0.0%
BITBIGSFRllllh       3      0       0      86        0.0%
BITBIGSFRlhhl        3      0       0      82        0.0%
BITBIGSFRlllh        3      0       0      85        0.0%
BITBIGSFRllh         3      0       0      84        0.0%
BITBIGSFRlhl         3      0       0      83        0.0%
BITBIGSFRhhhhhl      3      0       0      72        0.0%
BITBIGSFRhhhhhl      2      0       0      71        0.0%
BITBIGSFRllllll      2      0       0     116        0.0%
BITBIGSFRllllll      2      0       0     117        0.0%
BITBIGSFRhhlhlh      2      0       0      78        0.0%
BITBIGSFRhhllh       2      0       0      79        0.0%
BITBIGSFRhhhhll      2      0       0      73        0.0%
BITBIGSFRlllllh      1      0       0      99        0.0%
BITBIGSFRllllll      1      0       0     121        0.0%
BITBIGSFRllllll      1      0       0     113        0.0%
BITBIGSFRllllll      1      0       0     114        0.0%
BITBIGSFRlllllh      1      0       0      88        0.0%
BITBIGSFRllllll      1      0       0     119        0.0%
BITBIGSFRllllll      1      0       0     118        0.0%
BITBIGSFRlllllh      1      0       0      94        0.0%
BITBIGSFRlllllh      1      0       0      91        0.0%
BITBIGSFRlllllh      1      0       0      92        0.0%
BITBIGSFRlllllh      1      0       0      93        0.0%
BITBIGSFRlllllh      1      0       0      96        0.0%
BITBIGSFRlllllh      1      0       0      97        0.0%
BITBIGSFRlllllh      1      0       0      95        0.0%
BITBIGSFRhhhllh      1      0       0      75        0.0%
BITBIGSFRhhlhh       1      0       0      76        0.0%
BITBIGSFRllllll      1      0       0     103        0.0%
BITBIGSFRllllll      1      0       0     110        0.0%
BITBIGSFRlllllh      1      0       0     101        0.0%
BIGSFR_1             0      0       0     200        0.0%
BIGSFR               0      0       0     200        0.0%
BITSFR_6             0      0       0     200        0.0%
SFR_6                0      0       0     200        0.0%
BITSFR_5             0      0       0     200        0.0%
SFR_5                0      0       0     200        0.0%
BITSFR_4             0      0       0     200        0.0%
SFR_4                0      0       0     200        0.0%
BITSFR_3             0      0       0     200        0.0%
SFR_3                0      0       0     200        0.0%
BITSFR_2             0      0       0     200        0.0%
SFR_2                0      0       0     200        0.0%
BITSFR_1             0      0       0     200        0.0%
SFR_1                0      0       0     200        0.0%
BITSFR               0      0       0     200        0.0%
SFR                  0      0       0     200        0.0%
STACK                0      0       0       2        0.0%
NULL                 0      0       0       0        0.0%
ABS                  0      0      69     123        0.0%
DATA                 0      0      69       3        0.0%
CODE                 0      0       0       0        0.0%


Microchip Technology PIC18 Macro Assembler V2.40 build 20220703182018 
Symbol Table                                                                                   Wed Dec 21 10:37:45 2022

                                             _DAC1_Initialize 2D4C  
                                                         l202 2D20  
                                                         l411 2D2E  
                                                         l163 2928  
                                                         l511 2834  
                                                         l432 2C4E  
                                                         l417 2AA4  
                                                         l346 273C  
                                                         l196 2D12  
                                                         l550 2CCC  
                                                         l199 2D04  
                                                         l544 2CBE  
                                                         l385 2D4A  
                                                         l547 2CB0  
                                                         l812 2C94  
                                                         l398 2D3C  
                                                         l582 2D8A  
                                                         l654 28AE  
                                                         l815 2C86  
                                                         l690 2CDA  
                                                         l818 2CA2  
                                                         l922 2C78  
                                                         l916 2C6A  
                                                         l693 2CF6  
                                                         l765 299C  
                                                         l687 2CE8  
                                                         l919 2C5C  
                                                         l875 2A04  
                                                         l949 2C3A  
                                                         l996 2D56  
                                                         l999 2D68  
                                  ??_INT0_SetInterruptHandler 055C  
                                                         tosl 0004FD  
                                                         wreg 0004E8  
                                               _INT0_CallBack 2B44  
                                        _I2C1_DO_RX_NACK_STOP 000000  
                                              _DAC1_SetOutput 2D62  
                                               _INT1_CallBack 2B14  
                                                        l1223 2AE2  
                                                        l1081 2A60  
                                                        l1226 2C20  
                                                        l1229 2BC2  
                                                        l1378 2BE4  
                                                        l3510 2C42  
                                                        l5030 2B80  
                                                        l5022 2B74  
                                                        l2624 2D86  
                                                        l3512 2C48  
                                                        l5032 2B86  
                                                        l5024 2B78  
                                                        l5034 2B96  
                                                        l5026 2B7C  
                                                        l2627 2D60  
                                                        l3460 26D0  
                                                        l3508 2C3C  
                                                        l3470 26DE  
                                                        l3462 26D2  
                                                        l3536 2D88  
                                                        l3472 26E0  
                                                        l3464 26D4  
                                                        l3456 2640  
                                                        l3474 26E2  
                                                        l3466 26DA  
                                                        l3458 26CE  
                                                        l3476 26E8  
                                                        l3468 26DC  
                                                        l3580 2C22  
                                                        l3590 2BA0  
                                                        l3582 2C38  
                                                        l3584 2D4C  
                                                        l3840 2D82  
                                                        l3592 2BC4  
                                                        l4800 2D06  
                                                        l3586 2D64  
                                                        l3842 2D5A  
                                                        l4810 2D22  
                                                        l3594 2BE2  
                                                        l4802 2CF8  
                                                        l3588 2A06  
                                                        l4804 2D14  
                                                        l4820 2CCE  
                                                        l4900 286E  
                                                        l4812 2CB2  
                                                        l4806 2D3E  
                                                        l3598 2C06  
                                                        l4822 2CEA  
                                                        l4910 2878  
                                                        l4902 2870  
                                                        l4814 2CA4  
                                                        l4830 2C5E  
                                                        l4808 2D30  
                                                        l4840 28EA  
                                                        l4912 287A  
                                                        l4904 2872  
                                                        l4816 2CC0  
                                                        l4824 2C88  
                                                        l4920 292A  
                                                        l4832 2C50  
                                                        l4850 28F4  
                                                        l4842 28EC  
                                                        l4818 2CDC  
                                                        l4914 288A  
                                                        l4906 2874  
                                                        l4826 2C7A  
                                                        l4922 2968  
                                                        l4834 2C6C  
                                                        l4930 299E  
                                                        l4860 2A66  
                                                        l4852 2904  
                                                        l4844 28EE  
                                                        l4836 28B0  
                                                        l4916 289A  
                                                        l4908 2876  
                                                        l4828 2C96  
                                                        l4924 2978  
                                                        l4932 29D0  
                                                        l4870 2A8E  
                                                        l4862 2A76  
                                                        l4854 2914  
                                                        l4846 28F0  
                                                        l4838 28E8  
                                                        l4918 28AA  
                                                        l4926 2988  
                                                        l4934 29E0  
                                                        l4872 2A90  
                                                        l4864 2A78  
                                                        l4856 2924  
                                                        l4848 28F2  
                                                        l4880 27F6  
                                                        l4928 2998  
                                                        l4936 29F0  
                                                        l4874 2AA2  
                                                        l4866 2A7A  
                                                        l4858 2A62  
                                                        l4890 2800  
                                                        l4882 27F8  
                                                        l4938 2A00  
                                                        l4970 2AB2  
                                                        l4868 2A8C  
                                                        l4892 2810  
                                                        l4884 27FA  
                                                        l4876 27BC  
                                                        l4980 2AC6  
                                                        l4972 2AB6  
                                                        l4964 2AA6  
                                                        l4894 2820  
                                                        l4886 27FC  
                                                        l4878 27F4  
                                                        l4990 2ADA  
                                                        l4982 2ACA  
                                                        l4974 2ABA  
                                                        l4966 2AAA  
                                                        l4896 2830  
                                                        l4888 27FE  
                                                        l4992 2ADE  
                                                        l4984 2ACE  
                                                        l4976 2ABE  
                                                        l4968 2AAE  
                                                        l4898 2836  
                                                        l4986 2AD2  
                                                        l4978 2AC2  
                                                        l4988 2AD6  
                                                        _LATA 0004BE  
                                                        _LATB 0004BF  
                                                        _LATC 0004C0  
                                                        _LATD 0004C1  
                                                        _LATE 0004C2  
                                                        _LATF 0004C3  
                                                        u1597 2B8C  
                                                        _PMD0 000060  
                                                        _PMD1 000061  
                                                        _PMD3 000063  
                                                        _PMD4 000064  
                                                        _PMD5 000065  
                                                        _PMD6 000066  
                                                        _PMD7 000067  
                                                        _PMD8 000068  
                                                        _WPUA 000401  
                                                        _WPUB 000409  
                                                        _WPUC 000411  
                                                        _WPUD 000419  
                                                        _WPUE 000421  
                                                        _WPUF 000429  
                                               _INT2_CallBack 2AE4  
                                                        _main 2B74  
                                   ?_INT2_SetInterruptHandler 0559  
                                                        start 001A  
                                                ___param_bank 000000  
                                     __end_of_TMR0_Initialize 2C50  
                                            __end_of_INT0_ISR 2D82  
                                            __end_of_INT1_ISR 2D7A  
                                            __end_of_INT2_ISR 2D72  
                               __end_of_OSCILLATOR_Initialize 2C22  
                                                       _ADACT 0003F9  
                                                       _ADCAP 0003F0  
                                                       ?_main 0557  
                                                       _ADCLK 0003FA  
                                                       _ADCNT 0003E6  
                                                       _ADPCH 0003EC  
                                                       _ADREF 0003F8  
                                                       _ADRPT 0003E7  
                                                       _U1P1H 0002A6  
                                                       _U1P2H 0002A8  
                                                       _U1P3H 0002AA  
                                                       _U1P1L 0002A5  
                                                       _U1P2L 0002A7  
                                                       _U1P3L 0002A9  
                                                       _U2P1L 0002B8  
                                                       _U2P2L 0002BA  
                                                       _U2P3L 0002BC  
                                                       _U1UIR 0002B1  
                                                       _U1RXB 0002A1  
                                                       _U2UIR 0002C4  
                                                       _U1TXB 0002A3  
                                                       _U2RXB 0002B4  
                                                       i2l401 2D8E  
                                                       _U2TXB 0002B6  
                                                       i2l404 2D70  
                                                       i2l414 2D8C  
                                      __end_of_DAC1_SetOutput 2D6A  
                                                       i2l408 2B12  
                                                       i2l382 2B72  
                                                       i2l391 2D78  
                                                       i2l378 2D80  
                                                       i2l395 2B42  
                                                       i2l388 2D90  
                                                       i2l590 27B2  
                                                       i2l593 27B2  
                                                       i2l587 276A  
                                                       i2l589 278E  
                                      ?_PWM1_16BIT_Initialize 0557  
                                  __end_of_i2c1_fsmStateTable 263A  
                                                       _OSCEN 0000B3  
                                                       _TMR0H 000319  
                                                       _TMR0L 000318  
                                                       _TRISA 0004C6  
                                                       _TRISB 0004C7  
                                              ?_INT0_CallBack 0557  
                                                       _TRISC 0004C8  
                                                       _TRISD 0004C9  
                                                       _TRISE 0004CA  
                                                       _TRISF 0004CB  
                                           ??_I2C1_Initialize 0559  
                                              ?_INT1_CallBack 0557  
            _PWM2_16BIT_Slice1Output1_DefaultInterruptHandler 000000  
            _PWM3_16BIT_Slice1Output1_DefaultInterruptHandler 000000  
            _PWM1_16BIT_Slice1Output1_DefaultInterruptHandler 000000  
                              ??_INT1_DefaultInterruptHandler 0557  
                                                       main@c 055D  
                                              ?_INT2_CallBack 0557  
                                    _INT1_SetInterruptHandler 2D30  
                                                       pclath 0004FA  
                                                       pclatu 0004FB  
                                                       status 0004D8  
                            _UART1_DefaultFramingErrorHandler 000000  
                                       _PWM2_16BIT_Initialize 2836  
                              ??_UART2_SetOverrunErrorHandler 055C  
                                             __initialization 2BE6  
                                                __end_of_main 2BA0  
                                     __end_of_DAC1_Initialize 2D58  
                                 ?_INTERRUPT_InterruptManager 0557  
                                                      ??_main 055C  
                                               __activetblptr 000003  
                                             ?_DAC1_SetOutput 0557  
               __end_of_PWM1_16BIT_Period_SetInterruptHandler 2D22  
               __end_of_PWM2_16BIT_Period_SetInterruptHandler 2CF8  
               __end_of_PWM3_16BIT_Period_SetInterruptHandler 2CCE  
                     ??_PWM2_16BIT_Period_SetInterruptHandler 055C  
                     ??_PWM3_16BIT_Period_SetInterruptHandler 055C  
                     ??_PWM1_16BIT_Period_SetInterruptHandler 055C  
                      ?_PWM2_16BIT_Period_SetInterruptHandler 0559  
                      ?_PWM3_16BIT_Period_SetInterruptHandler 0559  
                      ?_PWM1_16BIT_Period_SetInterruptHandler 0559  
                       _PWM1_16BIT_Period_SetInterruptHandler 2D14  
                       _PWM2_16BIT_Period_SetInterruptHandler 2CEA  
                       _PWM3_16BIT_Period_SetInterruptHandler 2CC0  
                                            _UART1_Initialize 292A  
                          _PWM3_16BIT_Period_InterruptHandler 053C  
                                                      _ADACCH 0003E4  
                                                      _ADACCL 0003E3  
                                                      _ADACCU 0003E5  
                                                      _ADACQH 0003EF  
                                                      _ADACQL 0003EE  
                                                      _ADCON0 0003F3  
                                                      _ADCON1 0003F4  
                                                      _ADCON2 0003F5  
                                                      _ADCON3 0003F6  
                                                      _ADERRH 0003DE  
                                                      _ADERRL 0003DD  
                                                      _ACTCON 0000AC  
                                                      _ADLTHH 0003DA  
                                                      _ADLTHL 0003D9  
                                                      _ADRESH 0003EB  
                                                      _ADRESL 0003EA  
                                                      _ADPREH 0003F2  
                                                      _ADPREL 0003F1  
                                                      _ADSTAT 0003F7  
                                                      _ADUTHH 0003DC  
                                                      _ADUTHL 0003DB  
                                                      _ANSELA 000400  
                                                      _ANSELB 000408  
                                                      _ANSELC 000410  
                                                      _ANSELD 000418  
                                                      _ANSELE 000420  
                                                      _ANSELF 000428  
                                                      _T0CON0 00031A  
                                                      _T0CON1 00031B  
                                                      _RB1I2C 000289  
                                                      _RB2I2C 000288  
                                                      _U1CON0 0002AB  
                                                      _U1CON1 0002AC  
                                                      _U1CON2 0002AD  
                                                      _RC3I2C 000287  
                                                      _RC4I2C 000286  
                                                      _U1BRGH 0002AF  
                                                      _U1FIFO 0002B0  
                                                      _U2CON0 0002BE  
                                                      _U2CON1 0002BF  
                                                      _U2CON2 0002C0  
                                                      _U1BRGL 0002AE  
                                                      _U2BRGH 0002C2  
                                                      _U2FIFO 0002C3  
                                                      _U2BRGL 0002C1  
                                                      _RB1PPS 00020A  
                                                      _RB2PPS 00020B  
                                                      _RD0PPS 000219  
                                                      _RD1PPS 00021A  
                                                      _RC4PPS 000215  
                                                      _ODCONA 000402  
                                                      _ODCONB 00040A  
                                                      _RF0PPS 000229  
                                                      _RC6PPS 000217  
                                                      _ODCONC 000412  
                                                      _ODCOND 00041A  
                                                      _ODCONE 000422  
                                                      _ODCONF 00042A  
                                                      _RC7PPS 000218  
                                                      _RD6PPS 00021F  
                                                      i2l4110 2762  
                                                      i2l4112 2778  
                                                      i2l4114 2786  
                                                      i2l4106 2746  
                                                      i2l4116 279C  
                                                      i2l4108 2754  
                                                      i2l4118 27AA  
                                                      i2l3610 2D7A  
                                                      i2l3612 2D7C  
                                                      i2l3620 2D6C  
                                                      i2l3614 2D72  
                                                      i2l3480 2B58  
                                                      i2l3616 2D74  
                                                      i2l3482 2B14  
                                                      i2l3618 2D6A  
                                                      i2l3484 2B28  
                                                      i2l3478 2B44  
                                                      i2l3486 2AE4  
                                                      i2l3488 2AF8  
                                                      _INLVLA 000404  
                                                      _INLVLB 00040C  
                                                      _INLVLC 000414  
                                                      _INLVLD 00041C  
                                                      _INLVLE 000424  
                                                      _INLVLF 00042C  
                                                      _OSCFRQ 0000B1  
                                                      i2u5_40 2B58  
                                                      i2u5_41 2B54  
                                                      i2u6_48 2B5E  
                                                      i2u7_40 2B28  
                                                      i2u6_49 2B72  
                                                      i2u7_41 2B24  
                                                      i2u8_48 2B2E  
                                                      i2u9_40 2AF8  
                                                      i2u8_49 2B42  
                                                      i2u9_41 2AF4  
                                       _UART1_SetErrorHandler 2C96  
                                            _I2C1_DO_RX_EMPTY 000000  
                                            _I2C1_DO_TX_EMPTY 000000  
                                     DAC1_SetOutput@inputData 0559  
                                            _UART2_Initialize 299E  
                                   _UART2_OverrunErrorHandler 0563  
                                            ?_TMR0_Initialize 0557  
                                                      clear_0 2BEC  
                                                      isa$std 000001  
                                             ??_INT0_CallBack 0557  
                                             _ADCC_Initialize 2A06  
                                       _I2C1_DO_SEND_ADR_READ 000000  
                                              _PMD_Initialize 2BA0  
                        __end_of_INT2_DefaultInterruptHandler 2D8E  
                                _INT2_DefaultInterruptHandler 2D8C  
                                             ??_INT1_CallBack 0557  
                                                __mediumconst 0000  
                                             ??_INT2_CallBack 0557  
       PWM2_16BIT_Period_SetInterruptHandler@InterruptHandler 0559  
PWM2_16BIT_Slice1Output2_SetInterruptHandler@InterruptHandler 0559  
PWM2_16BIT_Slice1Output1_SetInterruptHandler@InterruptHandler 0559  
       PWM3_16BIT_Period_SetInterruptHandler@InterruptHandler 0559  
PWM3_16BIT_Slice1Output2_SetInterruptHandler@InterruptHandler 0559  
PWM3_16BIT_Slice1Output1_SetInterruptHandler@InterruptHandler 0559  
                    INT2_SetInterruptHandler@InterruptHandler 0559  
                    INT1_SetInterruptHandler@InterruptHandler 0559  
                    INT0_SetInterruptHandler@InterruptHandler 0559  
       PWM1_16BIT_Period_SetInterruptHandler@InterruptHandler 0559  
PWM1_16BIT_Slice1Output2_SetInterruptHandler@InterruptHandler 0559  
PWM1_16BIT_Slice1Output1_SetInterruptHandler@InterruptHandler 0559  
                        __end_of_UART1_SetOverrunErrorHandler 2C88  
                                _UART1_SetOverrunErrorHandler 2C7A  
                                   _UART1_DefaultErrorHandler 000000  
                                     _I2C1_DO_RX_NACK_RESTART 000000  
                                           _SYSTEM_Initialize 2AA6  
                                                  __accesstop 0560  
                                     __end_of__initialization 2C00  
                                                   ?_INT0_ISR 0557  
                                                   ?_INT1_ISR 0557  
                                                   ?_INT2_ISR 0557  
                                          ?_SYSTEM_Initialize 0557  
                                      ?_PWM2_16BIT_Initialize 0557  
                                               ___rparam_used 000001  
                                     _rdBlkRegCompleteHandler 000000  
                                              __pcstackCOMRAM 0557  
                                       _UART2_SetErrorHandler 2C6C  
                                         ??_SYSTEM_Initialize 055C  
                                            ?_DAC1_Initialize 0557  
                                  __end_of_SOM_DAC_Initialize 2D88  
                                           ??_SPI1_Initialize 0559  
                                      __end_of_PMD_Initialize 2BC4  
                                          _spi1_configuration 263A  
                                       _PWM3_16BIT_Initialize 27BC  
                            __end_of_INT2_SetInterruptHandler 2D30  
                                   _UART1_FramingErrorHandler 0530  
                             fp__INT2_DefaultInterruptHandler 0000  
                               ?_INT2_DefaultInterruptHandler 0557  
                                           _I2C1_DO_BUS_ERROR 000000  
                                   __end_of_SYSTEM_Initialize 2AE4  
                               ?_UART1_SetOverrunErrorHandler 0559  
                                      ?_UART1_SetErrorHandler 0559  
                                       _INT0_InterruptHandler 054B  
                                                  ??_INT0_ISR 0557  
                                                  ??_INT1_ISR 0557  
                                                  ??_INT2_ISR 0557  
                                                  __pnvCOMRAM 052D  
                                       _rd1RegCompleteHandler 000000  
                                                     IVTBASEH 00045E  
                                                     IVTBASEL 00045D  
                                                     IVTBASEU 00045F  
                                           _I2C1_DO_SEND_STOP 000000  
                                       _wr1RegCompleteHandler 000000  
                                                     _I2C1CLK 00029C  
                                                     _I2C1CNT 00028D  
                                                     _I2C1ERR 000297  
                                                     _I2C1PIE 00029B  
                                                     _I2C1PIR 00029A  
                                                     _I2C1RXB 00028B  
                                                     _I2C1TXB 00028C  
                        __end_of_UART2_SetFramingErrorHandler 2C6C  
                                _UART2_SetFramingErrorHandler 2C5E  
                                     __end_of_ADCC_Initialize 2A62  
                                                     _DAC1CON 00007F  
                                             _I2C1_Initialize 2BC4  
                                                     _ADFLTRH 0003E2  
                                                     _ADFLTRL 0003E1  
                                     ??_PWM1_16BIT_Initialize 055C  
                                                     _ADPREVH 0003E9  
                                                     _ADPREVL 0003E8  
                                                     _ADSTPTH 0003E0  
                                                     _ADSTPTL 0003DF  
                                             ?_PMD_Initialize 0557  
                                                     _U1ERRIE 0002B3  
                                                     _U1ERRIR 0002B2  
                                                     _U2ERRIE 0002C6  
                                                     _U2ERRIR 0002C5  
                                  ??_INT1_SetInterruptHandler 055C  
                                                     _INT0PPS 00023E  
                                                     _INT1PPS 00023F  
                                                     _INT2PPS 000240  
                                                     _U1RXPPS 000272  
                                                     _U2RXPPS 000274  
                                                     _OSCCON1 0000AD  
                                                     _OSCCON3 0000AF  
                                                     _SPI1CLK 00008C  
                                                     i2u10_48 2AFE  
                                                     i2u10_49 2B12  
                                                     _SPI1RXB 000080  
                                                     _SPI1TXB 000081  
                                                     i2u70_40 27AA  
                                                     i2u70_41 27A6  
                                                     _OSCTUNE 0000B0  
                                                     _PWM1CLK 000461  
                                                     _PWM1GIE 000468  
                                                     _PWM2CLK 000470  
                                                     _PWM1CON 000469  
                                                     _PWM2GIE 000477  
                                                     _PWM3CLK 00047F  
                                                     _PWM1GIR 000467  
                                                     _PWM2CON 000478  
                                                     _PWM3GIE 000486  
                                                     i2u65_40 2754  
                                                     i2u65_41 2750  
                                                     _PWM3CON 000487  
                                                     _PWM2GIR 000476  
                                                     _PWM1ERS 000460  
                                                     _PWM1LDS 000462  
                                                     i2u66_40 2762  
                                                     i2u66_41 275E  
                                                     _PWM3GIR 000485  
                                                     _PWM2ERS 00046F  
                                                     _PWM2LDS 000471  
                                                     i2u67_40 2778  
                                                     i2u67_41 2774  
                                                     _PWM3ERS 00047E  
                                                     _PWM3LDS 000480  
                                                     i2u68_40 2786  
                                                     i2u68_41 2782  
                                                     i2u69_40 279C  
                                                     i2u69_41 2798  
                                                     _PWM1PRH 000464  
                                                     _PWM1PRL 000463  
                                                     _PWM2PRH 000473  
                                                     _PWM2PRL 000472  
                                                     _PWM3PRH 000482  
                                                     _PWM3PRL 000481  
                                                     _SLRCONA 000403  
                                                     _SLRCONB 00040B  
                                                     _SLRCONC 000413  
                                                     _SLRCOND 00041B  
                                                     _SLRCONE 000423  
                                                     _SLRCONF 00042B  
                                          _i2c1_fsmStateTable 2601  
                                   ?_INT0_SetInterruptHandler 0559  
                                                     __Hparam 0000  
                                      ?_UART2_SetErrorHandler 0559  
                                                     __Lparam 0000  
                                    __end_of_UART1_Initialize 299E  
                                            ??_DAC1_SetOutput 0559  
                                                __psmallconst 2600  
                               ?_UART2_SetFramingErrorHandler 0559  
                                                     __pcinit 2BE6  
                                                     __ramtop 2600  
                                                     __ptext0 2B74  
                                                     __ptext1 2AA6  
                                                     __ptext2 299E  
                                                     __ptext3 2C50  
                                                     __ptext4 2C5E  
                                                     __ptext5 2C6C  
                                                     __ptext6 292A  
                                                     __ptext7 2C7A  
                                                     __ptext8 2C88  
                                                     __ptext9 2C96  
        __end_of_PWM1_16BIT_Slice1Output1_SetInterruptHandler 2D14  
        __end_of_PWM2_16BIT_Slice1Output1_SetInterruptHandler 2CEA  
        __end_of_PWM3_16BIT_Slice1Output1_SetInterruptHandler 2CC0  
              ??_PWM2_16BIT_Slice1Output1_SetInterruptHandler 055C  
              ??_PWM3_16BIT_Slice1Output1_SetInterruptHandler 055C  
              ??_PWM1_16BIT_Slice1Output1_SetInterruptHandler 055C  
               ?_PWM2_16BIT_Slice1Output1_SetInterruptHandler 0559  
               ?_PWM3_16BIT_Slice1Output1_SetInterruptHandler 0559  
               ?_PWM1_16BIT_Slice1Output1_SetInterruptHandler 0559  
                _PWM1_16BIT_Slice1Output1_SetInterruptHandler 2D06  
                _PWM2_16BIT_Slice1Output1_SetInterruptHandler 2CDC  
                _PWM3_16BIT_Slice1Output1_SetInterruptHandler 2CB2  
                                      ?_PWM3_16BIT_Initialize 0557  
                            _UART2_DefaultOverrunErrorHandler 000000  
                                       _OSCILLATOR_Initialize 2C06  
                                                 _I2C1ERRbits 000297  
                                    ??_PIN_MANAGER_Initialize 0559  
                                                 _I2C1PIEbits 00029B  
                                    __end_of_UART2_Initialize 2A06  
                                                 _I2C1PIRbits 00029A  
                                                   _PIE10bits 0004A8  
                                        end_of_initialization 2C00  
            _PWM2_16BIT_Slice1Output2_DefaultInterruptHandler 000000  
            _PWM3_16BIT_Slice1Output2_DefaultInterruptHandler 000000  
            _PWM1_16BIT_Slice1Output2_DefaultInterruptHandler 000000  
                                    _INT2_SetInterruptHandler 2D22  
                              ??_INT2_DefaultInterruptHandler 0557  
                                                   _PIR10bits 0004B8  
                                      _I2C1_DO_SEND_ADR_WRITE 000000  
                              ??_UART1_SetOverrunErrorHandler 055C  
                                     __end_of_I2C1_Initialize 2BE6  
                                                 _I2C1_Status 0501  
                                                   _SPI1TCNTL 000082  
                                                   _PWM1S1CFG 00046A  
                                                   _PWM1S1P1H 00046C  
                                                   _PWM1S1P2H 00046E  
                                                   _PWM1S1P1L 00046B  
                                                   _PWM1S1P2L 00046D  
                                                   _PWM2S1CFG 000479  
                                                   _PWM2S1P1H 00047B  
                                                     postinc0 0004EE  
                                                   _PWM2S1P2H 00047D  
                                                   _PWM2S1P1L 00047A  
                                                   _PWM2S1P2L 00047C  
                                                   _PWM3S1CFG 000488  
                                                   _PWM3S1P1H 00048A  
                                                   _PWM3S1P2H 00048C  
                                                   _PWM3S1P1L 000489  
                                                   _PWM3S1P2L 00048B  
                                                   _PWM1PIPOS 000466  
                                            ?_ADCC_Initialize 0557  
                                                   _PWM2PIPOS 000475  
                                                   _PWM3PIPOS 000484  
                                  _I2C1_DO_SEND_RESTART_WRITE 000000  
                                                   _PWMIN0PPS 000257  
                                       _INT1_InterruptHandler 0548  
                                                   _PORTBbits 0004CF  
                                                   _PORTCbits 0004D0  
                                                   _PORTDbits 0004D1  
                                                   _PORTEbits 0004D2  
                                                   _PORTFbits 0004D3  
                                                   _TRISBbits 0004C7  
                                                   _TRISCbits 0004C8  
                                                   _TRISDbits 0004C9  
                                                   _TRISEbits 0004CA  
                                                   _TRISFbits 0004CB  
                                     ??_PWM2_16BIT_Initialize 055C  
                                             _SPI1_Initialize 2C22  
                                __end_of_INTERRUPT_Initialize 2D8C  
                        __end_of_INT0_DefaultInterruptHandler 2D92  
                                _INT0_DefaultInterruptHandler 2D90  
                                              _I2C1_DO_RX_ACK 000000  
                                              _I2C1_DO_TX_ACK 000000  
                                      ?_OSCILLATOR_Initialize 0557  
                                       __end_of_INT0_CallBack 2B74  
                              ??_UART2_SetFramingErrorHandler 055C  
                                         start_initialization 2BE6  
                                          _SOM_DAC_Initialize 2D82  
                                       __end_of_INT1_CallBack 2B44  
                                     ??_UART1_SetErrorHandler 055C  
                                   _UART2_DefaultErrorHandler 000000  
                                                  ivt0x8_base 0008  
                                       __end_of_INT2_CallBack 2B14  
                                         ?_SOM_DAC_Initialize 0557  
                                            ?_I2C1_Initialize 0557  
                                            ??_PMD_Initialize 0559  
                                        ??_SOM_DAC_Initialize 0559  
                                  __end_of_EXT_INT_Initialize 2AA6  
                             fp__INT0_DefaultInterruptHandler 0000  
                               ?_INT0_DefaultInterruptHandler 0557  
                               __end_of_PWM1_16BIT_Initialize 292A  
                                                 __pbssCOMRAM 0501  
                                  SOM_DAC_SetOutput@InputData 055A  
                                        _I2C1_DO_SEND_RESTART 000000  
                            __end_of_INT0_SetInterruptHandler 2D4C  
                                          _UART1_ErrorHandler 0569  
                                   _UART2_FramingErrorHandler 0566  
                                     __end_of_SPI1_Initialize 2C3C  
                                       _INT2_InterruptHandler 0545  
                                     ??_UART2_SetErrorHandler 055C  
                                                   __pnvBANK5 0560  
                                       _rd2RegCompleteHandler 000000  
                                      _PIN_MANAGER_Initialize 2640  
                                       _wr2RegCompleteHandler 000000  
                                           ?_UART1_Initialize 0557  
                        __end_of_UART1_SetFramingErrorHandler 2C96  
                                _UART1_SetFramingErrorHandler 2C88  
                                          ??_UART1_Initialize 055C  
                                                    _I2C1CON0 000294  
                                                    _I2C1CON1 000295  
                                                    _I2C1CON2 000296  
                                     ??_PWM3_16BIT_Initialize 055C  
                                            _uart1RxLastError 052C  
                                                    _DAC1DATL 00007D  
                                ??_INTERRUPT_InterruptManager 0557  
                                                 __smallconst 2600  
                                  ??_INT2_SetInterruptHandler 055C  
                            _UART1_DefaultOverrunErrorHandler 000000  
                                           ?_UART2_Initialize 0557  
                                                    _T0CKIPPS 000241  
                                                 _U1ERRIRbits 0002B2  
                                          ??_UART2_Initialize 055C  
                                        _INTERRUPT_Initialize 2D88  
                                                  _I2C1SDAPPS 000270  
                   _PWM2_16BIT_Period_DefaultInterruptHandler 000000  
                   _PWM3_16BIT_Period_DefaultInterruptHandler 000000  
                   _PWM1_16BIT_Period_DefaultInterruptHandler 000000  
                                                  _I2C1SCLPPS 000271  
                                            _uart2RxLastError 052B  
                                           ??_TMR0_Initialize 0559  
                                                 _U2ERRIRbits 0002C5  
                                                    _INT0_ISR 2D7A  
                                                    _INT1_ISR 2D72  
                                                    _INT2_ISR 2D6A  
                       UART2_SetErrorHandler@interruptHandler 0559  
                       UART1_SetErrorHandler@interruptHandler 0559  
                                                    _LATBbits 0004BF  
                                                    _LATCbits 0004C0  
                                                    _LATDbits 0004C1  
                                                    _LATEbits 0004C2  
                                                    _LATFbits 0004C3  
                                                  _I2C1_DO_RX 000000  
                                                  _I2C1_DO_TX 000000  
                                   ?_INT1_SetInterruptHandler 0559  
                          _PWM2_16BIT_Period_InterruptHandler 0533  
                                                    _PIE1bits 00049F  
                                                    _PIE4bits 0004A2  
                                                    _PIE5bits 0004A3  
                                                    _PIE6bits 0004A4  
                                                    _PIE7bits 0004A5  
                                                _SPI1CON0bits 000084  
                                               _I2C1STAT1bits 000299  
                                                    _PIR1bits 0004AF  
                                                    _SPI1BAUD 000089  
                                                    _PIR3bits 0004B1  
                                                    _PIR4bits 0004B2  
                                                    _SPI1CON0 000084  
                                                    _SPI1CON1 000085  
                                                    _SPI1CON2 000086  
                                                    _PIR5bits 0004B3  
                                                    _PIR6bits 0004B4  
                                                    _PIR7bits 0004B5  
                                                    _PIR8bits 0004B6  
                                                    _PWM1CPRE 000465  
                                                    _PWM2CPRE 000474  
                                                    _PWM3CPRE 000483  
                                   _I2C1_DO_SEND_RESTART_READ 000000  
                               ?_UART1_SetFramingErrorHandler 0559  
                                                  _ADCON0bits 0003F3  
                                                  _ADCON1bits 0003F4  
                                                  _ADCON2bits 0003F5  
                                                  _ADCON3bits 0003F6  
        __end_of_PWM1_16BIT_Slice1Output2_SetInterruptHandler 2D06  
        __end_of_PWM2_16BIT_Slice1Output2_SetInterruptHandler 2CDC  
        __end_of_PWM3_16BIT_Slice1Output2_SetInterruptHandler 2CB2  
              ??_PWM2_16BIT_Slice1Output2_SetInterruptHandler 055C  
              ??_PWM3_16BIT_Slice1Output2_SetInterruptHandler 055C  
              ??_PWM1_16BIT_Slice1Output2_SetInterruptHandler 055C  
               ?_PWM2_16BIT_Slice1Output2_SetInterruptHandler 0559  
               ?_PWM3_16BIT_Slice1Output2_SetInterruptHandler 0559  
               ?_PWM1_16BIT_Slice1Output2_SetInterruptHandler 0559  
                _PWM1_16BIT_Slice1Output2_SetInterruptHandler 2CF8  
                _PWM2_16BIT_Slice1Output2_SetInterruptHandler 2CCE  
                _PWM3_16BIT_Slice1Output2_SetInterruptHandler 2CA4  
                                                    _WPUBbits 000409  
                                                    _WPUCbits 000411  
                                                    _WPUDbits 000419  
                                                    _WPUEbits 000421  
                                                    _WPUFbits 000429  
                              ??_INT0_DefaultInterruptHandler 0557  
                                          _UART2_ErrorHandler 0560  
                                               _I2C1_DO_RESET 000000  
                                            ?_SPI1_Initialize 0557  
                                                 _INTCON0bits 0004D6  
                   _PWM1_16BIT_Slice1Output1_InterruptHandler 0554  
                   _PWM3_16BIT_Slice1Output1_InterruptHandler 0542  
                   _PWM2_16BIT_Slice1Output1_InterruptHandler 0539  
                                       ?_INTERRUPT_Initialize 0557  
                                           ??_DAC1_Initialize 0559  
                                    _INT0_SetInterruptHandler 2D3E  
                               __end_of_PWM2_16BIT_Initialize 28B0  
                                                  _ADSTATbits 0003F7  
                                                    __Hrparam 0000  
                                                    __Lrparam 0000  
                                           _SOM_DAC_SetOutput 2D58  
                                     ??_OSCILLATOR_Initialize 0559  
                                          ?_SOM_DAC_SetOutput 0557  
                                                  _ANSELBbits 000408  
                                                  _ANSELCbits 000410  
                                                  _ANSELDbits 000418  
                                                  _ANSELEbits 000420  
                                                  _ANSELFbits 000428  
                                                  _T0CON0bits 00031A  
                                         ??_SOM_DAC_SetOutput 055A  
                                                _I2C1CON0bits 000294  
                                                _I2C1CON1bits 000295  
                                                    __pivt0x8 0008  
                                                    __ptext10 2C3C  
                                                    __ptext11 2C22  
                                                    __ptext20 28B0  
                                                    __ptext12 27BC  
                                                    __ptext21 2CF8  
                                                    __ptext13 2CA4  
                                                    __ptext30 2D22  
                                                    __ptext22 2D06  
                                                    __ptext14 2CB2  
                                                    __ptext31 2D30  
                                                    __ptext23 2D14  
                                                    __ptext15 2CC0  
                                                    __ptext40 2AE4  
                                                    __ptext32 2D3E  
                                                    __ptext24 2BA0  
                                                    __ptext16 2836  
                                                    __ptext41 2D8C  
                                                    __ptext33 2A06  
                                                    __ptext25 2640  
                                                    __ptext17 2CCE  
                                                    __ptext42 2D72  
                                                    __ptext34 2D58  
                                                    __ptext26 2C06  
                                                    __ptext18 2CDC  
                                                    __ptext43 2B14  
                                                    __ptext35 2D62  
                                                    __ptext27 2D88  
                                                    __ptext19 2CEA  
                                                    __ptext44 2D8E  
                                                    __ptext36 2D82  
                                                    __ptext28 2BC4  
                                                    __ptext45 2D7A  
                                                    __ptext37 2D4C  
                                                    __ptext29 2A62  
                                                    __ptext46 2B44  
                                                    __ptext38 273E  
                                                    __ptext47 2D90  
                                                    __ptext39 2D6A  
                                                    __ptext48 0000  
                                       _I2C1_DO_BUS_COLLISION 000000  
                                                  _U1CON0bits 0002AB  
                               __end_of_UART1_SetErrorHandler 2CA4  
                                                  _U2CON0bits 0002BE  
                                    _I2C1_CallbackReturnReset 000000  
                            _UART2_DefaultFramingErrorHandler 000000  
                                   __end_of_SOM_DAC_SetOutput 2D62  
                                   _UART1_OverrunErrorHandler 052D  
                UART2_SetOverrunErrorHandler@interruptHandler 0559  
                UART1_SetOverrunErrorHandler@interruptHandler 0559  
                                                    isa$xinst 000000  
                          _PWM1_16BIT_Period_InterruptHandler 054E  
                                                  _ODCONBbits 00040A  
                                                  _ODCONCbits 000412  
                                                  _ODCONDbits 00041A  
                                                  _ODCONEbits 000422  
                                                  _ODCONFbits 00042A  
                          __end_of_INTERRUPT_InterruptManager 27BC  
                                  _INTERRUPT_InterruptManager 273E  
                                                _I2C1_DO_IDLE 000000  
                        __end_of_INT1_DefaultInterruptHandler 2D90  
                                _INT1_DefaultInterruptHandler 2D8E  
                              ??_UART1_SetFramingErrorHandler 055C  
                                                 _PWM1GIEbits 000468  
                                                 _PWM1CONbits 000469  
                                                 _PWM2GIEbits 000477  
                                                 _PWM1GIRbits 000467  
                                                 _PWM2CONbits 000478  
                                                 _PWM3GIEbits 000486  
                                                 _PWM3CONbits 000487  
                                                 _PWM2GIRbits 000476  
                                                 _PWM3GIRbits 000485  
                                      ??_INTERRUPT_Initialize 0559  
                                          _EXT_INT_Initialize 2A62  
                        __end_of_UART2_SetOverrunErrorHandler 2C5E  
                                _UART2_SetOverrunErrorHandler 2C50  
                                                    intlevel2 0000  
                                     ?_PIN_MANAGER_Initialize 0557  
                                         ?_EXT_INT_Initialize 0557  
                                     _I2C1_CallbackReturnStop 000000  
                               __end_of_UART2_SetErrorHandler 2C7A  
                                        _I2C1_DO_ADDRESS_NACK 000000  
                                                  _SPI1SDIPPS 00026B  
                                                  _SPI1SCKPPS 00026A  
                   _PWM1_16BIT_Slice1Output2_InterruptHandler 0551  
                   _PWM3_16BIT_Slice1Output2_InterruptHandler 053F  
                   _PWM2_16BIT_Slice1Output2_InterruptHandler 0536  
                UART2_SetFramingErrorHandler@interruptHandler 0559  
                UART1_SetFramingErrorHandler@interruptHandler 0559  
                               __end_of_PWM3_16BIT_Initialize 2836  
                                        ??_EXT_INT_Initialize 055C  
                             fp__INT1_DefaultInterruptHandler 0000  
                               ?_INT1_DefaultInterruptHandler 0557  
                                             _TMR0_Initialize 2C3C  
                                       _PWM1_16BIT_Initialize 28B0  
                            __end_of_INT1_SetInterruptHandler 2D3E  
                              __end_of_PIN_MANAGER_Initialize 273E  
                                           ??_ADCC_Initialize 0559  
                               ?_UART2_SetOverrunErrorHandler 0559  
                                  __end_of_spi1_configuration 263F  
