

Microchip MPLAB XC8 Assembler V2.40 build 20220703182018 
                                                                                               Fri Dec 16 10:19:36 2022

Microchip MPLAB XC8 C Compiler v2.40 (Free license) build 20220703182018 Og1 
     1                           	processor	18F57Q43
     2                           	fnconf	rparam,??,?,0
     3                           	pagewidth 120
     4                           	opt	flic
     5                           	psect	nvBANK5,global,class=BANK5,space=1,delta=1,lowdata,noexec
     6                           	psect	smallconst,global,reloc=2,class=SMALLCONST,delta=1,noexec
     7                           	psect	cinit,global,reloc=2,class=CODE,delta=1
     8                           	psect	bssCOMRAM,global,class=COMRAM,space=1,delta=1,lowdata,noexec
     9                           	psect	bssBANK5,global,class=BANK5,space=1,delta=1,lowdata,noexec
    10                           	psect	cstackBANK5,global,class=BANK5,space=1,delta=1,lowdata,noexec
    11                           	psect	cstackCOMRAM,global,class=COMRAM,space=1,delta=1,lowdata,noexec
    12                           	psect	text0,global,reloc=2,class=CODE,delta=1
    13                           	psect	text1,global,reloc=2,class=CODE,delta=1,group=3
    14                           	psect	text2,global,reloc=2,class=CODE,delta=1,group=1
    15                           	psect	text3,global,reloc=2,class=CODE,delta=1,group=1
    16                           	psect	text4,global,reloc=2,class=CODE,delta=1,group=1
    17                           	psect	text5,global,reloc=2,class=CODE,delta=1,group=1
    18                           	psect	text6,global,reloc=2,class=CODE,delta=1,group=3
    19                           	psect	text7,global,reloc=2,class=CODE,delta=1,group=3
    20                           	psect	text8,global,reloc=2,class=CODE,delta=1
    21                           	psect	text9,global,reloc=2,class=CODE,delta=1
    22                           	psect	text10,global,reloc=2,class=CODE,delta=1,group=3
    23                           	psect	text11,global,reloc=2,class=CODE,delta=1,group=2
    24                           	psect	text12,global,reloc=2,class=CODE,delta=1,group=2
    25                           	psect	text13,global,reloc=2,class=CODE,delta=1
    26                           	psect	text14,global,reloc=2,class=CODE,delta=1
    27                           	psect	text15,global,reloc=2,class=CODE,delta=1
    28                           	psect	text16,global,reloc=2,class=CODE,delta=1
    29                           	psect	text17,global,reloc=2,class=CODE,delta=1
    30                           	psect	text18,global,reloc=2,class=CODE,delta=1
    31                           	psect	text19,global,reloc=2,class=CODE,delta=1
    32                           	psect	text20,global,reloc=2,class=CODE,delta=1
    33                           	psect	text21,global,reloc=2,class=CODE,delta=1
    34                           	psect	text22,global,reloc=2,class=CODE,delta=1
    35                           	psect	text23,global,reloc=2,class=CODE,delta=1
    36                           	psect	text24,global,reloc=2,class=CODE,delta=1
    37                           	psect	intsave_regs,global,class=BIGRAM,space=1,delta=1,noexec
    38                           	psect	rparam,global,class=COMRAM,space=1,delta=1,noexec
    39                           	psect	idloc,global,abs,ovrld,class=IDLOC,space=5,delta=1,noexec
    40                           	psect	config,global,abs,ovrld,class=CONFIG,space=4,delta=1,noexec
    41   000000                     
    42                           ; Generated 17/06/2022 GMT
    43                           ; 
    44                           ; Copyright © 2022, Microchip Technology Inc. and its subsidiaries ("Microchip")
    45                           ; All rights reserved.
    46                           ; 
    47                           ; This software is developed by Microchip Technology Inc. and its subsidiaries ("Microch
      +                          ip").
    48                           ; 
    49                           ; Redistribution and use in source and binary forms, with or without modification, are
    50                           ; permitted provided that the following conditions are met:
    51                           ; 
    52                           ;     1. Redistributions of source code must retain the above copyright notice, this lis
      +                          t of
    53                           ;        conditions and the following disclaimer.
    54                           ; 
    55                           ;     2. Redistributions in binary form must reproduce the above copyright notice, this 
      +                          list
    56                           ;        of conditions and the following disclaimer in the documentation and/or other
    57                           ;        materials provided with the distribution. Publication is not required when
    58                           ;        this file is used in an embedded application.
    59                           ; 
    60                           ;     3. Microchip's name may not be used to endorse or promote products derived from th
      +                          is
    61                           ;        software without specific prior written permission.
    62                           ; 
    63                           ; THIS SOFTWARE IS PROVIDED BY MICROCHIP "AS IS" AND ANY EXPRESS OR IMPLIED WARRANTIES,
    64                           ; INCLUDING, BUT NOT LIMITED TO, THE IMPLIED WARRANTIES OF MERCHANTABILITY AND FITNESS F
      +                          OR
    65                           ; PURPOSE ARE DISCLAIMED.  IN NO EVENT SHALL MICROCHIP BE LIABLE FOR ANY DIRECT, INDIREC
      +                          T,
    66                           ; INCIDENTAL, SPECIAL, EXEMPLARY, OR CONSEQUENTIAL DAMAGES (INCLUDING BUT NOT LIMITED TO
    67                           ; PROCUREMENT OF SUBSTITUTE GOODS OR SERVICES; LOSS OF USE, DATA OR PROFITS; OR BUSINESS
    68                           ; INTERRUPTION) HOWSOEVER CAUSED AND ON ANY THEORY OF LIABILITY, WHETHER IN CONTRACT, ST
      +                          RICT
    69                           ; LIABILITY, OR TORT (INCLUDING NEGLIGENCE OR OTHERWISE) ARISING IN ANY WAY OUT OF THE U
      +                          SE OF
    70                           ; THIS SOFTWARE, EVEN IF ADVISED OF THE POSSIBILITY OF SUCH DAMAGE.
    71                           ; 
    72                           ; 
    73                           ; Code-generator required, PIC18F57Q43 Definitions
    74                           ; 
    75                           ; SFR Addresses
    76   000000                     
    77 ;; Function _UART3_DefaultFramingErrorHandler is unused but had its address taken
    78   000000                     
    79 ;; Function _UART3_DefaultOverrunErrorHandler is unused but had its address taken
    80   000000                     
    81 ;; Function _UART3_DefaultErrorHandler is unused but had its address taken
    82   000000                     _OSCTUNE	set	176
    83   000000                     _OSCFRQ	set	177
    84   000000                     _OSCEN	set	179
    85   000000                     _ADERRL	set	989
    86   000000                     _ADERRH	set	990
    87   000000                     _ADPREVL	set	1000
    88   000000                     _ADPREVH	set	1001
    89   000000                     _ADFLTRL	set	993
    90   000000                     _ADFLTRH	set	994
    91   000000                     _ADACCL	set	995
    92   000000                     _ADACCH	set	996
    93   000000                     _ADCNT	set	998
    94   000000                     _ADRESL	set	1002
    95   000000                     _ADRESH	set	1003
    96   000000                     _ADCON0	set	1011
    97   000000                     _ADCON1	set	1012
    98   000000                     _ADPREH	set	1010
    99   000000                     _ADPREL	set	1009
   100   000000                     _ADCAP	set	1008
   101   000000                     _ADACQH	set	1007
   102   000000                     _ADPCH	set	1004
   103   000000                     _ADRPT	set	999
   104   000000                     _ADACCU	set	997
   105   000000                     _ADSTPTH	set	992
   106   000000                     _ADSTPTL	set	991
   107   000000                     _ADUTHH	set	988
   108   000000                     _ADUTHL	set	987
   109   000000                     _ADLTHH	set	986
   110   000000                     _TRISD	set	1225
   111   000000                     _TRISC	set	1224
   112   000000                     _TRISB	set	1223
   113   000000                     _LATC	set	1216
   114   000000                     _LATB	set	1215
   115                           
   116                           	psect	nvBANK5
   117   000587                     __pnvBANK5:
   118                           	callstack 0
   119   000587                     _UART3_ErrorHandler:
   120                           	callstack 0
   121   000587                     	ds	3
   122   00058A                     _UART3_OverrunErrorHandler:
   123                           	callstack 0
   124   00058A                     	ds	3
   125   00058D                     _UART3_FramingErrorHandler:
   126                           	callstack 0
   127   00058D                     	ds	3
   128   000000                     _U3ERRIRbits	set	728
   129   000000                     _U3CON0bits	set	721
   130   000000                     _ADCON1bits	set	1012
   131   000000                     _ADSTATbits	set	1015
   132   000000                     _ADCON2bits	set	1013
   133   000000                     _ADCON3bits	set	1014
   134   000000                     _ADCON0bits	set	1011
   135   000000                     _LATAbits	set	1214
   136   000000                     _PMD0	set	96
   137   000000                     _ACTCON	set	172
   138   000000                     _OSCCON1	set	173
   139   000000                     _RF0PPS	set	553
   140   000000                     _RC4I2C	set	646
   141   000000                     _RC3I2C	set	647
   142   000000                     _RB2I2C	set	648
   143   000000                     _RB1I2C	set	649
   144   000000                     _ANSELA	set	1024
   145   000000                     _ANSELB	set	1032
   146   000000                     _ANSELC	set	1040
   147   000000                     _ANSELD	set	1048
   148   000000                     _LATA	set	1214
   149   000000                     _LATD	set	1217
   150   000000                     _LATE	set	1218
   151   000000                     _TRISA	set	1222
   152   000000                     _TRISE	set	1226
   153   000000                     _LATF	set	1219
   154   000000                     _PORTAbits	set	1230
   155   000000                     _TRISF	set	1227
   156   000000                     _INLVLD	set	1052
   157   000000                     _SLRCOND	set	1051
   158   000000                     _ODCOND	set	1050
   159   000000                     _WPUD	set	1049
   160   000000                     _ANSELE	set	1056
   161   000000                     _INLVLC	set	1044
   162   000000                     _SLRCONC	set	1043
   163   000000                     _ODCONC	set	1042
   164   000000                     _WPUC	set	1041
   165   000000                     _INLVLB	set	1036
   166   000000                     _SLRCONB	set	1035
   167   000000                     _ODCONB	set	1034
   168   000000                     _WPUB	set	1033
   169   000000                     _INLVLE	set	1060
   170   000000                     _SLRCONE	set	1059
   171   000000                     _ODCONE	set	1058
   172   000000                     _WPUE	set	1057
   173   000000                     _ANSELF	set	1064
   174   000000                     _PIR9bits	set	1207
   175   000000                     _INLVLF	set	1068
   176   000000                     _SLRCONF	set	1067
   177   000000                     _ODCONF	set	1066
   178   000000                     _WPUF	set	1065
   179   000000                     _INLVLA	set	1028
   180   000000                     _SLRCONA	set	1027
   181   000000                     _ODCONA	set	1026
   182   000000                     _WPUA	set	1025
   183   000000                     _U3RXB	set	711
   184   000000                     _U3P1L	set	715
   185   000000                     _ADLTHL	set	985
   186   000000                     _U3RXPPS	set	630
   187   000000                     _ADACQL	set	1006
   188   000000                     _ADCLK	set	1018
   189   000000                     _ADACT	set	1017
   190   000000                     _ADREF	set	1016
   191   000000                     _ADSTAT	set	1015
   192   000000                     _ADCON3	set	1014
   193   000000                     _ADCON2	set	1013
   194   000000                     _OSCCON3	set	175
   195   000000                     _PMD3	set	99
   196   000000                     _PMD1	set	97
   197   000000                     _PMD8	set	104
   198   000000                     _PMD7	set	103
   199   000000                     _PMD6	set	102
   200   000000                     _PMD5	set	101
   201   000000                     _PMD4	set	100
   202   000000                     _U3P2L	set	717
   203   000000                     _U3P3L	set	719
   204   000000                     _U3CON0	set	721
   205   000000                     _U3ERRIE	set	729
   206   000000                     _U3ERRIR	set	728
   207   000000                     _U3UIR	set	727
   208   000000                     _U3FIFO	set	726
   209   000000                     _U3BRGH	set	725
   210   000000                     _U3BRGL	set	724
   211   000000                     _U3CON2	set	723
   212   000000                     _U3CON1	set	722
   213   000000                     _U3TXB	set	713
   214                           
   215                           	psect	smallconst
   216   002600                     __psmallconst:
   217                           	callstack 0
   218   002600  00                 	db	0
   219   002601                     STR_1:
   220                           
   221                           ; BSR set to: 3
   222   002601  25                 	db	37
   223   002602  64                 	db	100	;'d'
   224   002603  20                 	db	32
   225   002604  00                 	db	0
   226   002605  00                 	db	0	; dummy byte at the end
   227   000000                     
   228                           ; #config settings
   229                           
   230                           	psect	cinit
   231   00314C                     __pcinit:
   232                           	callstack 0
   233   00314C                     start_initialization:
   234                           	callstack 0
   235   00314C                     __initialization:
   236                           	callstack 0
   237                           
   238                           ; Clear objects allocated to BANK5 (39 bytes)
   239   00314C  EE01  F160         	lfsr	0,__pbssBANK5
   240   003150  0E27               	movlw	39
   241   003152                     clear_0:
   242   003152  6AEE               	clrf	postinc0,c
   243   003154  06E8               	decf	wreg,f,c
   244   003156  E1FD               	bnz	clear_0
   245                           
   246                           ; Clear objects allocated to COMRAM (1 bytes)
   247   003158  6A5F               	clrf	__pbssCOMRAM& (0+255),c
   248   00315A                     end_of_initialization:
   249                           	callstack 0
   250   00315A                     __end_of__initialization:
   251                           	callstack 0
   252   00315A  0100               	movlb	0
   253   00315C  EF43  F017         	goto	_main	;jump to C main() function
   254                           
   255                           	psect	bssCOMRAM
   256   00055F                     __pbssCOMRAM:
   257                           	callstack 0
   258   00055F                     _uart3RxLastError:
   259                           	callstack 0
   260   00055F                     	ds	1
   261                           
   262                           	psect	bssBANK5
   263   000560                     __pbssBANK5:
   264                           	callstack 0
   265   000560                     _width:
   266                           	callstack 0
   267   000560                     	ds	2
   268   000562                     _prec:
   269                           	callstack 0
   270   000562                     	ds	2
   271   000564                     _value:
   272                           	callstack 0
   273   000564                     	ds	2
   274   000566                     _flags:
   275                           	callstack 0
   276   000566                     	ds	1
   277   000567                     _dbuf:
   278                           	callstack 0
   279   000567                     	ds	32
   280                           
   281                           	psect	cstackBANK5
   282   000590                     __pcstackBANK5:
   283                           	callstack 0
   284   000590                     printf@ap:
   285                           	callstack 0
   286                           
   287                           ; 2 bytes @ 0x0
   288   000590                     	ds	2
   289                           
   290                           	psect	cstackCOMRAM
   291   000501                     __pcstackCOMRAM:
   292                           	callstack 0
   293   000501                     ?_ADCC_GetConversionResult:
   294                           	callstack 0
   295   000501                     ?___aodiv:
   296                           	callstack 0
   297   000501                     ?___aomod:
   298                           	callstack 0
   299   000501                     ADCC_StartConversion@channel:
   300                           	callstack 0
   301   000501                     UART3_Write@txData:
   302                           	callstack 0
   303   000501                     UART3_SetFramingErrorHandler@interruptHandler:
   304                           	callstack 0
   305   000501                     UART3_SetOverrunErrorHandler@interruptHandler:
   306                           	callstack 0
   307   000501                     UART3_SetErrorHandler@interruptHandler:
   308                           	callstack 0
   309   000501                     ___aodiv@dividend:
   310                           	callstack 0
   311   000501                     ___aomod@dividend:
   312                           	callstack 0
   313                           
   314                           ; 8 bytes @ 0x0
   315   000501                     	ds	1
   316   000502                     putch@txData:
   317                           	callstack 0
   318                           
   319                           ; 1 bytes @ 0x1
   320   000502                     	ds	1
   321   000503                     ??_ADCC_GetConversionResult:
   322   000503                     fputc@c:
   323                           	callstack 0
   324                           
   325                           ; 2 bytes @ 0x2
   326   000503                     	ds	1
   327   000504                     
   328                           ; 1 bytes @ 0x3
   329   000504                     	ds	1
   330   000505                     fputc@fp:
   331                           	callstack 0
   332                           
   333                           ; 2 bytes @ 0x4
   334   000505                     	ds	2
   335   000507                     ??_fputc:
   336                           
   337                           ; 1 bytes @ 0x6
   338   000507                     	ds	2
   339   000509                     ___aodiv@divisor:
   340                           	callstack 0
   341   000509                     ___aomod@divisor:
   342                           	callstack 0
   343                           
   344                           ; 8 bytes @ 0x8
   345   000509                     	ds	3
   346   00050C                     fputs@s:
   347                           	callstack 0
   348                           
   349                           ; 2 bytes @ 0xB
   350   00050C                     	ds	2
   351   00050E                     fputs@fp:
   352                           	callstack 0
   353                           
   354                           ; 2 bytes @ 0xD
   355   00050E                     	ds	2
   356   000510                     fputs@c:
   357                           	callstack 0
   358                           
   359                           ; 1 bytes @ 0xF
   360   000510                     	ds	1
   361   000511                     ___aodiv@counter:
   362                           	callstack 0
   363   000511                     ___aomod@counter:
   364                           	callstack 0
   365   000511                     fputs@i:
   366                           	callstack 0
   367                           
   368                           ; 2 bytes @ 0x10
   369   000511                     	ds	1
   370   000512                     ___aodiv@sign:
   371                           	callstack 0
   372   000512                     ___aomod@sign:
   373                           	callstack 0
   374                           
   375                           ; 1 bytes @ 0x11
   376   000512                     	ds	1
   377   000513                     ?_abs:
   378                           	callstack 0
   379   000513                     pad@fp:
   380                           	callstack 0
   381   000513                     abs@a:
   382                           	callstack 0
   383   000513                     ___aodiv@quotient:
   384                           	callstack 0
   385                           
   386                           ; 8 bytes @ 0x12
   387   000513                     	ds	2
   388   000515                     ??_abs:
   389   000515                     pad@buf:
   390                           	callstack 0
   391                           
   392                           ; 2 bytes @ 0x14
   393   000515                     	ds	2
   394   000517                     pad@p:
   395                           	callstack 0
   396                           
   397                           ; 2 bytes @ 0x16
   398   000517                     	ds	2
   399   000519                     ??_pad:
   400                           
   401                           ; 1 bytes @ 0x18
   402   000519                     	ds	1
   403   00051A                     pad@i:
   404                           	callstack 0
   405                           
   406                           ; 2 bytes @ 0x19
   407   00051A                     	ds	2
   408   00051C                     pad@w:
   409                           	callstack 0
   410                           
   411                           ; 2 bytes @ 0x1B
   412   00051C                     	ds	2
   413   00051E                     dtoa@fp:
   414                           	callstack 0
   415                           
   416                           ; 2 bytes @ 0x1D
   417   00051E                     	ds	2
   418   000520                     dtoa@d:
   419                           	callstack 0
   420                           
   421                           ; 8 bytes @ 0x1F
   422   000520                     	ds	8
   423   000528                     ??_dtoa:
   424                           
   425                           ; 1 bytes @ 0x27
   426   000528                     	ds	8
   427   000530                     _dtoa$1295:
   428                           	callstack 0
   429                           
   430                           ; 2 bytes @ 0x2F
   431   000530                     	ds	2
   432   000532                     dtoa@p:
   433                           	callstack 0
   434                           
   435                           ; 2 bytes @ 0x31
   436   000532                     	ds	2
   437   000534                     dtoa@w:
   438                           	callstack 0
   439                           
   440                           ; 2 bytes @ 0x33
   441   000534                     	ds	2
   442   000536                     dtoa@n:
   443                           	callstack 0
   444                           
   445                           ; 8 bytes @ 0x35
   446   000536                     	ds	8
   447   00053E                     dtoa@i:
   448                           	callstack 0
   449                           
   450                           ; 2 bytes @ 0x3D
   451   00053E                     	ds	2
   452   000540                     dtoa@s:
   453                           	callstack 0
   454                           
   455                           ; 1 bytes @ 0x3F
   456   000540                     	ds	1
   457   000541                     vfpfcnvrt@fp:
   458                           	callstack 0
   459                           
   460                           ; 2 bytes @ 0x40
   461   000541                     	ds	2
   462   000543                     vfpfcnvrt@fmt:
   463                           	callstack 0
   464                           
   465                           ; 2 bytes @ 0x42
   466   000543                     	ds	2
   467   000545                     vfpfcnvrt@ap:
   468                           	callstack 0
   469                           
   470                           ; 2 bytes @ 0x44
   471   000545                     	ds	2
   472   000547                     ??_vfpfcnvrt:
   473                           
   474                           ; 1 bytes @ 0x46
   475   000547                     	ds	2
   476   000549                     vfpfcnvrt@convarg:
   477                           	callstack 0
   478                           
   479                           ; 8 bytes @ 0x48
   480   000549                     	ds	8
   481   000551                     vfpfcnvrt@cp:
   482                           	callstack 0
   483                           
   484                           ; 2 bytes @ 0x50
   485   000551                     	ds	2
   486   000553                     ?_vfprintf:
   487                           	callstack 0
   488   000553                     vfprintf@fp:
   489                           	callstack 0
   490                           
   491                           ; 2 bytes @ 0x52
   492   000553                     	ds	2
   493   000555                     vfprintf@fmt:
   494                           	callstack 0
   495                           
   496                           ; 2 bytes @ 0x54
   497   000555                     	ds	2
   498   000557                     vfprintf@ap:
   499                           	callstack 0
   500                           
   501                           ; 2 bytes @ 0x56
   502   000557                     	ds	2
   503   000559                     vfprintf@cfmt:
   504                           	callstack 0
   505                           
   506                           ; 2 bytes @ 0x58
   507   000559                     	ds	2
   508   00055B                     ?_printf:
   509                           	callstack 0
   510   00055B                     printf@fmt:
   511                           	callstack 0
   512                           
   513                           ; 2 bytes @ 0x5A
   514   00055B                     	ds	4
   515   00055F                     
   516                           ; 1 bytes @ 0x5E
   517 ;;
   518 ;;Main: autosize = 0, tempsize = 0, incstack = 0, save=0
   519 ;;
   520 ;; *************** function _main *****************
   521 ;; Defined at:
   522 ;;		line 52 in file "main.c"
   523 ;; Parameters:    Size  Location     Type
   524 ;;		None
   525 ;; Auto vars:     Size  Location     Type
   526 ;;		None
   527 ;; Return value:  Size  Location     Type
   528 ;;                  1    wreg      void 
   529 ;; Registers used:
   530 ;;		wreg, fsr1l, fsr1h, fsr2l, fsr2h, status,2, status,0, tblptrl, tblptrh, tblptru, cstack
   531 ;; Tracked objects:
   532 ;;		On entry : 0/0
   533 ;;		On exit  : 0/0
   534 ;;		Unchanged: 0/0
   535 ;; Data sizes:     COMRAM   BANK5   BANK6   BANK7   BANK8   BANK9  BANK10  BANK11  BANK12  BANK13  BANK14  BANK15  BANK1
      +6  BANK17  BANK18  BANK19  BANK20  BANK21  BANK22  BANK23  BANK24  BANK25  BANK26  BANK27  BANK28  BANK29  BANK30  BANK3
      +1  BANK32  BANK33  BANK34  BANK35  BANK36
   536 ;;      Params:         0       0       0       0       0       0       0       0       0       0       0       0       
      +0       0       0       0       0       0       0       0       0       0       0       0       0       0       0       
      +0       0       0       0       0       0
   537 ;;      Locals:         0       0       0       0       0       0       0       0       0       0       0       0       
      +0       0       0       0       0       0       0       0       0       0       0       0       0       0       0       
      +0       0       0       0       0       0
   538 ;;      Temps:          0       0       0       0       0       0       0       0       0       0       0       0       
      +0       0       0       0       0       0       0       0       0       0       0       0       0       0       0       
      +0       0       0       0       0       0
   539 ;;      Totals:         0       0       0       0       0       0       0       0       0       0       0       0       
      +0       0       0       0       0       0       0       0       0       0       0       0       0       0       0       
      +0       0       0       0       0       0
   540 ;;Total ram usage:        0 bytes
   541 ;; Hardware stack levels required when called: 9
   542 ;; This function calls:
   543 ;;		_ADCC_GetConversionResult
   544 ;;		_ADCC_Initialize
   545 ;;		_ADCC_IsConversionDone
   546 ;;		_ADCC_StartConversion
   547 ;;		_SYSTEM_Initialize
   548 ;;		_printf
   549 ;; This function is called by:
   550 ;;		Startup code after reset
   551 ;; This function uses a non-reentrant model
   552 ;;
   553                           
   554                           	psect	text0
   555   002E86                     __ptext0:
   556                           	callstack 0
   557   002E86                     _main:
   558                           	callstack 118
   559   002E86                     
   560                           ;main.c: 55:     SYSTEM_Initialize();
   561   002E86  EC85  F018         	call	_SYSTEM_Initialize	;wreg free
   562   002E8A                     
   563                           ;main.c: 56:     ADCC_Initialize();
   564   002E8A  ECAD  F017         	call	_ADCC_Initialize	;wreg free
   565   002E8E                     l1990:
   566                           
   567                           ;main.c: 68:     {;main.c: 69:         ADCC_StartConversion(channel_ANA0);
   568   002E8E  0E00               	movlw	0
   569   002E90  ECC5  F018         	call	_ADCC_StartConversion
   570   002E94                     l1992:
   571   002E94  EC90  F018         	call	_ADCC_IsConversionDone	;wreg free
   572   002E98  0900               	iorlw	0
   573   002E9A  B4D8               	btfsc	status,2,c
   574   002E9C  EF52  F017         	goto	u971
   575   002EA0  EF54  F017         	goto	u970
   576   002EA4                     u971:
   577   002EA4  EF4A  F017         	goto	l1992
   578   002EA8                     u970:
   579   002EA8                     
   580                           ;main.c: 71:         value = ADCC_GetConversionResult();
   581   002EA8  EC9B  F018         	call	_ADCC_GetConversionResult	;wreg free
   582   002EAC  C501  F564         	movff	?_ADCC_GetConversionResult,_value
   583   002EB0  C502  F565         	movff	?_ADCC_GetConversionResult+1,_value+1
   584   002EB4                     
   585                           ;main.c: 72:         printf("%d ", value);
   586   002EB4  0E01               	movlw	low STR_1
   587   002EB6  6E5B               	movwf	printf@fmt^(0+1280),c
   588   002EB8  0E26               	movlw	high STR_1
   589   002EBA  6E5C               	movwf	(printf@fmt+1)^(0+1280),c
   590   002EBC  C564  F55D         	movff	_value,?_printf+2
   591   002EC0  C565  F55E         	movff	_value+1,?_printf+3
   592   002EC4  EC46  F018         	call	_printf	;wreg free
   593   002EC8                     
   594                           ;main.c: 73:         PORTAbits.RA4 = value;
   595   002EC8  0105               	movlb	5	; () banked
   596   002ECA  B164               	btfsc	_value& (0+255),0,b
   597   002ECC  D002               	bra	u985
   598   002ECE  98CE               	bcf	206,4,c	;volatile
   599   002ED0  D001               	bra	u986
   600   002ED2                     u985:
   601   002ED2  88CE               	bsf	206,4,c	;volatile
   602   002ED4                     u986:
   603   002ED4                     
   604                           ;main.c: 74:         if(PORTAbits.RA4)
   605   002ED4  A8CE               	btfss	206,4,c	;volatile
   606   002ED6  EF6F  F017         	goto	u991
   607   002EDA  EF71  F017         	goto	u990
   608   002EDE                     u991:
   609   002EDE  EF74  F017         	goto	l450
   610   002EE2                     u990:
   611   002EE2  88BE               	bsf	190,4,c	;volatile
   612   002EE4  EF47  F017         	goto	l1990
   613   002EE8                     l450:
   614   002EE8  98BE               	bcf	190,4,c	;volatile
   615   002EEA  EF47  F017         	goto	l1990
   616   002EEE  EFFE  F0FF         	goto	start
   617   002EF2                     __end_of_main:
   618                           	callstack 0
   619                           
   620 ;; *************** function _printf *****************
   621 ;; Defined at:
   622 ;;		line 5 in file "C:\Program Files\Microchip\xc8\v2.40\pic\sources\c99\common\printf.c"
   623 ;; Parameters:    Size  Location     Type
   624 ;;  fmt             2   90[COMRAM] PTR const unsigned char 
   625 ;;		 -> STR_1(4), 
   626 ;; Auto vars:     Size  Location     Type
   627 ;;  ap              2    0[BANK5 ] PTR void [1]
   628 ;;		 -> ?_printf(2), 
   629 ;;  ret             2    0        int 
   630 ;; Return value:  Size  Location     Type
   631 ;;                  2   90[COMRAM] int 
   632 ;; Registers used:
   633 ;;		wreg, fsr1l, fsr1h, fsr2l, fsr2h, status,2, status,0, tblptrl, tblptrh, tblptru, cstack
   634 ;; Tracked objects:
   635 ;;		On entry : 0/0
   636 ;;		On exit  : 0/0
   637 ;;		Unchanged: 0/0
   638 ;; Data sizes:     COMRAM   BANK5   BANK6   BANK7   BANK8   BANK9  BANK10  BANK11  BANK12  BANK13  BANK14  BANK15  BANK1
      +6  BANK17  BANK18  BANK19  BANK20  BANK21  BANK22  BANK23  BANK24  BANK25  BANK26  BANK27  BANK28  BANK29  BANK30  BANK3
      +1  BANK32  BANK33  BANK34  BANK35  BANK36
   639 ;;      Params:         4       0       0       0       0       0       0       0       0       0       0       0       
      +0       0       0       0       0       0       0       0       0       0       0       0       0       0       0       
      +0       0       0       0       0       0
   640 ;;      Locals:         0       2       0       0       0       0       0       0       0       0       0       0       
      +0       0       0       0       0       0       0       0       0       0       0       0       0       0       0       
      +0       0       0       0       0       0
   641 ;;      Temps:          0       0       0       0       0       0       0       0       0       0       0       0       
      +0       0       0       0       0       0       0       0       0       0       0       0       0       0       0       
      +0       0       0       0       0       0
   642 ;;      Totals:         4       2       0       0       0       0       0       0       0       0       0       0       
      +0       0       0       0       0       0       0       0       0       0       0       0       0       0       0       
      +0       0       0       0       0       0
   643 ;;Total ram usage:        6 bytes
   644 ;; Hardware stack levels used: 1
   645 ;; Hardware stack levels required when called: 8
   646 ;; This function calls:
   647 ;;		_vfprintf
   648 ;; This function is called by:
   649 ;;		_main
   650 ;; This function uses a non-reentrant model
   651 ;;
   652                           
   653                           	psect	text1
   654   00308C                     __ptext1:
   655                           	callstack 0
   656   00308C                     _printf:
   657                           	callstack 118
   658   00308C  0E5D               	movlw	low (?_printf+2)
   659   00308E  0105               	movlb	5	; () banked
   660   003090  6F90               	movwf	printf@ap& (0+255),b
   661   003092  0E05               	movlw	high (?_printf+2)
   662   003094  6F91               	movwf	(printf@ap+1)& (0+255),b
   663   003096                     
   664                           ; BSR set to: 5
   665   003096  0E00               	movlw	0
   666   003098  6E53               	movwf	vfprintf@fp^(0+1280),c
   667   00309A  0E00               	movlw	0
   668   00309C  6E54               	movwf	(vfprintf@fp+1)^(0+1280),c
   669   00309E  C55B  F555         	movff	printf@fmt,vfprintf@fmt
   670   0030A2  C55C  F556         	movff	printf@fmt+1,vfprintf@fmt+1
   671   0030A6  0E90               	movlw	low printf@ap
   672   0030A8  6E57               	movwf	vfprintf@ap^(0+1280),c
   673   0030AA  0E05               	movlw	high printf@ap
   674   0030AC  6E58               	movwf	(vfprintf@ap+1)^(0+1280),c
   675   0030AE  ECDB  F017         	call	_vfprintf	;wreg free
   676   0030B2  0012               	return		;funcret
   677   0030B4                     __end_of_printf:
   678                           	callstack 0
   679                           
   680 ;; *************** function _vfprintf *****************
   681 ;; Defined at:
   682 ;;		line 1520 in file "C:\Program Files\Microchip\xc8\v2.40\pic\sources\c99\common\doprnt.c"
   683 ;; Parameters:    Size  Location     Type
   684 ;;  fp              2   82[COMRAM] PTR struct _IO_FILE
   685 ;;		 -> NULL(0), 
   686 ;;  fmt             2   84[COMRAM] PTR const unsigned char 
   687 ;;		 -> STR_1(4), 
   688 ;;  ap              2   86[COMRAM] PTR PTR void 
   689 ;;		 -> printf@ap(2), 
   690 ;; Auto vars:     Size  Location     Type
   691 ;;  cfmt            2   88[COMRAM] PTR unsigned char 
   692 ;;		 -> STR_1(4), 
   693 ;; Return value:  Size  Location     Type
   694 ;;                  2   82[COMRAM] int 
   695 ;; Registers used:
   696 ;;		wreg, fsr1l, fsr1h, fsr2l, fsr2h, status,2, status,0, tblptrl, tblptrh, tblptru, cstack
   697 ;; Tracked objects:
   698 ;;		On entry : 0/0
   699 ;;		On exit  : 0/0
   700 ;;		Unchanged: 0/0
   701 ;; Data sizes:     COMRAM   BANK5   BANK6   BANK7   BANK8   BANK9  BANK10  BANK11  BANK12  BANK13  BANK14  BANK15  BANK1
      +6  BANK17  BANK18  BANK19  BANK20  BANK21  BANK22  BANK23  BANK24  BANK25  BANK26  BANK27  BANK28  BANK29  BANK30  BANK3
      +1  BANK32  BANK33  BANK34  BANK35  BANK36
   702 ;;      Params:         6       0       0       0       0       0       0       0       0       0       0       0       
      +0       0       0       0       0       0       0       0       0       0       0       0       0       0       0       
      +0       0       0       0       0       0
   703 ;;      Locals:         2       0       0       0       0       0       0       0       0       0       0       0       
      +0       0       0       0       0       0       0       0       0       0       0       0       0       0       0       
      +0       0       0       0       0       0
   704 ;;      Temps:          0       0       0       0       0       0       0       0       0       0       0       0       
      +0       0       0       0       0       0       0       0       0       0       0       0       0       0       0       
      +0       0       0       0       0       0
   705 ;;      Totals:         8       0       0       0       0       0       0       0       0       0       0       0       
      +0       0       0       0       0       0       0       0       0       0       0       0       0       0       0       
      +0       0       0       0       0       0
   706 ;;Total ram usage:        8 bytes
   707 ;; Hardware stack levels used: 1
   708 ;; Hardware stack levels required when called: 7
   709 ;; This function calls:
   710 ;;		_vfpfcnvrt
   711 ;; This function is called by:
   712 ;;		_printf
   713 ;; This function uses a non-reentrant model
   714 ;;
   715                           
   716                           	psect	text2
   717   002FB6                     __ptext2:
   718                           	callstack 0
   719   002FB6                     _vfprintf:
   720                           	callstack 118
   721   002FB6                     
   722                           ;C:\Program Files\Microchip\xc8\v2.40\pic\sources\c99\common\doprnt.c: 1520: int vfprint
      +                          f(FILE *fp, const char *fmt, va_list ap);C:\Program Files\Microchip\xc8\v2.40\pic\source
      +                          s\c99\common\doprnt.c: 1521: {;C:\Program Files\Microchip\xc8\v2.40\pic\sources\c99\comm
      +                          on\doprnt.c: 1523:     char *cfmt;;C:\Program Files\Microchip\xc8\v2.40\pic\sources\c99\
      +                          common\doprnt.c: 1525:     cfmt = (char *)fmt;
   723   002FB6  C555  F559         	movff	vfprintf@fmt,vfprintf@cfmt
   724   002FBA  C556  F55A         	movff	vfprintf@fmt+1,vfprintf@cfmt+1
   725                           
   726                           ;C:\Program Files\Microchip\xc8\v2.40\pic\sources\c99\common\doprnt.c: 1529:     while (
      +                          *cfmt) {
   727   002FBE  EFEF  F017         	goto	l1928
   728   002FC2                     l1926:
   729                           
   730                           ;C:\Program Files\Microchip\xc8\v2.40\pic\sources\c99\common\doprnt.c: 1533:    vfpfcnvr
      +                          t(fp, &cfmt, ap);
   731   002FC2  C553  F541         	movff	vfprintf@fp,vfpfcnvrt@fp
   732   002FC6  C554  F542         	movff	vfprintf@fp+1,vfpfcnvrt@fp+1
   733   002FCA  0E59               	movlw	low vfprintf@cfmt
   734   002FCC  6E43               	movwf	vfpfcnvrt@fmt^(0+1280),c
   735   002FCE  0E05               	movlw	high vfprintf@cfmt
   736   002FD0  6E44               	movwf	(vfpfcnvrt@fmt+1)^(0+1280),c
   737   002FD2  C557  F545         	movff	vfprintf@ap,vfpfcnvrt@ap
   738   002FD6  C558  F546         	movff	vfprintf@ap+1,vfpfcnvrt@ap+1
   739   002FDA  ECB7  F015         	call	_vfpfcnvrt	;wreg free
   740   002FDE                     l1928:
   741                           
   742                           ;C:\Program Files\Microchip\xc8\v2.40\pic\sources\c99\common\doprnt.c: 1529:     while (
      +                          *cfmt) {
   743   002FDE  C559  F4F6         	movff	vfprintf@cfmt,tblptrl
   744   002FE2  C55A  F4F7         	movff	vfprintf@cfmt+1,tblptrh
   745   002FE6                     	if	0	;tblptru may be non-zero
   746   002FE6                     	endif
   747   002FE6                     	if	1	;Program memory is > 0xFFFF, there are 3 active tblptr bytes
   748   002FE6  0E00               	movlw	low (__mediumconst shr (0+16))
   749   002FE8  6EF8               	movwf	tblptru,c
   750   002FEA                     	endif
   751   002FEA  0008               	tblrd		*
   752   002FEC  50F5               	movf	tablat,w,c
   753   002FEE  0900               	iorlw	0
   754   002FF0  A4D8               	btfss	status,2,c
   755   002FF2  EFFD  F017         	goto	u871
   756   002FF6  EFFF  F017         	goto	u870
   757   002FFA                     u871:
   758   002FFA  EFE1  F017         	goto	l1926
   759   002FFE                     u870:
   760   002FFE                     
   761                           ;C:\Program Files\Microchip\xc8\v2.40\pic\sources\c99\common\doprnt.c: 1538:  return 0;
   762   002FFE  0E00               	movlw	0
   763   003000  6E54               	movwf	(?_vfprintf+1)^(0+1280),c
   764   003002  0E00               	movlw	0
   765   003004  6E53               	movwf	?_vfprintf^(0+1280),c
   766   003006  0012               	return		;funcret
   767   003008                     __end_of_vfprintf:
   768                           	callstack 0
   769                           
   770 ;; *************** function _vfpfcnvrt *****************
   771 ;; Defined at:
   772 ;;		line 1007 in file "C:\Program Files\Microchip\xc8\v2.40\pic\sources\c99\common\doprnt.c"
   773 ;; Parameters:    Size  Location     Type
   774 ;;  fp              2   64[COMRAM] PTR struct _IO_FILE
   775 ;;		 -> NULL(0), 
   776 ;;  fmt             2   66[COMRAM] PTR PTR unsigned char 
   777 ;;		 -> vfprintf@cfmt(2), 
   778 ;;  ap              2   68[COMRAM] PTR PTR void 
   779 ;;		 -> printf@ap(2), 
   780 ;; Auto vars:     Size  Location     Type
   781 ;;  convarg         8   72[COMRAM] struct .
   782 ;;  cp              2   80[COMRAM] PTR unsigned char 
   783 ;;		 -> STR_1(4), 
   784 ;;  i               2    0        int 
   785 ;;  done            2    0        int 
   786 ;;  c               1    0        unsigned char 
   787 ;; Return value:  Size  Location     Type
   788 ;;                  1    wreg      void 
   789 ;; Registers used:
   790 ;;		wreg, fsr1l, fsr1h, fsr2l, fsr2h, status,2, status,0, tblptrl, tblptrh, tblptru, cstack
   791 ;; Tracked objects:
   792 ;;		On entry : 0/0
   793 ;;		On exit  : 0/0
   794 ;;		Unchanged: 0/0
   795 ;; Data sizes:     COMRAM   BANK5   BANK6   BANK7   BANK8   BANK9  BANK10  BANK11  BANK12  BANK13  BANK14  BANK15  BANK1
      +6  BANK17  BANK18  BANK19  BANK20  BANK21  BANK22  BANK23  BANK24  BANK25  BANK26  BANK27  BANK28  BANK29  BANK30  BANK3
      +1  BANK32  BANK33  BANK34  BANK35  BANK36
   796 ;;      Params:         6       0       0       0       0       0       0       0       0       0       0       0       
      +0       0       0       0       0       0       0       0       0       0       0       0       0       0       0       
      +0       0       0       0       0       0
   797 ;;      Locals:        10       0       0       0       0       0       0       0       0       0       0       0       
      +0       0       0       0       0       0       0       0       0       0       0       0       0       0       0       
      +0       0       0       0       0       0
   798 ;;      Temps:          2       0       0       0       0       0       0       0       0       0       0       0       
      +0       0       0       0       0       0       0       0       0       0       0       0       0       0       0       
      +0       0       0       0       0       0
   799 ;;      Totals:        18       0       0       0       0       0       0       0       0       0       0       0       
      +0       0       0       0       0       0       0       0       0       0       0       0       0       0       0       
      +0       0       0       0       0       0
   800 ;;Total ram usage:       18 bytes
   801 ;; Hardware stack levels used: 1
   802 ;; Hardware stack levels required when called: 6
   803 ;; This function calls:
   804 ;;		_dtoa
   805 ;;		_fputc
   806 ;; This function is called by:
   807 ;;		_vfprintf
   808 ;; This function uses a non-reentrant model
   809 ;;
   810                           
   811                           	psect	text3
   812   002B6E                     __ptext3:
   813                           	callstack 0
   814   002B6E                     _vfpfcnvrt:
   815                           	callstack 118
   816   002B6E                     
   817                           ;C:\Program Files\Microchip\xc8\v2.40\pic\sources\c99\common\doprnt.c: 1007: vfpfcnvrt(F
      +                          ILE *fp, char *fmt[], va_list ap);C:\Program Files\Microchip\xc8\v2.40\pic\sources\c99\c
      +                          ommon\doprnt.c: 1008: {;C:\Program Files\Microchip\xc8\v2.40\pic\sources\c99\common\dopr
      +                          nt.c: 1009:     char c, *cp;;C:\Program Files\Microchip\xc8\v2.40\pic\sources\c99\common
      +                          \doprnt.c: 1010:     int done, i;;C:\Program Files\Microchip\xc8\v2.40\pic\sources\c99\c
      +                          ommon\doprnt.c: 1016:  } convarg;;C:\Program Files\Microchip\xc8\v2.40\pic\sources\c99\c
      +                          ommon\doprnt.c: 1019:     if ((*fmt)[0] == '%') {
   818   002B6E  C543  F4D9         	movff	vfpfcnvrt@fmt,fsr2l
   819   002B72  C544  F4DA         	movff	vfpfcnvrt@fmt+1,fsr2h
   820   002B76  C4DE F4F6          	movff	postinc2,tblptrl
   821   002B7A  C4DD F4F7          	movff	postdec2,tblptrh
   822   002B7E                     	if	0	;tblptru may be non-zero
   823   002B7E                     	endif
   824   002B7E                     	if	1	;Program memory is > 0xFFFF, there are 3 active tblptr bytes
   825   002B7E  0E00               	movlw	low (__mediumconst shr (0+16))
   826   002B80  6EF8               	movwf	tblptru,c
   827   002B82                     	endif
   828   002B82  0008               	tblrd		*
   829   002B84  50F5               	movf	tablat,w,c
   830   002B86  0A25               	xorlw	37
   831   002B88  A4D8               	btfss	status,2,c
   832   002B8A  EFC9  F015         	goto	u841
   833   002B8E  EFCB  F015         	goto	u840
   834   002B92                     u841:
   835   002B92  EF4F  F016         	goto	l1868
   836   002B96                     u840:
   837   002B96                     
   838                           ;C:\Program Files\Microchip\xc8\v2.40\pic\sources\c99\common\doprnt.c: 1020:         ++*
      +                          fmt;
   839   002B96  C543  F4D9         	movff	vfpfcnvrt@fmt,fsr2l
   840   002B9A  C544  F4DA         	movff	vfpfcnvrt@fmt+1,fsr2h
   841   002B9E  2ADE               	incf	postinc2,f,c
   842   002BA0  0E00               	movlw	0
   843   002BA2  22DD               	addwfc	postdec2,f,c
   844   002BA4                     
   845                           ;C:\Program Files\Microchip\xc8\v2.40\pic\sources\c99\common\doprnt.c: 1022:         fla
      +                          gs = width = 0;
   846   002BA4  0E00               	movlw	0
   847   002BA6  0105               	movlb	5	; () banked
   848   002BA8  6F61               	movwf	(_width+1)& (0+255),b
   849   002BAA  0E00               	movlw	0
   850   002BAC  6F60               	movwf	_width& (0+255),b
   851   002BAE  C560  F566         	movff	_width,_flags
   852   002BB2                     
   853                           ; BSR set to: 5
   854                           ;C:\Program Files\Microchip\xc8\v2.40\pic\sources\c99\common\doprnt.c: 1023:         pre
      +                          c = -1;
   855   002BB2  6962               	setf	_prec& (0+255),b
   856   002BB4  6963               	setf	(_prec+1)& (0+255),b
   857   002BB6                     
   858                           ; BSR set to: 5
   859                           ;C:\Program Files\Microchip\xc8\v2.40\pic\sources\c99\common\doprnt.c: 1117:   cp = *fmt
      +                          ;
   860   002BB6  C543  F4D9         	movff	vfpfcnvrt@fmt,fsr2l
   861   002BBA  C544  F4DA         	movff	vfpfcnvrt@fmt+1,fsr2h
   862   002BBE  C4DE F551          	movff	postinc2,vfpfcnvrt@cp
   863   002BC2  C4DD F552          	movff	postdec2,vfpfcnvrt@cp+1
   864   002BC6                     
   865                           ; BSR set to: 5
   866                           ;C:\Program Files\Microchip\xc8\v2.40\pic\sources\c99\common\doprnt.c: 1187:   if (*cp =
      +                          = 'd' || *cp == 'i') {
   867   002BC6  C551  F4F6         	movff	vfpfcnvrt@cp,tblptrl
   868   002BCA  C552  F4F7         	movff	vfpfcnvrt@cp+1,tblptrh
   869   002BCE                     	if	0	;tblptru may be non-zero
   870   002BCE                     	endif
   871   002BCE                     	if	1	;Program memory is > 0xFFFF, there are 3 active tblptr bytes
   872   002BCE  0E00               	movlw	low (__mediumconst shr (0+16))
   873   002BD0  6EF8               	movwf	tblptru,c
   874   002BD2                     	endif
   875   002BD2  0008               	tblrd		*
   876   002BD4  50F5               	movf	tablat,w,c
   877   002BD6  0A64               	xorlw	100
   878   002BD8  B4D8               	btfsc	status,2,c
   879   002BDA  EFF1  F015         	goto	u851
   880   002BDE  EFF3  F015         	goto	u850
   881   002BE2                     u851:
   882   002BE2  EF03  F016         	goto	l1858
   883   002BE6                     u850:
   884   002BE6                     
   885                           ; BSR set to: 5
   886   002BE6  C551  F4F6         	movff	vfpfcnvrt@cp,tblptrl
   887   002BEA  C552  F4F7         	movff	vfpfcnvrt@cp+1,tblptrh
   888   002BEE                     	if	0	;tblptru may be non-zero
   889   002BEE                     	endif
   890   002BEE                     	if	1	;Program memory is > 0xFFFF, there are 3 active tblptr bytes
   891   002BEE  0E00               	movlw	low (__mediumconst shr (0+16))
   892   002BF0  6EF8               	movwf	tblptru,c
   893   002BF2                     	endif
   894   002BF2  0008               	tblrd		*
   895   002BF4  50F5               	movf	tablat,w,c
   896   002BF6  0A69               	xorlw	105
   897   002BF8  A4D8               	btfss	status,2,c
   898   002BFA  EF01  F016         	goto	u861
   899   002BFE  EF03  F016         	goto	u860
   900   002C02                     u861:
   901   002C02  EF46  F016         	goto	l1864
   902   002C06                     u860:
   903   002C06                     l1858:
   904                           
   905                           ; BSR set to: 5
   906                           ;C:\Program Files\Microchip\xc8\v2.40\pic\sources\c99\common\doprnt.c: 1230:    convarg.
      +                          ll = (long long)(int)(*(int *)__va_arg(*(int **)ap, (int)0));
   907   002C06  C545  F4D9         	movff	vfpfcnvrt@ap,fsr2l
   908   002C0A  C546  F4DA         	movff	vfpfcnvrt@ap+1,fsr2h
   909   002C0E  C4DF F547          	movff	indf2,??_vfpfcnvrt
   910   002C12  0E02               	movlw	2
   911   002C14  26DE               	addwf	postinc2,f,c
   912   002C16  C4DF F548          	movff	indf2,??_vfpfcnvrt+1
   913   002C1A  0E00               	movlw	0
   914   002C1C  22DD               	addwfc	postdec2,f,c
   915   002C1E  C547  F4D9         	movff	??_vfpfcnvrt,fsr2l
   916   002C22  C548  F4DA         	movff	??_vfpfcnvrt+1,fsr2h
   917   002C26  C4DE F549          	movff	postinc2,vfpfcnvrt@convarg
   918   002C2A  C4DD F54A          	movff	postdec2,vfpfcnvrt@convarg+1
   919   002C2E  0E00               	movlw	0
   920   002C30  BE4A               	btfsc	(vfpfcnvrt@convarg+1)^(0+1280),7,c
   921   002C32  0EFF               	movlw	-1
   922   002C34  6E4B               	movwf	(vfpfcnvrt@convarg+2)^(0+1280),c
   923   002C36  6E4C               	movwf	(vfpfcnvrt@convarg+3)^(0+1280),c
   924   002C38  6E4D               	movwf	(vfpfcnvrt@convarg+4)^(0+1280),c
   925   002C3A  6E4E               	movwf	(vfpfcnvrt@convarg+5)^(0+1280),c
   926   002C3C  6E4F               	movwf	(vfpfcnvrt@convarg+6)^(0+1280),c
   927   002C3E  6E50               	movwf	(vfpfcnvrt@convarg+7)^(0+1280),c
   928                           
   929                           ;C:\Program Files\Microchip\xc8\v2.40\pic\sources\c99\common\doprnt.c: 1232:    *fmt = c
      +                          p+1;
   930   002C40  0E01               	movlw	1
   931   002C42  2451               	addwf	vfpfcnvrt@cp^(0+1280),w,c
   932   002C44  6E47               	movwf	??_vfpfcnvrt^(0+1280),c
   933   002C46  0E00               	movlw	0
   934   002C48  2052               	addwfc	(vfpfcnvrt@cp+1)^(0+1280),w,c
   935   002C4A  6E48               	movwf	(??_vfpfcnvrt+1)^(0+1280),c
   936   002C4C  C543  F4D9         	movff	vfpfcnvrt@fmt,fsr2l
   937   002C50  C544  F4DA         	movff	vfpfcnvrt@fmt+1,fsr2h
   938   002C54  C547  F4DE         	movff	??_vfpfcnvrt,postinc2
   939   002C58  C548  F4DD         	movff	??_vfpfcnvrt+1,postdec2
   940   002C5C                     
   941                           ; BSR set to: 5
   942                           ;C:\Program Files\Microchip\xc8\v2.40\pic\sources\c99\common\doprnt.c: 1233:    return (
      +                          void) dtoa(fp, convarg.ll);;	Return value of _vfpfcnvrt is never used
   943   002C5C  C541  F51E         	movff	vfpfcnvrt@fp,dtoa@fp
   944   002C60  C542  F51F         	movff	vfpfcnvrt@fp+1,dtoa@fp+1
   945   002C64  C549  F520         	movff	vfpfcnvrt@convarg,dtoa@d
   946   002C68  C54A  F521         	movff	vfpfcnvrt@convarg+1,dtoa@d+1
   947   002C6C  C54B  F522         	movff	vfpfcnvrt@convarg+2,dtoa@d+2
   948   002C70  C54C  F523         	movff	vfpfcnvrt@convarg+3,dtoa@d+3
   949   002C74  C54D  F524         	movff	vfpfcnvrt@convarg+4,dtoa@d+4
   950   002C78  C54E  F525         	movff	vfpfcnvrt@convarg+5,dtoa@d+5
   951   002C7C  C54F  F526         	movff	vfpfcnvrt@convarg+6,dtoa@d+6
   952   002C80  C550  F527         	movff	vfpfcnvrt@convarg+7,dtoa@d+7
   953   002C84  EC03  F013         	call	_dtoa	;wreg free
   954   002C88  EF65  F016         	goto	l1187
   955   002C8C                     l1864:
   956                           
   957                           ;C:\Program Files\Microchip\xc8\v2.40\pic\sources\c99\common\doprnt.c: 1509:         ++*
      +                          fmt;
   958   002C8C  C543  F4D9         	movff	vfpfcnvrt@fmt,fsr2l
   959   002C90  C544  F4DA         	movff	vfpfcnvrt@fmt+1,fsr2h
   960   002C94  2ADE               	incf	postinc2,f,c
   961   002C96  0E00               	movlw	0
   962   002C98  22DD               	addwfc	postdec2,f,c
   963   002C9A  EF65  F016         	goto	l1187
   964   002C9E                     l1868:
   965                           
   966                           ;C:\Program Files\Microchip\xc8\v2.40\pic\sources\c99\common\doprnt.c: 1514:     fputc((
      +                          int)(*fmt)[0], fp);
   967   002C9E  C543  F4D9         	movff	vfpfcnvrt@fmt,fsr2l
   968   002CA2  C544  F4DA         	movff	vfpfcnvrt@fmt+1,fsr2h
   969   002CA6  C4DE F4F6          	movff	postinc2,tblptrl
   970   002CAA  C4DD F4F7          	movff	postdec2,tblptrh
   971   002CAE                     	if	0	;tblptru may be non-zero
   972   002CAE                     	endif
   973   002CAE                     	if	1	;Program memory is > 0xFFFF, there are 3 active tblptr bytes
   974   002CAE  0E00               	movlw	low (__mediumconst shr (0+16))
   975   002CB0  6EF8               	movwf	tblptru,c
   976   002CB2                     	endif
   977   002CB2  0008               	tblrd		*
   978   002CB4  50F5               	movf	tablat,w,c
   979   002CB6  6E03               	movwf	fputc@c^(0+1280),c
   980   002CB8  6A04               	clrf	(fputc@c+1)^(0+1280),c
   981   002CBA  C541  F505         	movff	vfpfcnvrt@fp,fputc@fp
   982   002CBE  C542  F506         	movff	vfpfcnvrt@fp+1,fputc@fp+1
   983   002CC2  ECBB  F016         	call	_fputc	;wreg free
   984   002CC6  EF46  F016         	goto	l1864
   985   002CCA                     l1187:
   986   002CCA  0012               	return		;funcret
   987   002CCC                     __end_of_vfpfcnvrt:
   988                           	callstack 0
   989                           
   990 ;; *************** function _dtoa *****************
   991 ;; Defined at:
   992 ;;		line 443 in file "C:\Program Files\Microchip\xc8\v2.40\pic\sources\c99\common\doprnt.c"
   993 ;; Parameters:    Size  Location     Type
   994 ;;  fp              2   29[COMRAM] PTR struct _IO_FILE
   995 ;;		 -> NULL(0), 
   996 ;;  d               8   31[COMRAM] long long 
   997 ;; Auto vars:     Size  Location     Type
   998 ;;  n               8   53[COMRAM] long long 
   999 ;;  i               2   61[COMRAM] int 
  1000 ;;  w               2   51[COMRAM] int 
  1001 ;;  p               2   49[COMRAM] int 
  1002 ;;  s               1   63[COMRAM] unsigned char 
  1003 ;; Return value:  Size  Location     Type
  1004 ;;                  1    wreg      void 
  1005 ;; Registers used:
  1006 ;;		wreg, fsr1l, fsr1h, fsr2l, fsr2h, status,2, status,0, cstack
  1007 ;; Tracked objects:
  1008 ;;		On entry : 0/0
  1009 ;;		On exit  : 0/0
  1010 ;;		Unchanged: 0/0
  1011 ;; Data sizes:     COMRAM   BANK5   BANK6   BANK7   BANK8   BANK9  BANK10  BANK11  BANK12  BANK13  BANK14  BANK15  BANK1
      +6  BANK17  BANK18  BANK19  BANK20  BANK21  BANK22  BANK23  BANK24  BANK25  BANK26  BANK27  BANK28  BANK29  BANK30  BANK3
      +1  BANK32  BANK33  BANK34  BANK35  BANK36
  1012 ;;      Params:        10       0       0       0       0       0       0       0       0       0       0       0       
      +0       0       0       0       0       0       0       0       0       0       0       0       0       0       0       
      +0       0       0       0       0       0
  1013 ;;      Locals:        17       0       0       0       0       0       0       0       0       0       0       0       
      +0       0       0       0       0       0       0       0       0       0       0       0       0       0       0       
      +0       0       0       0       0       0
  1014 ;;      Temps:          8       0       0       0       0       0       0       0       0       0       0       0       
      +0       0       0       0       0       0       0       0       0       0       0       0       0       0       0       
      +0       0       0       0       0       0
  1015 ;;      Totals:        35       0       0       0       0       0       0       0       0       0       0       0       
      +0       0       0       0       0       0       0       0       0       0       0       0       0       0       0       
      +0       0       0       0       0       0
  1016 ;;Total ram usage:       35 bytes
  1017 ;; Hardware stack levels used: 1
  1018 ;; Hardware stack levels required when called: 5
  1019 ;; This function calls:
  1020 ;;		___aodiv
  1021 ;;		___aomod
  1022 ;;		_abs
  1023 ;;		_pad
  1024 ;; This function is called by:
  1025 ;;		_vfpfcnvrt
  1026 ;; This function uses a non-reentrant model
  1027 ;;
  1028                           
  1029                           	psect	text4
  1030   002606                     __ptext4:
  1031                           	callstack 0
  1032   002606                     _dtoa:
  1033                           	callstack 118
  1034   002606                     
  1035                           ;C:\Program Files\Microchip\xc8\v2.40\pic\sources\c99\common\doprnt.c: 443: static void 
      +                          dtoa(FILE *fp, long long d);C:\Program Files\Microchip\xc8\v2.40\pic\sources\c99\common\
      +                          doprnt.c: 444: {;C:\Program Files\Microchip\xc8\v2.40\pic\sources\c99\common\doprnt.c: 4
      +                          45:  char s;;C:\Program Files\Microchip\xc8\v2.40\pic\sources\c99\common\doprnt.c: 446: 
      +                              int i, p, w;;C:\Program Files\Microchip\xc8\v2.40\pic\sources\c99\common\doprnt.c: 4
      +                          47:     long long n;;C:\Program Files\Microchip\xc8\v2.40\pic\sources\c99\common\doprnt.
      +                          c: 450:     n = d;
  1036   002606  C520  F536         	movff	dtoa@d,dtoa@n
  1037   00260A  C521  F537         	movff	dtoa@d+1,dtoa@n+1
  1038   00260E  C522  F538         	movff	dtoa@d+2,dtoa@n+2
  1039   002612  C523  F539         	movff	dtoa@d+3,dtoa@n+3
  1040   002616  C524  F53A         	movff	dtoa@d+4,dtoa@n+4
  1041   00261A  C525  F53B         	movff	dtoa@d+5,dtoa@n+5
  1042   00261E  C526  F53C         	movff	dtoa@d+6,dtoa@n+6
  1043   002622  C527  F53D         	movff	dtoa@d+7,dtoa@n+7
  1044   002626                     
  1045                           ;C:\Program Files\Microchip\xc8\v2.40\pic\sources\c99\common\doprnt.c: 451:     s = n < 
      +                          0 ? 1 : 0;
  1046   002626  BE3D               	btfsc	(dtoa@n+7)^(0+1280),7,c
  1047   002628  EF18  F013         	goto	u741
  1048   00262C  EF1B  F013         	goto	u740
  1049   002630                     u741:
  1050   002630  0E01               	movlw	1
  1051   002632  EF1C  F013         	goto	u750
  1052   002636                     u740:
  1053   002636  0E00               	movlw	0
  1054   002638                     u750:
  1055   002638  6E40               	movwf	dtoa@s^(0+1280),c
  1056   00263A                     
  1057                           ;C:\Program Files\Microchip\xc8\v2.40\pic\sources\c99\common\doprnt.c: 452:     if (s) {
  1058   00263A  5040               	movf	dtoa@s^(0+1280),w,c
  1059   00263C  B4D8               	btfsc	status,2,c
  1060   00263E  EF23  F013         	goto	u761
  1061   002642  EF25  F013         	goto	u760
  1062   002646                     u761:
  1063   002646  EF35  F013         	goto	l1794
  1064   00264A                     u760:
  1065   00264A                     
  1066                           ;C:\Program Files\Microchip\xc8\v2.40\pic\sources\c99\common\doprnt.c: 453:         n = 
      +                          -n;
  1067   00264A  1E3D               	comf	(dtoa@n+7)^(0+1280),f,c
  1068   00264C  1E3C               	comf	(dtoa@n+6)^(0+1280),f,c
  1069   00264E  1E3B               	comf	(dtoa@n+5)^(0+1280),f,c
  1070   002650  1E3A               	comf	(dtoa@n+4)^(0+1280),f,c
  1071   002652  1E39               	comf	(dtoa@n+3)^(0+1280),f,c
  1072   002654  1E38               	comf	(dtoa@n+2)^(0+1280),f,c
  1073   002656  1E37               	comf	(dtoa@n+1)^(0+1280),f,c
  1074   002658  6C36               	negf	dtoa@n^(0+1280),c
  1075   00265A  0E00               	movlw	0
  1076   00265C  2237               	addwfc	(dtoa@n+1)^(0+1280),f,c
  1077   00265E  2238               	addwfc	(dtoa@n+2)^(0+1280),f,c
  1078   002660  2239               	addwfc	(dtoa@n+3)^(0+1280),f,c
  1079   002662  223A               	addwfc	(dtoa@n+4)^(0+1280),f,c
  1080   002664  223B               	addwfc	(dtoa@n+5)^(0+1280),f,c
  1081   002666  223C               	addwfc	(dtoa@n+6)^(0+1280),f,c
  1082   002668  223D               	addwfc	(dtoa@n+7)^(0+1280),f,c
  1083   00266A                     l1794:
  1084                           
  1085                           ;C:\Program Files\Microchip\xc8\v2.40\pic\sources\c99\common\doprnt.c: 462:     p = (0 <
      +                           prec) ? prec : 1;
  1086   00266A  0105               	movlb	5	; () banked
  1087   00266C  BF63               	btfsc	(_prec+1)& (0+255),7,b
  1088   00266E  EF43  F013         	goto	u770
  1089   002672  5163               	movf	(_prec+1)& (0+255),w,b
  1090   002674  E106               	bnz	u771
  1091   002676  0562               	decf	_prec& (0+255),w,b
  1092   002678  B0D8               	btfsc	status,0,c
  1093   00267A  EF41  F013         	goto	u771
  1094   00267E  EF43  F013         	goto	u770
  1095   002682                     u771:
  1096   002682  EF49  F013         	goto	l1166
  1097   002686                     u770:
  1098   002686                     
  1099                           ; BSR set to: 5
  1100   002686  0E00               	movlw	0
  1101   002688  6E33               	movwf	(dtoa@p+1)^(0+1280),c
  1102   00268A  0E01               	movlw	1
  1103   00268C  6E32               	movwf	dtoa@p^(0+1280),c
  1104   00268E  EF4D  F013         	goto	l1168
  1105   002692                     l1166:
  1106                           
  1107                           ; BSR set to: 5
  1108   002692  C562  F532         	movff	_prec,dtoa@p
  1109   002696  C563  F533         	movff	_prec+1,dtoa@p+1
  1110   00269A                     l1168:
  1111                           
  1112                           ; BSR set to: 5
  1113                           ;C:\Program Files\Microchip\xc8\v2.40\pic\sources\c99\common\doprnt.c: 463:     w = widt
      +                          h;
  1114   00269A  C560  F534         	movff	_width,dtoa@w
  1115   00269E  C561  F535         	movff	_width+1,dtoa@w+1
  1116   0026A2                     
  1117                           ; BSR set to: 5
  1118                           ;C:\Program Files\Microchip\xc8\v2.40\pic\sources\c99\common\doprnt.c: 464:     if (s
  1119   0026A2  5040               	movf	dtoa@s^(0+1280),w,c
  1120   0026A4  B4D8               	btfsc	status,2,c
  1121   0026A6  EF57  F013         	goto	u781
  1122   0026AA  EF59  F013         	goto	u780
  1123   0026AE                     u781:
  1124   0026AE  EF70  F013         	goto	l1169
  1125   0026B2                     u780:
  1126   0026B2                     
  1127                           ; BSR set to: 5
  1128                           ;C:\Program Files\Microchip\xc8\v2.40\pic\sources\c99\common\doprnt.c: 468:     ) {;C:\P
      +                          rogram Files\Microchip\xc8\v2.40\pic\sources\c99\common\doprnt.c: 469:         --w;
  1129   0026B2  0634               	decf	dtoa@w^(0+1280),f,c
  1130   0026B4  A0D8               	btfss	status,0,c
  1131   0026B6  0635               	decf	(dtoa@w+1)^(0+1280),f,c
  1132   0026B8                     
  1133                           ; BSR set to: 5
  1134                           ;C:\Program Files\Microchip\xc8\v2.40\pic\sources\c99\common\doprnt.c: 470:   s = s ? '-
      +                          ' : '+';
  1135   0026B8  5040               	movf	dtoa@s^(0+1280),w,c
  1136   0026BA  A4D8               	btfss	status,2,c
  1137   0026BC  EF62  F013         	goto	u791
  1138   0026C0  EF64  F013         	goto	u790
  1139   0026C4                     u791:
  1140   0026C4  EF6A  F013         	goto	l1806
  1141   0026C8                     u790:
  1142   0026C8                     
  1143                           ; BSR set to: 5
  1144   0026C8  0E00               	movlw	0
  1145   0026CA  6E31               	movwf	(_dtoa$1295+1)^(0+1280),c
  1146   0026CC  0E2B               	movlw	43
  1147   0026CE  6E30               	movwf	_dtoa$1295^(0+1280),c
  1148   0026D0  EF6E  F013         	goto	l1808
  1149   0026D4                     l1806:
  1150                           
  1151                           ; BSR set to: 5
  1152   0026D4  0E00               	movlw	0
  1153   0026D6  6E31               	movwf	(_dtoa$1295+1)^(0+1280),c
  1154   0026D8  0E2D               	movlw	45
  1155   0026DA  6E30               	movwf	_dtoa$1295^(0+1280),c
  1156   0026DC                     l1808:
  1157                           
  1158                           ; BSR set to: 5
  1159   0026DC  C530  F540         	movff	_dtoa$1295,dtoa@s
  1160   0026E0                     l1169:
  1161                           
  1162                           ; BSR set to: 5
  1163                           ;C:\Program Files\Microchip\xc8\v2.40\pic\sources\c99\common\doprnt.c: 480:     i = size
      +                          of(dbuf) - 1;
  1164   0026E0  0E00               	movlw	0
  1165   0026E2  6E3F               	movwf	(dtoa@i+1)^(0+1280),c
  1166   0026E4  0E1F               	movlw	31
  1167   0026E6  6E3E               	movwf	dtoa@i^(0+1280),c
  1168   0026E8                     
  1169                           ; BSR set to: 5
  1170                           ;C:\Program Files\Microchip\xc8\v2.40\pic\sources\c99\common\doprnt.c: 481:     dbuf[i] 
      +                          = '\0';
  1171   0026E8  0E00               	movlw	0
  1172   0026EA  6F86               	movwf	(_dbuf+31)& (0+255),b
  1173                           
  1174                           ;C:\Program Files\Microchip\xc8\v2.40\pic\sources\c99\common\doprnt.c: 482:     while (!
      +                          (i < 1) && (n || (0 < p)
  1175   0026EC  EFF4  F013         	goto	l1822
  1176   0026F0                     l1812:
  1177                           
  1178                           ;C:\Program Files\Microchip\xc8\v2.40\pic\sources\c99\common\doprnt.c: 486:     )) {;C:\
      +                          Program Files\Microchip\xc8\v2.40\pic\sources\c99\common\doprnt.c: 487:         --i;
  1179   0026F0  063E               	decf	dtoa@i^(0+1280),f,c
  1180   0026F2  A0D8               	btfss	status,0,c
  1181   0026F4  063F               	decf	(dtoa@i+1)^(0+1280),f,c
  1182   0026F6                     
  1183                           ;C:\Program Files\Microchip\xc8\v2.40\pic\sources\c99\common\doprnt.c: 488:         dbuf
      +                          [i] = (char)((int)'0' + abs(n % 10));
  1184   0026F6  0E67               	movlw	low _dbuf
  1185   0026F8  243E               	addwf	dtoa@i^(0+1280),w,c
  1186   0026FA  6ED9               	movwf	fsr2l,c
  1187   0026FC  0E05               	movlw	high _dbuf
  1188   0026FE  203F               	addwfc	(dtoa@i+1)^(0+1280),w,c
  1189   002700  6EDA               	movwf	fsr2h,c
  1190   002702  C536  F501         	movff	dtoa@n,___aomod@dividend
  1191   002706  C537  F502         	movff	dtoa@n+1,___aomod@dividend+1
  1192   00270A  C538  F503         	movff	dtoa@n+2,___aomod@dividend+2
  1193   00270E  C539  F504         	movff	dtoa@n+3,___aomod@dividend+3
  1194   002712  C53A  F505         	movff	dtoa@n+4,___aomod@dividend+4
  1195   002716  C53B  F506         	movff	dtoa@n+5,___aomod@dividend+5
  1196   00271A  C53C  F507         	movff	dtoa@n+6,___aomod@dividend+6
  1197   00271E  C53D  F508         	movff	dtoa@n+7,___aomod@dividend+7
  1198   002722  0E0A               	movlw	10
  1199   002724  6E09               	movwf	___aomod@divisor^(0+1280),c
  1200   002726  0E00               	movlw	0
  1201   002728  6E0A               	movwf	(___aomod@divisor+1)^(0+1280),c
  1202   00272A  0E00               	movlw	0
  1203   00272C  6E0B               	movwf	(___aomod@divisor+2)^(0+1280),c
  1204   00272E  0E00               	movlw	0
  1205   002730  6E0C               	movwf	(___aomod@divisor+3)^(0+1280),c
  1206   002732  0E00               	movlw	0
  1207   002734  6E0D               	movwf	(___aomod@divisor+4)^(0+1280),c
  1208   002736  0E00               	movlw	0
  1209   002738  6E0E               	movwf	(___aomod@divisor+5)^(0+1280),c
  1210   00273A  0E00               	movlw	0
  1211   00273C  6E0F               	movwf	(___aomod@divisor+6)^(0+1280),c
  1212   00273E  0E00               	movlw	0
  1213   002740  6E10               	movwf	(___aomod@divisor+7)^(0+1280),c
  1214   002742  EC05  F015         	call	___aomod	;wreg free
  1215   002746  C501  F528         	movff	?___aomod,??_dtoa
  1216   00274A  C502  F529         	movff	?___aomod+1,??_dtoa+1
  1217   00274E  C503  F52A         	movff	?___aomod+2,??_dtoa+2
  1218   002752  C504  F52B         	movff	?___aomod+3,??_dtoa+3
  1219   002756  C505  F52C         	movff	?___aomod+4,??_dtoa+4
  1220   00275A  C506  F52D         	movff	?___aomod+5,??_dtoa+5
  1221   00275E  C507  F52E         	movff	?___aomod+6,??_dtoa+6
  1222   002762  C508  F52F         	movff	?___aomod+7,??_dtoa+7
  1223   002766  C528  F513         	movff	??_dtoa,abs@a
  1224   00276A  C529  F514         	movff	??_dtoa+1,abs@a+1
  1225   00276E  EC26  F018         	call	_abs	;wreg free
  1226   002772  5013               	movf	?_abs^(0+1280),w,c
  1227   002774  0F30               	addlw	48
  1228   002776  6EDF               	movwf	indf2,c
  1229   002778                     
  1230                           ;C:\Program Files\Microchip\xc8\v2.40\pic\sources\c99\common\doprnt.c: 489:         --p;
  1231   002778  0632               	decf	dtoa@p^(0+1280),f,c
  1232   00277A  A0D8               	btfss	status,0,c
  1233   00277C  0633               	decf	(dtoa@p+1)^(0+1280),f,c
  1234   00277E                     
  1235                           ;C:\Program Files\Microchip\xc8\v2.40\pic\sources\c99\common\doprnt.c: 490:         --w;
  1236   00277E  0634               	decf	dtoa@w^(0+1280),f,c
  1237   002780  A0D8               	btfss	status,0,c
  1238   002782  0635               	decf	(dtoa@w+1)^(0+1280),f,c
  1239   002784                     
  1240                           ;C:\Program Files\Microchip\xc8\v2.40\pic\sources\c99\common\doprnt.c: 491:         n = 
      +                          n / 10;
  1241   002784  C536  F501         	movff	dtoa@n,___aodiv@dividend
  1242   002788  C537  F502         	movff	dtoa@n+1,___aodiv@dividend+1
  1243   00278C  C538  F503         	movff	dtoa@n+2,___aodiv@dividend+2
  1244   002790  C539  F504         	movff	dtoa@n+3,___aodiv@dividend+3
  1245   002794  C53A  F505         	movff	dtoa@n+4,___aodiv@dividend+4
  1246   002798  C53B  F506         	movff	dtoa@n+5,___aodiv@dividend+5
  1247   00279C  C53C  F507         	movff	dtoa@n+6,___aodiv@dividend+6
  1248   0027A0  C53D  F508         	movff	dtoa@n+7,___aodiv@dividend+7
  1249   0027A4  0E0A               	movlw	10
  1250   0027A6  6E09               	movwf	___aodiv@divisor^(0+1280),c
  1251   0027A8  0E00               	movlw	0
  1252   0027AA  6E0A               	movwf	(___aodiv@divisor+1)^(0+1280),c
  1253   0027AC  0E00               	movlw	0
  1254   0027AE  6E0B               	movwf	(___aodiv@divisor+2)^(0+1280),c
  1255   0027B0  0E00               	movlw	0
  1256   0027B2  6E0C               	movwf	(___aodiv@divisor+3)^(0+1280),c
  1257   0027B4  0E00               	movlw	0
  1258   0027B6  6E0D               	movwf	(___aodiv@divisor+4)^(0+1280),c
  1259   0027B8  0E00               	movlw	0
  1260   0027BA  6E0E               	movwf	(___aodiv@divisor+5)^(0+1280),c
  1261   0027BC  0E00               	movlw	0
  1262   0027BE  6E0F               	movwf	(___aodiv@divisor+6)^(0+1280),c
  1263   0027C0  0E00               	movlw	0
  1264   0027C2  6E10               	movwf	(___aodiv@divisor+7)^(0+1280),c
  1265   0027C4  EC41  F014         	call	___aodiv	;wreg free
  1266   0027C8  C501  F536         	movff	?___aodiv,dtoa@n
  1267   0027CC  C502  F537         	movff	?___aodiv+1,dtoa@n+1
  1268   0027D0  C503  F538         	movff	?___aodiv+2,dtoa@n+2
  1269   0027D4  C504  F539         	movff	?___aodiv+3,dtoa@n+3
  1270   0027D8  C505  F53A         	movff	?___aodiv+4,dtoa@n+4
  1271   0027DC  C506  F53B         	movff	?___aodiv+5,dtoa@n+5
  1272   0027E0  C507  F53C         	movff	?___aodiv+6,dtoa@n+6
  1273   0027E4  C508  F53D         	movff	?___aodiv+7,dtoa@n+7
  1274   0027E8                     l1822:
  1275                           
  1276                           ;C:\Program Files\Microchip\xc8\v2.40\pic\sources\c99\common\doprnt.c: 482:     while (!
      +                          (i < 1) && (n || (0 < p)
  1277   0027E8  BE3F               	btfsc	(dtoa@i+1)^(0+1280),7,c
  1278   0027EA  EFFF  F013         	goto	u801
  1279   0027EE  503F               	movf	(dtoa@i+1)^(0+1280),w,c
  1280   0027F0  E108               	bnz	u800
  1281   0027F2  043E               	decf	dtoa@i^(0+1280),w,c
  1282   0027F4  A0D8               	btfss	status,0,c
  1283   0027F6  EFFF  F013         	goto	u801
  1284   0027FA  EF01  F014         	goto	u800
  1285   0027FE                     u801:
  1286   0027FE  EF1D  F014         	goto	l1828
  1287   002802                     u800:
  1288   002802  5036               	movf	dtoa@n^(0+1280),w,c
  1289   002804  1037               	iorwf	(dtoa@n+1)^(0+1280),w,c
  1290   002806  1038               	iorwf	(dtoa@n+2)^(0+1280),w,c
  1291   002808  1039               	iorwf	(dtoa@n+3)^(0+1280),w,c
  1292   00280A  103A               	iorwf	(dtoa@n+4)^(0+1280),w,c
  1293   00280C  103B               	iorwf	(dtoa@n+5)^(0+1280),w,c
  1294   00280E  103C               	iorwf	(dtoa@n+6)^(0+1280),w,c
  1295   002810  103D               	iorwf	(dtoa@n+7)^(0+1280),w,c
  1296   002812  A4D8               	btfss	status,2,c
  1297   002814  EF0E  F014         	goto	u811
  1298   002818  EF10  F014         	goto	u810
  1299   00281C                     u811:
  1300   00281C  EF78  F013         	goto	l1812
  1301   002820                     u810:
  1302   002820  BE33               	btfsc	(dtoa@p+1)^(0+1280),7,c
  1303   002822  EF1D  F014         	goto	u820
  1304   002826  5033               	movf	(dtoa@p+1)^(0+1280),w,c
  1305   002828  E106               	bnz	u821
  1306   00282A  0432               	decf	dtoa@p^(0+1280),w,c
  1307   00282C  B0D8               	btfsc	status,0,c
  1308   00282E  EF1B  F014         	goto	u821
  1309   002832  EF1D  F014         	goto	u820
  1310   002836                     u821:
  1311   002836  EF78  F013         	goto	l1812
  1312   00283A                     u820:
  1313   00283A                     l1828:
  1314                           
  1315                           ;C:\Program Files\Microchip\xc8\v2.40\pic\sources\c99\common\doprnt.c: 495:     if (s !=
      +                           0) {
  1316   00283A  5040               	movf	dtoa@s^(0+1280),w,c
  1317   00283C  B4D8               	btfsc	status,2,c
  1318   00283E  EF23  F014         	goto	u831
  1319   002842  EF25  F014         	goto	u830
  1320   002846                     u831:
  1321   002846  EF30  F014         	goto	l1834
  1322   00284A                     u830:
  1323   00284A                     
  1324                           ;C:\Program Files\Microchip\xc8\v2.40\pic\sources\c99\common\doprnt.c: 496:         --i;
  1325   00284A  063E               	decf	dtoa@i^(0+1280),f,c
  1326   00284C  A0D8               	btfss	status,0,c
  1327   00284E  063F               	decf	(dtoa@i+1)^(0+1280),f,c
  1328   002850                     
  1329                           ;C:\Program Files\Microchip\xc8\v2.40\pic\sources\c99\common\doprnt.c: 497:         dbuf
      +                          [i] = s;
  1330   002850  0E67               	movlw	low _dbuf
  1331   002852  243E               	addwf	dtoa@i^(0+1280),w,c
  1332   002854  6ED9               	movwf	fsr2l,c
  1333   002856  0E05               	movlw	high _dbuf
  1334   002858  203F               	addwfc	(dtoa@i+1)^(0+1280),w,c
  1335   00285A  6EDA               	movwf	fsr2h,c
  1336   00285C  C540  F4DF         	movff	dtoa@s,indf2
  1337   002860                     l1834:
  1338                           
  1339                           ;C:\Program Files\Microchip\xc8\v2.40\pic\sources\c99\common\doprnt.c: 501:     return (
      +                          void) pad(fp, &dbuf[i], w);
  1340   002860  C51E  F513         	movff	dtoa@fp,pad@fp
  1341   002864  C51F  F514         	movff	dtoa@fp+1,pad@fp+1
  1342   002868  0E67               	movlw	low _dbuf
  1343   00286A  243E               	addwf	dtoa@i^(0+1280),w,c
  1344   00286C  6E15               	movwf	pad@buf^(0+1280),c
  1345   00286E  0E05               	movlw	high _dbuf
  1346   002870  203F               	addwfc	(dtoa@i+1)^(0+1280),w,c
  1347   002872  6E16               	movwf	(pad@buf+1)^(0+1280),c
  1348   002874  C534  F517         	movff	dtoa@w,pad@p
  1349   002878  C535  F518         	movff	dtoa@w+1,pad@p+1
  1350   00287C  EC06  F017         	call	_pad	;wreg free
  1351   002880  0012               	return		;funcret
  1352   002882                     __end_of_dtoa:
  1353                           	callstack 0
  1354                           
  1355 ;; *************** function _pad *****************
  1356 ;; Defined at:
  1357 ;;		line 133 in file "C:\Program Files\Microchip\xc8\v2.40\pic\sources\c99\common\doprnt.c"
  1358 ;; Parameters:    Size  Location     Type
  1359 ;;  fp              2   18[COMRAM] PTR struct _IO_FILE
  1360 ;;		 -> NULL(0), 
  1361 ;;  buf             2   20[COMRAM] PTR unsigned char 
  1362 ;;		 -> dbuf(32), 
  1363 ;;  p               2   22[COMRAM] int 
  1364 ;; Auto vars:     Size  Location     Type
  1365 ;;  w               2   27[COMRAM] int 
  1366 ;;  i               2   25[COMRAM] int 
  1367 ;; Return value:  Size  Location     Type
  1368 ;;                  1    wreg      void 
  1369 ;; Registers used:
  1370 ;;		wreg, fsr1l, fsr1h, fsr2l, fsr2h, status,2, status,0, cstack
  1371 ;; Tracked objects:
  1372 ;;		On entry : 0/0
  1373 ;;		On exit  : 0/0
  1374 ;;		Unchanged: 0/0
  1375 ;; Data sizes:     COMRAM   BANK5   BANK6   BANK7   BANK8   BANK9  BANK10  BANK11  BANK12  BANK13  BANK14  BANK15  BANK1
      +6  BANK17  BANK18  BANK19  BANK20  BANK21  BANK22  BANK23  BANK24  BANK25  BANK26  BANK27  BANK28  BANK29  BANK30  BANK3
      +1  BANK32  BANK33  BANK34  BANK35  BANK36
  1376 ;;      Params:         6       0       0       0       0       0       0       0       0       0       0       0       
      +0       0       0       0       0       0       0       0       0       0       0       0       0       0       0       
      +0       0       0       0       0       0
  1377 ;;      Locals:         4       0       0       0       0       0       0       0       0       0       0       0       
      +0       0       0       0       0       0       0       0       0       0       0       0       0       0       0       
      +0       0       0       0       0       0
  1378 ;;      Temps:          1       0       0       0       0       0       0       0       0       0       0       0       
      +0       0       0       0       0       0       0       0       0       0       0       0       0       0       0       
      +0       0       0       0       0       0
  1379 ;;      Totals:        11       0       0       0       0       0       0       0       0       0       0       0       
      +0       0       0       0       0       0       0       0       0       0       0       0       0       0       0       
      +0       0       0       0       0       0
  1380 ;;Total ram usage:       11 bytes
  1381 ;; Hardware stack levels used: 1
  1382 ;; Hardware stack levels required when called: 4
  1383 ;; This function calls:
  1384 ;;		_fputc
  1385 ;;		_fputs
  1386 ;; This function is called by:
  1387 ;;		_dtoa
  1388 ;; This function uses a non-reentrant model
  1389 ;;
  1390                           
  1391                           	psect	text5
  1392   002E0C                     __ptext5:
  1393                           	callstack 0
  1394   002E0C                     _pad:
  1395                           	callstack 118
  1396   002E0C                     
  1397                           ;C:\Program Files\Microchip\xc8\v2.40\pic\sources\c99\common\doprnt.c: 133: static void 
      +                          pad(FILE *fp, char *buf, int p);C:\Program Files\Microchip\xc8\v2.40\pic\sources\c99\com
      +                          mon\doprnt.c: 134: {;C:\Program Files\Microchip\xc8\v2.40\pic\sources\c99\common\doprnt.
      +                          c: 135:     int i, w;;C:\Program Files\Microchip\xc8\v2.40\pic\sources\c99\common\doprnt
      +                          .c: 145:     w = (p < 0) ? 0 : p;
  1398   002E0C  BE18               	btfsc	(pad@p+1)^(0+1280),7,c
  1399   002E0E  EF0B  F017         	goto	u711
  1400   002E12  EF0D  F017         	goto	u710
  1401   002E16                     u711:
  1402   002E16  EF13  F017         	goto	l1772
  1403   002E1A                     u710:
  1404   002E1A  C517  F51C         	movff	pad@p,pad@w
  1405   002E1E  C518  F51D         	movff	pad@p+1,pad@w+1
  1406   002E22  EF17  F017         	goto	l1157
  1407   002E26                     l1772:
  1408   002E26  0E00               	movlw	0
  1409   002E28  6E1D               	movwf	(pad@w+1)^(0+1280),c
  1410   002E2A  0E00               	movlw	0
  1411   002E2C  6E1C               	movwf	pad@w^(0+1280),c
  1412   002E2E                     l1157:
  1413                           
  1414                           ;C:\Program Files\Microchip\xc8\v2.40\pic\sources\c99\common\doprnt.c: 146:     i = 0;
  1415   002E2E  0E00               	movlw	0
  1416   002E30  6E1B               	movwf	(pad@i+1)^(0+1280),c
  1417   002E32  0E00               	movlw	0
  1418   002E34  6E1A               	movwf	pad@i^(0+1280),c
  1419                           
  1420                           ;C:\Program Files\Microchip\xc8\v2.40\pic\sources\c99\common\doprnt.c: 147:     while (i
      +                           < w) {
  1421   002E36  EF29  F017         	goto	l1778
  1422   002E3A                     l1774:
  1423                           
  1424                           ;C:\Program Files\Microchip\xc8\v2.40\pic\sources\c99\common\doprnt.c: 148:         fput
      +                          c(' ', fp);
  1425   002E3A  0E00               	movlw	0
  1426   002E3C  6E04               	movwf	(fputc@c+1)^(0+1280),c
  1427   002E3E  0E20               	movlw	32
  1428   002E40  6E03               	movwf	fputc@c^(0+1280),c
  1429   002E42  C513  F505         	movff	pad@fp,fputc@fp
  1430   002E46  C514  F506         	movff	pad@fp+1,fputc@fp+1
  1431   002E4A  ECBB  F016         	call	_fputc	;wreg free
  1432   002E4E                     
  1433                           ;C:\Program Files\Microchip\xc8\v2.40\pic\sources\c99\common\doprnt.c: 149:         ++i;
  1434   002E4E  4A1A               	infsnz	pad@i^(0+1280),f,c
  1435   002E50  2A1B               	incf	(pad@i+1)^(0+1280),f,c
  1436   002E52                     l1778:
  1437                           
  1438                           ;C:\Program Files\Microchip\xc8\v2.40\pic\sources\c99\common\doprnt.c: 147:     while (i
      +                           < w) {
  1439   002E52  501C               	movf	pad@w^(0+1280),w,c
  1440   002E54  5C1A               	subwf	pad@i^(0+1280),w,c
  1441   002E56  501B               	movf	(pad@i+1)^(0+1280),w,c
  1442   002E58  0A80               	xorlw	128
  1443   002E5A  6E19               	movwf	??_pad^(0+1280),c
  1444   002E5C  501D               	movf	(pad@w+1)^(0+1280),w,c
  1445   002E5E  0A80               	xorlw	128
  1446   002E60  5819               	subwfb	??_pad^(0+1280),w,c
  1447   002E62  A0D8               	btfss	status,0,c
  1448   002E64  EF36  F017         	goto	u721
  1449   002E68  EF38  F017         	goto	u720
  1450   002E6C                     u721:
  1451   002E6C  EF1D  F017         	goto	l1774
  1452   002E70                     u720:
  1453   002E70                     
  1454                           ;C:\Program Files\Microchip\xc8\v2.40\pic\sources\c99\common\doprnt.c: 156:         fput
      +                          s((const char *)buf, fp);
  1455   002E70  C515  F50C         	movff	pad@buf,fputs@s
  1456   002E74  C516  F50D         	movff	pad@buf+1,fputs@s+1
  1457   002E78  C513  F50E         	movff	pad@fp,fputs@fp
  1458   002E7C  C514  F50F         	movff	pad@fp+1,fputs@fp+1
  1459   002E80  EC04  F018         	call	_fputs	;wreg free
  1460   002E84  0012               	return		;funcret
  1461   002E86                     __end_of_pad:
  1462                           	callstack 0
  1463                           
  1464 ;; *************** function _fputs *****************
  1465 ;; Defined at:
  1466 ;;		line 8 in file "C:\Program Files\Microchip\xc8\v2.40\pic\sources\c99\common\nf_fputs.c"
  1467 ;; Parameters:    Size  Location     Type
  1468 ;;  s               2   11[COMRAM] PTR const unsigned char 
  1469 ;;		 -> dbuf(32), 
  1470 ;;  fp              2   13[COMRAM] PTR struct _IO_FILE
  1471 ;;		 -> NULL(0), 
  1472 ;; Auto vars:     Size  Location     Type
  1473 ;;  i               2   16[COMRAM] int 
  1474 ;;  c               1   15[COMRAM] unsigned char 
  1475 ;; Return value:  Size  Location     Type
  1476 ;;                  2   11[COMRAM] int 
  1477 ;; Registers used:
  1478 ;;		wreg, fsr1l, fsr1h, fsr2l, fsr2h, status,2, status,0, cstack
  1479 ;; Tracked objects:
  1480 ;;		On entry : 0/0
  1481 ;;		On exit  : 0/0
  1482 ;;		Unchanged: 0/0
  1483 ;; Data sizes:     COMRAM   BANK5   BANK6   BANK7   BANK8   BANK9  BANK10  BANK11  BANK12  BANK13  BANK14  BANK15  BANK1
      +6  BANK17  BANK18  BANK19  BANK20  BANK21  BANK22  BANK23  BANK24  BANK25  BANK26  BANK27  BANK28  BANK29  BANK30  BANK3
      +1  BANK32  BANK33  BANK34  BANK35  BANK36
  1484 ;;      Params:         4       0       0       0       0       0       0       0       0       0       0       0       
      +0       0       0       0       0       0       0       0       0       0       0       0       0       0       0       
      +0       0       0       0       0       0
  1485 ;;      Locals:         3       0       0       0       0       0       0       0       0       0       0       0       
      +0       0       0       0       0       0       0       0       0       0       0       0       0       0       0       
      +0       0       0       0       0       0
  1486 ;;      Temps:          0       0       0       0       0       0       0       0       0       0       0       0       
      +0       0       0       0       0       0       0       0       0       0       0       0       0       0       0       
      +0       0       0       0       0       0
  1487 ;;      Totals:         7       0       0       0       0       0       0       0       0       0       0       0       
      +0       0       0       0       0       0       0       0       0       0       0       0       0       0       0       
      +0       0       0       0       0       0
  1488 ;;Total ram usage:        7 bytes
  1489 ;; Hardware stack levels used: 1
  1490 ;; Hardware stack levels required when called: 3
  1491 ;; This function calls:
  1492 ;;		_fputc
  1493 ;; This function is called by:
  1494 ;;		_pad
  1495 ;; This function uses a non-reentrant model
  1496 ;;
  1497                           
  1498                           	psect	text6
  1499   003008                     __ptext6:
  1500                           	callstack 0
  1501   003008                     _fputs:
  1502                           	callstack 118
  1503   003008  0E00               	movlw	0
  1504   00300A  6E12               	movwf	(fputs@i+1)^(0+1280),c
  1505   00300C  0E00               	movlw	0
  1506   00300E  6E11               	movwf	fputs@i^(0+1280),c
  1507   003010  EF15  F018         	goto	l1686
  1508   003014                     l1682:
  1509   003014  C510  F503         	movff	fputs@c,fputc@c
  1510   003018  6A04               	clrf	(fputc@c+1)^(0+1280),c
  1511   00301A  C50E  F505         	movff	fputs@fp,fputc@fp
  1512   00301E  C50F  F506         	movff	fputs@fp+1,fputc@fp+1
  1513   003022  ECBB  F016         	call	_fputc	;wreg free
  1514   003026  4A11               	infsnz	fputs@i^(0+1280),f,c
  1515   003028  2A12               	incf	(fputs@i+1)^(0+1280),f,c
  1516   00302A                     l1686:
  1517   00302A  5011               	movf	fputs@i^(0+1280),w,c
  1518   00302C  240C               	addwf	fputs@s^(0+1280),w,c
  1519   00302E  6ED9               	movwf	fsr2l,c
  1520   003030  5012               	movf	(fputs@i+1)^(0+1280),w,c
  1521   003032  200D               	addwfc	(fputs@s+1)^(0+1280),w,c
  1522   003034  6EDA               	movwf	fsr2h,c
  1523   003036  50DF               	movf	indf2,w,c
  1524   003038  6E10               	movwf	fputs@c^(0+1280),c
  1525   00303A  5010               	movf	fputs@c^(0+1280),w,c
  1526   00303C  A4D8               	btfss	status,2,c
  1527   00303E  EF23  F018         	goto	u571
  1528   003042  EF25  F018         	goto	u570
  1529   003046                     u571:
  1530   003046  EF0A  F018         	goto	l1682
  1531   00304A                     u570:
  1532   00304A  0012               	return		;funcret
  1533   00304C                     __end_of_fputs:
  1534                           	callstack 0
  1535                           
  1536 ;; *************** function _fputc *****************
  1537 ;; Defined at:
  1538 ;;		line 8 in file "C:\Program Files\Microchip\xc8\v2.40\pic\sources\c99\common\nf_fputc.c"
  1539 ;; Parameters:    Size  Location     Type
  1540 ;;  c               2    2[COMRAM] int 
  1541 ;;  fp              2    4[COMRAM] PTR struct _IO_FILE
  1542 ;;		 -> NULL(0), 
  1543 ;; Auto vars:     Size  Location     Type
  1544 ;;		None
  1545 ;; Return value:  Size  Location     Type
  1546 ;;                  2    2[COMRAM] int 
  1547 ;; Registers used:
  1548 ;;		wreg, fsr1l, fsr1h, fsr2l, fsr2h, status,2, status,0, cstack
  1549 ;; Tracked objects:
  1550 ;;		On entry : 0/0
  1551 ;;		On exit  : 0/0
  1552 ;;		Unchanged: 0/0
  1553 ;; Data sizes:     COMRAM   BANK5   BANK6   BANK7   BANK8   BANK9  BANK10  BANK11  BANK12  BANK13  BANK14  BANK15  BANK1
      +6  BANK17  BANK18  BANK19  BANK20  BANK21  BANK22  BANK23  BANK24  BANK25  BANK26  BANK27  BANK28  BANK29  BANK30  BANK3
      +1  BANK32  BANK33  BANK34  BANK35  BANK36
  1554 ;;      Params:         4       0       0       0       0       0       0       0       0       0       0       0       
      +0       0       0       0       0       0       0       0       0       0       0       0       0       0       0       
      +0       0       0       0       0       0
  1555 ;;      Locals:         0       0       0       0       0       0       0       0       0       0       0       0       
      +0       0       0       0       0       0       0       0       0       0       0       0       0       0       0       
      +0       0       0       0       0       0
  1556 ;;      Temps:          5       0       0       0       0       0       0       0       0       0       0       0       
      +0       0       0       0       0       0       0       0       0       0       0       0       0       0       0       
      +0       0       0       0       0       0
  1557 ;;      Totals:         9       0       0       0       0       0       0       0       0       0       0       0       
      +0       0       0       0       0       0       0       0       0       0       0       0       0       0       0       
      +0       0       0       0       0       0
  1558 ;;Total ram usage:        9 bytes
  1559 ;; Hardware stack levels used: 1
  1560 ;; Hardware stack levels required when called: 2
  1561 ;; This function calls:
  1562 ;;		_putch
  1563 ;; This function is called by:
  1564 ;;		_pad
  1565 ;;		_vfpfcnvrt
  1566 ;;		_fputs
  1567 ;; This function uses a non-reentrant model
  1568 ;;
  1569                           
  1570                           	psect	text7
  1571   002D76                     __ptext7:
  1572                           	callstack 0
  1573   002D76                     _fputc:
  1574                           	callstack 121
  1575   002D76  5005               	movf	fputc@fp^(0+1280),w,c
  1576   002D78  1006               	iorwf	(fputc@fp+1)^(0+1280),w,c
  1577   002D7A  B4D8               	btfsc	status,2,c
  1578   002D7C  EFC2  F016         	goto	u531
  1579   002D80  EFC4  F016         	goto	u530
  1580   002D84                     u531:
  1581   002D84  EFCD  F016         	goto	l1670
  1582   002D88                     u530:
  1583   002D88  5005               	movf	fputc@fp^(0+1280),w,c
  1584   002D8A  1006               	iorwf	(fputc@fp+1)^(0+1280),w,c
  1585   002D8C  A4D8               	btfss	status,2,c
  1586   002D8E  EFCB  F016         	goto	u541
  1587   002D92  EFCD  F016         	goto	u540
  1588   002D96                     u541:
  1589   002D96  EFD2  F016         	goto	l1672
  1590   002D9A                     u540:
  1591   002D9A                     l1670:
  1592   002D9A  5003               	movf	fputc@c^(0+1280),w,c
  1593   002D9C  ECCC  F018         	call	_putch
  1594   002DA0  EF05  F017         	goto	l1212
  1595   002DA4                     l1672:
  1596   002DA4  EE20 F009          	lfsr	2,9
  1597   002DA8  5005               	movf	fputc@fp^(0+1280),w,c
  1598   002DAA  26D9               	addwf	fsr2l,f,c
  1599   002DAC  5006               	movf	(fputc@fp+1)^(0+1280),w,c
  1600   002DAE  22DA               	addwfc	fsr2h,f,c
  1601   002DB0  50DE               	movf	postinc2,w,c
  1602   002DB2  10DE               	iorwf	postinc2,w,c
  1603   002DB4  B4D8               	btfsc	status,2,c
  1604   002DB6  EFDF  F016         	goto	u551
  1605   002DBA  EFE1  F016         	goto	u550
  1606   002DBE                     u551:
  1607   002DBE  EFFC  F016         	goto	l1676
  1608   002DC2                     u550:
  1609   002DC2  EE20 F009          	lfsr	2,9
  1610   002DC6  5005               	movf	fputc@fp^(0+1280),w,c
  1611   002DC8  26D9               	addwf	fsr2l,f,c
  1612   002DCA  5006               	movf	(fputc@fp+1)^(0+1280),w,c
  1613   002DCC  22DA               	addwfc	fsr2h,f,c
  1614   002DCE  EE10 F003          	lfsr	1,3
  1615   002DD2  5005               	movf	fputc@fp^(0+1280),w,c
  1616   002DD4  26E1               	addwf	fsr1l,f,c
  1617   002DD6  5006               	movf	(fputc@fp+1)^(0+1280),w,c
  1618   002DD8  22E2               	addwfc	fsr1h,f,c
  1619   002DDA  50DE               	movf	postinc2,w,c
  1620   002DDC  5CE6               	subwf	postinc1,w,c
  1621   002DDE  50E6               	movf	postinc1,w,c
  1622   002DE0  0A80               	xorlw	128
  1623   002DE2  6E0B               	movwf	(??_fputc+4)^(0+1280),c
  1624   002DE4  50DE               	movf	postinc2,w,c
  1625   002DE6  0A80               	xorlw	128
  1626   002DE8  580B               	subwfb	(??_fputc+4)^(0+1280),w,c
  1627   002DEA  B0D8               	btfsc	status,0,c
  1628   002DEC  EFFA  F016         	goto	u561
  1629   002DF0  EFFC  F016         	goto	u560
  1630   002DF4                     u561:
  1631   002DF4  EF05  F017         	goto	l1212
  1632   002DF8                     u560:
  1633   002DF8                     l1676:
  1634   002DF8  EE20 F003          	lfsr	2,3
  1635   002DFC  5005               	movf	fputc@fp^(0+1280),w,c
  1636   002DFE  26D9               	addwf	fsr2l,f,c
  1637   002E00  5006               	movf	(fputc@fp+1)^(0+1280),w,c
  1638   002E02  22DA               	addwfc	fsr2h,f,c
  1639   002E04  2ADE               	incf	postinc2,f,c
  1640   002E06  0E00               	movlw	0
  1641   002E08  22DD               	addwfc	postdec2,f,c
  1642   002E0A                     l1212:
  1643   002E0A  0012               	return		;funcret
  1644   002E0C                     __end_of_fputc:
  1645                           	callstack 0
  1646                           
  1647 ;; *************** function _putch *****************
  1648 ;; Defined at:
  1649 ;;		line 175 in file "mcc_generated_files/uart3.c"
  1650 ;; Parameters:    Size  Location     Type
  1651 ;;  txData          1    wreg     unsigned char 
  1652 ;; Auto vars:     Size  Location     Type
  1653 ;;  txData          1    1[COMRAM] unsigned char 
  1654 ;; Return value:  Size  Location     Type
  1655 ;;                  1    wreg      void 
  1656 ;; Registers used:
  1657 ;;		wreg, status,2, cstack
  1658 ;; Tracked objects:
  1659 ;;		On entry : 0/0
  1660 ;;		On exit  : 0/0
  1661 ;;		Unchanged: 0/0
  1662 ;; Data sizes:     COMRAM   BANK5   BANK6   BANK7   BANK8   BANK9  BANK10  BANK11  BANK12  BANK13  BANK14  BANK15  BANK1
      +6  BANK17  BANK18  BANK19  BANK20  BANK21  BANK22  BANK23  BANK24  BANK25  BANK26  BANK27  BANK28  BANK29  BANK30  BANK3
      +1  BANK32  BANK33  BANK34  BANK35  BANK36
  1663 ;;      Params:         0       0       0       0       0       0       0       0       0       0       0       0       
      +0       0       0       0       0       0       0       0       0       0       0       0       0       0       0       
      +0       0       0       0       0       0
  1664 ;;      Locals:         1       0       0       0       0       0       0       0       0       0       0       0       
      +0       0       0       0       0       0       0       0       0       0       0       0       0       0       0       
      +0       0       0       0       0       0
  1665 ;;      Temps:          0       0       0       0       0       0       0       0       0       0       0       0       
      +0       0       0       0       0       0       0       0       0       0       0       0       0       0       0       
      +0       0       0       0       0       0
  1666 ;;      Totals:         1       0       0       0       0       0       0       0       0       0       0       0       
      +0       0       0       0       0       0       0       0       0       0       0       0       0       0       0       
      +0       0       0       0       0       0
  1667 ;;Total ram usage:        1 bytes
  1668 ;; Hardware stack levels used: 1
  1669 ;; Hardware stack levels required when called: 1
  1670 ;; This function calls:
  1671 ;;		_UART3_Write
  1672 ;; This function is called by:
  1673 ;;		_fputc
  1674 ;; This function uses a non-reentrant model
  1675 ;;
  1676                           
  1677                           	psect	text8
  1678   003198                     __ptext8:
  1679                           	callstack 0
  1680   003198                     _putch:
  1681                           	callstack 121
  1682                           
  1683                           ;incstack = 0
  1684                           ;putch@txData stored from wreg
  1685   003198  6E02               	movwf	putch@txData^(0+1280),c
  1686   00319A                     
  1687                           ;mcc_generated_files/uart3.c: 175: void putch(char txData);mcc_generated_files/uart3.c: 
      +                          176: {;mcc_generated_files/uart3.c: 177:     UART3_Write(txData);
  1688   00319A  5002               	movf	putch@txData^(0+1280),w,c
  1689   00319C  EC7A  F018         	call	_UART3_Write
  1690   0031A0  0012               	return		;funcret
  1691   0031A2                     __end_of_putch:
  1692                           	callstack 0
  1693                           
  1694 ;; *************** function _UART3_Write *****************
  1695 ;; Defined at:
  1696 ;;		line 161 in file "mcc_generated_files/uart3.c"
  1697 ;; Parameters:    Size  Location     Type
  1698 ;;  txData          1    wreg     unsigned char 
  1699 ;; Auto vars:     Size  Location     Type
  1700 ;;  txData          1    0[COMRAM] unsigned char 
  1701 ;; Return value:  Size  Location     Type
  1702 ;;                  1    wreg      void 
  1703 ;; Registers used:
  1704 ;;		wreg
  1705 ;; Tracked objects:
  1706 ;;		On entry : 0/0
  1707 ;;		On exit  : 0/0
  1708 ;;		Unchanged: 0/0
  1709 ;; Data sizes:     COMRAM   BANK5   BANK6   BANK7   BANK8   BANK9  BANK10  BANK11  BANK12  BANK13  BANK14  BANK15  BANK1
      +6  BANK17  BANK18  BANK19  BANK20  BANK21  BANK22  BANK23  BANK24  BANK25  BANK26  BANK27  BANK28  BANK29  BANK30  BANK3
      +1  BANK32  BANK33  BANK34  BANK35  BANK36
  1710 ;;      Params:         0       0       0       0       0       0       0       0       0       0       0       0       
      +0       0       0       0       0       0       0       0       0       0       0       0       0       0       0       
      +0       0       0       0       0       0
  1711 ;;      Locals:         1       0       0       0       0       0       0       0       0       0       0       0       
      +0       0       0       0       0       0       0       0       0       0       0       0       0       0       0       
      +0       0       0       0       0       0
  1712 ;;      Temps:          0       0       0       0       0       0       0       0       0       0       0       0       
      +0       0       0       0       0       0       0       0       0       0       0       0       0       0       0       
      +0       0       0       0       0       0
  1713 ;;      Totals:         1       0       0       0       0       0       0       0       0       0       0       0       
      +0       0       0       0       0       0       0       0       0       0       0       0       0       0       0       
      +0       0       0       0       0       0
  1714 ;;Total ram usage:        1 bytes
  1715 ;; Hardware stack levels used: 1
  1716 ;; This function calls:
  1717 ;;		Nothing
  1718 ;; This function is called by:
  1719 ;;		_putch
  1720 ;; This function uses a non-reentrant model
  1721 ;;
  1722                           
  1723                           	psect	text9
  1724   0030F4                     __ptext9:
  1725                           	callstack 0
  1726   0030F4                     _UART3_Write:
  1727                           	callstack 121
  1728                           
  1729                           ;incstack = 0
  1730                           ;UART3_Write@txData stored from wreg
  1731   0030F4  6E01               	movwf	UART3_Write@txData^(0+1280),c
  1732   0030F6                     l392:
  1733                           
  1734                           ;mcc_generated_files/uart3.c: 163:     while(0 == PIR9bits.U3TXIF)
  1735   0030F6  A2B7               	btfss	183,1,c	;volatile
  1736   0030F8  EF80  F018         	goto	u521
  1737   0030FC  EF82  F018         	goto	u520
  1738   003100                     u521:
  1739   003100  EF7B  F018         	goto	l392
  1740   003104                     u520:
  1741   003104                     
  1742                           ;mcc_generated_files/uart3.c: 167:     U3TXB = txData;
  1743   003104  C501  F2C9         	movff	UART3_Write@txData,713	;volatile
  1744   003108  0012               	return		;funcret
  1745   00310A                     __end_of_UART3_Write:
  1746                           	callstack 0
  1747                           
  1748 ;; *************** function _abs *****************
  1749 ;; Defined at:
  1750 ;;		line 1 in file "C:\Program Files\Microchip\xc8\v2.40\pic\sources\c99\common\abs.c"
  1751 ;; Parameters:    Size  Location     Type
  1752 ;;  a               2   18[COMRAM] int 
  1753 ;; Auto vars:     Size  Location     Type
  1754 ;;		None
  1755 ;; Return value:  Size  Location     Type
  1756 ;;                  2   18[COMRAM] int 
  1757 ;; Registers used:
  1758 ;;		wreg, status,2, status,0
  1759 ;; Tracked objects:
  1760 ;;		On entry : 0/0
  1761 ;;		On exit  : 0/0
  1762 ;;		Unchanged: 0/0
  1763 ;; Data sizes:     COMRAM   BANK5   BANK6   BANK7   BANK8   BANK9  BANK10  BANK11  BANK12  BANK13  BANK14  BANK15  BANK1
      +6  BANK17  BANK18  BANK19  BANK20  BANK21  BANK22  BANK23  BANK24  BANK25  BANK26  BANK27  BANK28  BANK29  BANK30  BANK3
      +1  BANK32  BANK33  BANK34  BANK35  BANK36
  1764 ;;      Params:         2       0       0       0       0       0       0       0       0       0       0       0       
      +0       0       0       0       0       0       0       0       0       0       0       0       0       0       0       
      +0       0       0       0       0       0
  1765 ;;      Locals:         0       0       0       0       0       0       0       0       0       0       0       0       
      +0       0       0       0       0       0       0       0       0       0       0       0       0       0       0       
      +0       0       0       0       0       0
  1766 ;;      Temps:          2       0       0       0       0       0       0       0       0       0       0       0       
      +0       0       0       0       0       0       0       0       0       0       0       0       0       0       0       
      +0       0       0       0       0       0
  1767 ;;      Totals:         4       0       0       0       0       0       0       0       0       0       0       0       
      +0       0       0       0       0       0       0       0       0       0       0       0       0       0       0       
      +0       0       0       0       0       0
  1768 ;;Total ram usage:        4 bytes
  1769 ;; Hardware stack levels used: 1
  1770 ;; This function calls:
  1771 ;;		Nothing
  1772 ;; This function is called by:
  1773 ;;		_dtoa
  1774 ;; This function uses a non-reentrant model
  1775 ;;
  1776                           
  1777                           	psect	text10
  1778   00304C                     __ptext10:
  1779                           	callstack 0
  1780   00304C                     _abs:
  1781                           	callstack 122
  1782   00304C  BE14               	btfsc	(abs@a+1)^(0+1280),7,c
  1783   00304E  EF33  F018         	goto	u730
  1784   003052  5014               	movf	(abs@a+1)^(0+1280),w,c
  1785   003054  E106               	bnz	u731
  1786   003056  0413               	decf	abs@a^(0+1280),w,c
  1787   003058  B0D8               	btfsc	status,0,c
  1788   00305A  EF31  F018         	goto	u731
  1789   00305E  EF33  F018         	goto	u730
  1790   003062                     u731:
  1791   003062  EF41  F018         	goto	l1197
  1792   003066                     u730:
  1793   003066  C513  F515         	movff	abs@a,??_abs
  1794   00306A  C514  F516         	movff	abs@a+1,??_abs+1
  1795   00306E  1E15               	comf	??_abs^(0+1280),f,c
  1796   003070  1E16               	comf	(??_abs+1)^(0+1280),f,c
  1797   003072  4A15               	infsnz	??_abs^(0+1280),f,c
  1798   003074  2A16               	incf	(??_abs+1)^(0+1280),f,c
  1799   003076  C515  F513         	movff	??_abs,?_abs
  1800   00307A  C516  F514         	movff	??_abs+1,?_abs+1
  1801   00307E  EF45  F018         	goto	l1200
  1802   003082                     l1197:
  1803   003082  C513  F513         	movff	abs@a,?_abs
  1804   003086  C514  F514         	movff	abs@a+1,?_abs+1
  1805   00308A                     l1200:
  1806   00308A  0012               	return		;funcret
  1807   00308C                     __end_of_abs:
  1808                           	callstack 0
  1809                           
  1810 ;; *************** function ___aomod *****************
  1811 ;; Defined at:
  1812 ;;		line 9 in file "C:\Program Files\Microchip\xc8\v2.40\pic\sources\c99\common\aomod.c"
  1813 ;; Parameters:    Size  Location     Type
  1814 ;;  dividend        8    0[COMRAM] long long 
  1815 ;;  divisor         8    8[COMRAM] long long 
  1816 ;; Auto vars:     Size  Location     Type
  1817 ;;  sign            1   17[COMRAM] unsigned char 
  1818 ;;  counter         1   16[COMRAM] unsigned char 
  1819 ;; Return value:  Size  Location     Type
  1820 ;;                  8    0[COMRAM] long long 
  1821 ;; Registers used:
  1822 ;;		wreg, status,2, status,0
  1823 ;; Tracked objects:
  1824 ;;		On entry : 0/0
  1825 ;;		On exit  : 0/0
  1826 ;;		Unchanged: 0/0
  1827 ;; Data sizes:     COMRAM   BANK5   BANK6   BANK7   BANK8   BANK9  BANK10  BANK11  BANK12  BANK13  BANK14  BANK15  BANK1
      +6  BANK17  BANK18  BANK19  BANK20  BANK21  BANK22  BANK23  BANK24  BANK25  BANK26  BANK27  BANK28  BANK29  BANK30  BANK3
      +1  BANK32  BANK33  BANK34  BANK35  BANK36
  1828 ;;      Params:        16       0       0       0       0       0       0       0       0       0       0       0       
      +0       0       0       0       0       0       0       0       0       0       0       0       0       0       0       
      +0       0       0       0       0       0
  1829 ;;      Locals:         2       0       0       0       0       0       0       0       0       0       0       0       
      +0       0       0       0       0       0       0       0       0       0       0       0       0       0       0       
      +0       0       0       0       0       0
  1830 ;;      Temps:          0       0       0       0       0       0       0       0       0       0       0       0       
      +0       0       0       0       0       0       0       0       0       0       0       0       0       0       0       
      +0       0       0       0       0       0
  1831 ;;      Totals:        18       0       0       0       0       0       0       0       0       0       0       0       
      +0       0       0       0       0       0       0       0       0       0       0       0       0       0       0       
      +0       0       0       0       0       0
  1832 ;;Total ram usage:       18 bytes
  1833 ;; Hardware stack levels used: 1
  1834 ;; This function calls:
  1835 ;;		Nothing
  1836 ;; This function is called by:
  1837 ;;		_dtoa
  1838 ;; This function uses a non-reentrant model
  1839 ;;
  1840                           
  1841                           	psect	text11
  1842   002A0A                     __ptext11:
  1843                           	callstack 0
  1844   002A0A                     ___aomod:
  1845                           	callstack 122
  1846   002A0A  0E00               	movlw	0
  1847   002A0C  6E12               	movwf	___aomod@sign^(0+1280),c
  1848   002A0E  BE08               	btfsc	(___aomod@dividend+7)^(0+1280),7,c
  1849   002A10  EF0E  F015         	goto	u650
  1850   002A14  EF0C  F015         	goto	u651
  1851   002A18                     u651:
  1852   002A18  EF20  F015         	goto	l1740
  1853   002A1C                     u650:
  1854   002A1C  1E08               	comf	(___aomod@dividend+7)^(0+1280),f,c
  1855   002A1E  1E07               	comf	(___aomod@dividend+6)^(0+1280),f,c
  1856   002A20  1E06               	comf	(___aomod@dividend+5)^(0+1280),f,c
  1857   002A22  1E05               	comf	(___aomod@dividend+4)^(0+1280),f,c
  1858   002A24  1E04               	comf	(___aomod@dividend+3)^(0+1280),f,c
  1859   002A26  1E03               	comf	(___aomod@dividend+2)^(0+1280),f,c
  1860   002A28  1E02               	comf	(___aomod@dividend+1)^(0+1280),f,c
  1861   002A2A  6C01               	negf	___aomod@dividend^(0+1280),c
  1862   002A2C  0E00               	movlw	0
  1863   002A2E  2202               	addwfc	(___aomod@dividend+1)^(0+1280),f,c
  1864   002A30  2203               	addwfc	(___aomod@dividend+2)^(0+1280),f,c
  1865   002A32  2204               	addwfc	(___aomod@dividend+3)^(0+1280),f,c
  1866   002A34  2205               	addwfc	(___aomod@dividend+4)^(0+1280),f,c
  1867   002A36  2206               	addwfc	(___aomod@dividend+5)^(0+1280),f,c
  1868   002A38  2207               	addwfc	(___aomod@dividend+6)^(0+1280),f,c
  1869   002A3A  2208               	addwfc	(___aomod@dividend+7)^(0+1280),f,c
  1870   002A3C  0E01               	movlw	1
  1871   002A3E  6E12               	movwf	___aomod@sign^(0+1280),c
  1872   002A40                     l1740:
  1873   002A40  BE10               	btfsc	(___aomod@divisor+7)^(0+1280),7,c
  1874   002A42  EF27  F015         	goto	u660
  1875   002A46  EF25  F015         	goto	u661
  1876   002A4A                     u661:
  1877   002A4A  EF37  F015         	goto	l1744
  1878   002A4E                     u660:
  1879   002A4E  1E10               	comf	(___aomod@divisor+7)^(0+1280),f,c
  1880   002A50  1E0F               	comf	(___aomod@divisor+6)^(0+1280),f,c
  1881   002A52  1E0E               	comf	(___aomod@divisor+5)^(0+1280),f,c
  1882   002A54  1E0D               	comf	(___aomod@divisor+4)^(0+1280),f,c
  1883   002A56  1E0C               	comf	(___aomod@divisor+3)^(0+1280),f,c
  1884   002A58  1E0B               	comf	(___aomod@divisor+2)^(0+1280),f,c
  1885   002A5A  1E0A               	comf	(___aomod@divisor+1)^(0+1280),f,c
  1886   002A5C  6C09               	negf	___aomod@divisor^(0+1280),c
  1887   002A5E  0E00               	movlw	0
  1888   002A60  220A               	addwfc	(___aomod@divisor+1)^(0+1280),f,c
  1889   002A62  220B               	addwfc	(___aomod@divisor+2)^(0+1280),f,c
  1890   002A64  220C               	addwfc	(___aomod@divisor+3)^(0+1280),f,c
  1891   002A66  220D               	addwfc	(___aomod@divisor+4)^(0+1280),f,c
  1892   002A68  220E               	addwfc	(___aomod@divisor+5)^(0+1280),f,c
  1893   002A6A  220F               	addwfc	(___aomod@divisor+6)^(0+1280),f,c
  1894   002A6C  2210               	addwfc	(___aomod@divisor+7)^(0+1280),f,c
  1895   002A6E                     l1744:
  1896   002A6E  5009               	movf	___aomod@divisor^(0+1280),w,c
  1897   002A70  100A               	iorwf	(___aomod@divisor+1)^(0+1280),w,c
  1898   002A72  100B               	iorwf	(___aomod@divisor+2)^(0+1280),w,c
  1899   002A74  100C               	iorwf	(___aomod@divisor+3)^(0+1280),w,c
  1900   002A76  100D               	iorwf	(___aomod@divisor+4)^(0+1280),w,c
  1901   002A78  100E               	iorwf	(___aomod@divisor+5)^(0+1280),w,c
  1902   002A7A  100F               	iorwf	(___aomod@divisor+6)^(0+1280),w,c
  1903   002A7C  1010               	iorwf	(___aomod@divisor+7)^(0+1280),w,c
  1904   002A7E  B4D8               	btfsc	status,2,c
  1905   002A80  EF44  F015         	goto	u671
  1906   002A84  EF46  F015         	goto	u670
  1907   002A88                     u671:
  1908   002A88  EF8E  F015         	goto	l1760
  1909   002A8C                     u670:
  1910   002A8C  0E01               	movlw	1
  1911   002A8E  6E11               	movwf	___aomod@counter^(0+1280),c
  1912   002A90  EF54  F015         	goto	l1750
  1913   002A94                     l1748:
  1914   002A94  90D8               	bcf	status,0,c
  1915   002A96  3609               	rlcf	___aomod@divisor^(0+1280),f,c
  1916   002A98  360A               	rlcf	(___aomod@divisor+1)^(0+1280),f,c
  1917   002A9A  360B               	rlcf	(___aomod@divisor+2)^(0+1280),f,c
  1918   002A9C  360C               	rlcf	(___aomod@divisor+3)^(0+1280),f,c
  1919   002A9E  360D               	rlcf	(___aomod@divisor+4)^(0+1280),f,c
  1920   002AA0  360E               	rlcf	(___aomod@divisor+5)^(0+1280),f,c
  1921   002AA2  360F               	rlcf	(___aomod@divisor+6)^(0+1280),f,c
  1922   002AA4  3610               	rlcf	(___aomod@divisor+7)^(0+1280),f,c
  1923   002AA6  2A11               	incf	___aomod@counter^(0+1280),f,c
  1924   002AA8                     l1750:
  1925   002AA8  AE10               	btfss	(___aomod@divisor+7)^(0+1280),7,c
  1926   002AAA  EF59  F015         	goto	u681
  1927   002AAE  EF5B  F015         	goto	u680
  1928   002AB2                     u681:
  1929   002AB2  EF4A  F015         	goto	l1748
  1930   002AB6                     u680:
  1931   002AB6                     l1752:
  1932   002AB6  5009               	movf	___aomod@divisor^(0+1280),w,c
  1933   002AB8  5C01               	subwf	___aomod@dividend^(0+1280),w,c
  1934   002ABA  500A               	movf	(___aomod@divisor+1)^(0+1280),w,c
  1935   002ABC  5802               	subwfb	(___aomod@dividend+1)^(0+1280),w,c
  1936   002ABE  500B               	movf	(___aomod@divisor+2)^(0+1280),w,c
  1937   002AC0  5803               	subwfb	(___aomod@dividend+2)^(0+1280),w,c
  1938   002AC2  500C               	movf	(___aomod@divisor+3)^(0+1280),w,c
  1939   002AC4  5804               	subwfb	(___aomod@dividend+3)^(0+1280),w,c
  1940   002AC6  500D               	movf	(___aomod@divisor+4)^(0+1280),w,c
  1941   002AC8  5805               	subwfb	(___aomod@dividend+4)^(0+1280),w,c
  1942   002ACA  500E               	movf	(___aomod@divisor+5)^(0+1280),w,c
  1943   002ACC  5806               	subwfb	(___aomod@dividend+5)^(0+1280),w,c
  1944   002ACE  500F               	movf	(___aomod@divisor+6)^(0+1280),w,c
  1945   002AD0  5807               	subwfb	(___aomod@dividend+6)^(0+1280),w,c
  1946   002AD2  5010               	movf	(___aomod@divisor+7)^(0+1280),w,c
  1947   002AD4  5808               	subwfb	(___aomod@dividend+7)^(0+1280),w,c
  1948   002AD6  A0D8               	btfss	status,0,c
  1949   002AD8  EF70  F015         	goto	u691
  1950   002ADC  EF72  F015         	goto	u690
  1951   002AE0                     u691:
  1952   002AE0  EF82  F015         	goto	l1756
  1953   002AE4                     u690:
  1954   002AE4  5009               	movf	___aomod@divisor^(0+1280),w,c
  1955   002AE6  5E01               	subwf	___aomod@dividend^(0+1280),f,c
  1956   002AE8  500A               	movf	(___aomod@divisor+1)^(0+1280),w,c
  1957   002AEA  5A02               	subwfb	(___aomod@dividend+1)^(0+1280),f,c
  1958   002AEC  500B               	movf	(___aomod@divisor+2)^(0+1280),w,c
  1959   002AEE  5A03               	subwfb	(___aomod@dividend+2)^(0+1280),f,c
  1960   002AF0  500C               	movf	(___aomod@divisor+3)^(0+1280),w,c
  1961   002AF2  5A04               	subwfb	(___aomod@dividend+3)^(0+1280),f,c
  1962   002AF4  500D               	movf	(___aomod@divisor+4)^(0+1280),w,c
  1963   002AF6  5A05               	subwfb	(___aomod@dividend+4)^(0+1280),f,c
  1964   002AF8  500E               	movf	(___aomod@divisor+5)^(0+1280),w,c
  1965   002AFA  5A06               	subwfb	(___aomod@dividend+5)^(0+1280),f,c
  1966   002AFC  500F               	movf	(___aomod@divisor+6)^(0+1280),w,c
  1967   002AFE  5A07               	subwfb	(___aomod@dividend+6)^(0+1280),f,c
  1968   002B00  5010               	movf	(___aomod@divisor+7)^(0+1280),w,c
  1969   002B02  5A08               	subwfb	(___aomod@dividend+7)^(0+1280),f,c
  1970   002B04                     l1756:
  1971   002B04  90D8               	bcf	status,0,c
  1972   002B06  3210               	rrcf	(___aomod@divisor+7)^(0+1280),f,c
  1973   002B08  320F               	rrcf	(___aomod@divisor+6)^(0+1280),f,c
  1974   002B0A  320E               	rrcf	(___aomod@divisor+5)^(0+1280),f,c
  1975   002B0C  320D               	rrcf	(___aomod@divisor+4)^(0+1280),f,c
  1976   002B0E  320C               	rrcf	(___aomod@divisor+3)^(0+1280),f,c
  1977   002B10  320B               	rrcf	(___aomod@divisor+2)^(0+1280),f,c
  1978   002B12  320A               	rrcf	(___aomod@divisor+1)^(0+1280),f,c
  1979   002B14  3209               	rrcf	___aomod@divisor^(0+1280),f,c
  1980   002B16  2E11               	decfsz	___aomod@counter^(0+1280),f,c
  1981   002B18  EF5B  F015         	goto	l1752
  1982   002B1C                     l1760:
  1983   002B1C  5012               	movf	___aomod@sign^(0+1280),w,c
  1984   002B1E  B4D8               	btfsc	status,2,c
  1985   002B20  EF94  F015         	goto	u701
  1986   002B24  EF96  F015         	goto	u700
  1987   002B28                     u701:
  1988   002B28  EFA6  F015         	goto	l1764
  1989   002B2C                     u700:
  1990   002B2C  1E08               	comf	(___aomod@dividend+7)^(0+1280),f,c
  1991   002B2E  1E07               	comf	(___aomod@dividend+6)^(0+1280),f,c
  1992   002B30  1E06               	comf	(___aomod@dividend+5)^(0+1280),f,c
  1993   002B32  1E05               	comf	(___aomod@dividend+4)^(0+1280),f,c
  1994   002B34  1E04               	comf	(___aomod@dividend+3)^(0+1280),f,c
  1995   002B36  1E03               	comf	(___aomod@dividend+2)^(0+1280),f,c
  1996   002B38  1E02               	comf	(___aomod@dividend+1)^(0+1280),f,c
  1997   002B3A  6C01               	negf	___aomod@dividend^(0+1280),c
  1998   002B3C  0E00               	movlw	0
  1999   002B3E  2202               	addwfc	(___aomod@dividend+1)^(0+1280),f,c
  2000   002B40  2203               	addwfc	(___aomod@dividend+2)^(0+1280),f,c
  2001   002B42  2204               	addwfc	(___aomod@dividend+3)^(0+1280),f,c
  2002   002B44  2205               	addwfc	(___aomod@dividend+4)^(0+1280),f,c
  2003   002B46  2206               	addwfc	(___aomod@dividend+5)^(0+1280),f,c
  2004   002B48  2207               	addwfc	(___aomod@dividend+6)^(0+1280),f,c
  2005   002B4A  2208               	addwfc	(___aomod@dividend+7)^(0+1280),f,c
  2006   002B4C                     l1764:
  2007   002B4C  C501  F501         	movff	___aomod@dividend,?___aomod
  2008   002B50  C502  F502         	movff	___aomod@dividend+1,?___aomod+1
  2009   002B54  C503  F503         	movff	___aomod@dividend+2,?___aomod+2
  2010   002B58  C504  F504         	movff	___aomod@dividend+3,?___aomod+3
  2011   002B5C  C505  F505         	movff	___aomod@dividend+4,?___aomod+4
  2012   002B60  C506  F506         	movff	___aomod@dividend+5,?___aomod+5
  2013   002B64  C507  F507         	movff	___aomod@dividend+6,?___aomod+6
  2014   002B68  C508  F508         	movff	___aomod@dividend+7,?___aomod+7
  2015   002B6C  0012               	return		;funcret
  2016   002B6E                     __end_of___aomod:
  2017                           	callstack 0
  2018                           
  2019 ;; *************** function ___aodiv *****************
  2020 ;; Defined at:
  2021 ;;		line 9 in file "C:\Program Files\Microchip\xc8\v2.40\pic\sources\c99\common\aodiv.c"
  2022 ;; Parameters:    Size  Location     Type
  2023 ;;  dividend        8    0[COMRAM] long long 
  2024 ;;  divisor         8    8[COMRAM] long long 
  2025 ;; Auto vars:     Size  Location     Type
  2026 ;;  quotient        8   18[COMRAM] long long 
  2027 ;;  sign            1   17[COMRAM] unsigned char 
  2028 ;;  counter         1   16[COMRAM] unsigned char 
  2029 ;; Return value:  Size  Location     Type
  2030 ;;                  8    0[COMRAM] long long 
  2031 ;; Registers used:
  2032 ;;		wreg, fsr2l, fsr2h, status,2, status,0
  2033 ;; Tracked objects:
  2034 ;;		On entry : 0/0
  2035 ;;		On exit  : 0/0
  2036 ;;		Unchanged: 0/0
  2037 ;; Data sizes:     COMRAM   BANK5   BANK6   BANK7   BANK8   BANK9  BANK10  BANK11  BANK12  BANK13  BANK14  BANK15  BANK1
      +6  BANK17  BANK18  BANK19  BANK20  BANK21  BANK22  BANK23  BANK24  BANK25  BANK26  BANK27  BANK28  BANK29  BANK30  BANK3
      +1  BANK32  BANK33  BANK34  BANK35  BANK36
  2038 ;;      Params:        16       0       0       0       0       0       0       0       0       0       0       0       
      +0       0       0       0       0       0       0       0       0       0       0       0       0       0       0       
      +0       0       0       0       0       0
  2039 ;;      Locals:        10       0       0       0       0       0       0       0       0       0       0       0       
      +0       0       0       0       0       0       0       0       0       0       0       0       0       0       0       
      +0       0       0       0       0       0
  2040 ;;      Temps:          0       0       0       0       0       0       0       0       0       0       0       0       
      +0       0       0       0       0       0       0       0       0       0       0       0       0       0       0       
      +0       0       0       0       0       0
  2041 ;;      Totals:        26       0       0       0       0       0       0       0       0       0       0       0       
      +0       0       0       0       0       0       0       0       0       0       0       0       0       0       0       
      +0       0       0       0       0       0
  2042 ;;Total ram usage:       26 bytes
  2043 ;; Hardware stack levels used: 1
  2044 ;; This function calls:
  2045 ;;		Nothing
  2046 ;; This function is called by:
  2047 ;;		_dtoa
  2048 ;; This function uses a non-reentrant model
  2049 ;;
  2050                           
  2051                           	psect	text12
  2052   002882                     __ptext12:
  2053                           	callstack 0
  2054   002882                     ___aodiv:
  2055                           	callstack 122
  2056   002882  0E00               	movlw	0
  2057   002884  6E12               	movwf	___aodiv@sign^(0+1280),c
  2058   002886  BE10               	btfsc	(___aodiv@divisor+7)^(0+1280),7,c
  2059   002888  EF4A  F014         	goto	u580
  2060   00288C  EF48  F014         	goto	u581
  2061   002890                     u581:
  2062   002890  EF5C  F014         	goto	l1696
  2063   002894                     u580:
  2064   002894  1E10               	comf	(___aodiv@divisor+7)^(0+1280),f,c
  2065   002896  1E0F               	comf	(___aodiv@divisor+6)^(0+1280),f,c
  2066   002898  1E0E               	comf	(___aodiv@divisor+5)^(0+1280),f,c
  2067   00289A  1E0D               	comf	(___aodiv@divisor+4)^(0+1280),f,c
  2068   00289C  1E0C               	comf	(___aodiv@divisor+3)^(0+1280),f,c
  2069   00289E  1E0B               	comf	(___aodiv@divisor+2)^(0+1280),f,c
  2070   0028A0  1E0A               	comf	(___aodiv@divisor+1)^(0+1280),f,c
  2071   0028A2  6C09               	negf	___aodiv@divisor^(0+1280),c
  2072   0028A4  0E00               	movlw	0
  2073   0028A6  220A               	addwfc	(___aodiv@divisor+1)^(0+1280),f,c
  2074   0028A8  220B               	addwfc	(___aodiv@divisor+2)^(0+1280),f,c
  2075   0028AA  220C               	addwfc	(___aodiv@divisor+3)^(0+1280),f,c
  2076   0028AC  220D               	addwfc	(___aodiv@divisor+4)^(0+1280),f,c
  2077   0028AE  220E               	addwfc	(___aodiv@divisor+5)^(0+1280),f,c
  2078   0028B0  220F               	addwfc	(___aodiv@divisor+6)^(0+1280),f,c
  2079   0028B2  2210               	addwfc	(___aodiv@divisor+7)^(0+1280),f,c
  2080   0028B4  0E01               	movlw	1
  2081   0028B6  6E12               	movwf	___aodiv@sign^(0+1280),c
  2082   0028B8                     l1696:
  2083   0028B8  BE08               	btfsc	(___aodiv@dividend+7)^(0+1280),7,c
  2084   0028BA  EF63  F014         	goto	u590
  2085   0028BE  EF61  F014         	goto	u591
  2086   0028C2                     u591:
  2087   0028C2  EF75  F014         	goto	l1702
  2088   0028C6                     u590:
  2089   0028C6  1E08               	comf	(___aodiv@dividend+7)^(0+1280),f,c
  2090   0028C8  1E07               	comf	(___aodiv@dividend+6)^(0+1280),f,c
  2091   0028CA  1E06               	comf	(___aodiv@dividend+5)^(0+1280),f,c
  2092   0028CC  1E05               	comf	(___aodiv@dividend+4)^(0+1280),f,c
  2093   0028CE  1E04               	comf	(___aodiv@dividend+3)^(0+1280),f,c
  2094   0028D0  1E03               	comf	(___aodiv@dividend+2)^(0+1280),f,c
  2095   0028D2  1E02               	comf	(___aodiv@dividend+1)^(0+1280),f,c
  2096   0028D4  6C01               	negf	___aodiv@dividend^(0+1280),c
  2097   0028D6  0E00               	movlw	0
  2098   0028D8  2202               	addwfc	(___aodiv@dividend+1)^(0+1280),f,c
  2099   0028DA  2203               	addwfc	(___aodiv@dividend+2)^(0+1280),f,c
  2100   0028DC  2204               	addwfc	(___aodiv@dividend+3)^(0+1280),f,c
  2101   0028DE  2205               	addwfc	(___aodiv@dividend+4)^(0+1280),f,c
  2102   0028E0  2206               	addwfc	(___aodiv@dividend+5)^(0+1280),f,c
  2103   0028E2  2207               	addwfc	(___aodiv@dividend+6)^(0+1280),f,c
  2104   0028E4  2208               	addwfc	(___aodiv@dividend+7)^(0+1280),f,c
  2105   0028E6  0E01               	movlw	1
  2106   0028E8  1A12               	xorwf	___aodiv@sign^(0+1280),f,c
  2107   0028EA                     l1702:
  2108   0028EA  EE21  F113         	lfsr	2,___aodiv@quotient
  2109   0028EE  0E07               	movlw	7
  2110   0028F0                     u601:
  2111   0028F0  6ADE               	clrf	postinc2,c
  2112   0028F2  06E8               	decf	wreg,f,c
  2113   0028F4  E2FD               	bc	u601
  2114   0028F6  5009               	movf	___aodiv@divisor^(0+1280),w,c
  2115   0028F8  100A               	iorwf	(___aodiv@divisor+1)^(0+1280),w,c
  2116   0028FA  100B               	iorwf	(___aodiv@divisor+2)^(0+1280),w,c
  2117   0028FC  100C               	iorwf	(___aodiv@divisor+3)^(0+1280),w,c
  2118   0028FE  100D               	iorwf	(___aodiv@divisor+4)^(0+1280),w,c
  2119   002900  100E               	iorwf	(___aodiv@divisor+5)^(0+1280),w,c
  2120   002902  100F               	iorwf	(___aodiv@divisor+6)^(0+1280),w,c
  2121   002904  1010               	iorwf	(___aodiv@divisor+7)^(0+1280),w,c
  2122   002906  B4D8               	btfsc	status,2,c
  2123   002908  EF88  F014         	goto	u611
  2124   00290C  EF8A  F014         	goto	u610
  2125   002910                     u611:
  2126   002910  EFDC  F014         	goto	l1724
  2127   002914                     u610:
  2128   002914  0E01               	movlw	1
  2129   002916  6E11               	movwf	___aodiv@counter^(0+1280),c
  2130   002918  EF98  F014         	goto	l1710
  2131   00291C                     l1708:
  2132   00291C  90D8               	bcf	status,0,c
  2133   00291E  3609               	rlcf	___aodiv@divisor^(0+1280),f,c
  2134   002920  360A               	rlcf	(___aodiv@divisor+1)^(0+1280),f,c
  2135   002922  360B               	rlcf	(___aodiv@divisor+2)^(0+1280),f,c
  2136   002924  360C               	rlcf	(___aodiv@divisor+3)^(0+1280),f,c
  2137   002926  360D               	rlcf	(___aodiv@divisor+4)^(0+1280),f,c
  2138   002928  360E               	rlcf	(___aodiv@divisor+5)^(0+1280),f,c
  2139   00292A  360F               	rlcf	(___aodiv@divisor+6)^(0+1280),f,c
  2140   00292C  3610               	rlcf	(___aodiv@divisor+7)^(0+1280),f,c
  2141   00292E  2A11               	incf	___aodiv@counter^(0+1280),f,c
  2142   002930                     l1710:
  2143   002930  AE10               	btfss	(___aodiv@divisor+7)^(0+1280),7,c
  2144   002932  EF9D  F014         	goto	u621
  2145   002936  EF9F  F014         	goto	u620
  2146   00293A                     u621:
  2147   00293A  EF8E  F014         	goto	l1708
  2148   00293E                     u620:
  2149   00293E                     l1712:
  2150   00293E  90D8               	bcf	status,0,c
  2151   002940  3613               	rlcf	___aodiv@quotient^(0+1280),f,c
  2152   002942  3614               	rlcf	(___aodiv@quotient+1)^(0+1280),f,c
  2153   002944  3615               	rlcf	(___aodiv@quotient+2)^(0+1280),f,c
  2154   002946  3616               	rlcf	(___aodiv@quotient+3)^(0+1280),f,c
  2155   002948  3617               	rlcf	(___aodiv@quotient+4)^(0+1280),f,c
  2156   00294A  3618               	rlcf	(___aodiv@quotient+5)^(0+1280),f,c
  2157   00294C  3619               	rlcf	(___aodiv@quotient+6)^(0+1280),f,c
  2158   00294E  361A               	rlcf	(___aodiv@quotient+7)^(0+1280),f,c
  2159   002950  5009               	movf	___aodiv@divisor^(0+1280),w,c
  2160   002952  5C01               	subwf	___aodiv@dividend^(0+1280),w,c
  2161   002954  500A               	movf	(___aodiv@divisor+1)^(0+1280),w,c
  2162   002956  5802               	subwfb	(___aodiv@dividend+1)^(0+1280),w,c
  2163   002958  500B               	movf	(___aodiv@divisor+2)^(0+1280),w,c
  2164   00295A  5803               	subwfb	(___aodiv@dividend+2)^(0+1280),w,c
  2165   00295C  500C               	movf	(___aodiv@divisor+3)^(0+1280),w,c
  2166   00295E  5804               	subwfb	(___aodiv@dividend+3)^(0+1280),w,c
  2167   002960  500D               	movf	(___aodiv@divisor+4)^(0+1280),w,c
  2168   002962  5805               	subwfb	(___aodiv@dividend+4)^(0+1280),w,c
  2169   002964  500E               	movf	(___aodiv@divisor+5)^(0+1280),w,c
  2170   002966  5806               	subwfb	(___aodiv@dividend+5)^(0+1280),w,c
  2171   002968  500F               	movf	(___aodiv@divisor+6)^(0+1280),w,c
  2172   00296A  5807               	subwfb	(___aodiv@dividend+6)^(0+1280),w,c
  2173   00296C  5010               	movf	(___aodiv@divisor+7)^(0+1280),w,c
  2174   00296E  5808               	subwfb	(___aodiv@dividend+7)^(0+1280),w,c
  2175   002970  A0D8               	btfss	status,0,c
  2176   002972  EFBD  F014         	goto	u631
  2177   002976  EFBF  F014         	goto	u630
  2178   00297A                     u631:
  2179   00297A  EFD0  F014         	goto	l1720
  2180   00297E                     u630:
  2181   00297E  5009               	movf	___aodiv@divisor^(0+1280),w,c
  2182   002980  5E01               	subwf	___aodiv@dividend^(0+1280),f,c
  2183   002982  500A               	movf	(___aodiv@divisor+1)^(0+1280),w,c
  2184   002984  5A02               	subwfb	(___aodiv@dividend+1)^(0+1280),f,c
  2185   002986  500B               	movf	(___aodiv@divisor+2)^(0+1280),w,c
  2186   002988  5A03               	subwfb	(___aodiv@dividend+2)^(0+1280),f,c
  2187   00298A  500C               	movf	(___aodiv@divisor+3)^(0+1280),w,c
  2188   00298C  5A04               	subwfb	(___aodiv@dividend+3)^(0+1280),f,c
  2189   00298E  500D               	movf	(___aodiv@divisor+4)^(0+1280),w,c
  2190   002990  5A05               	subwfb	(___aodiv@dividend+4)^(0+1280),f,c
  2191   002992  500E               	movf	(___aodiv@divisor+5)^(0+1280),w,c
  2192   002994  5A06               	subwfb	(___aodiv@dividend+5)^(0+1280),f,c
  2193   002996  500F               	movf	(___aodiv@divisor+6)^(0+1280),w,c
  2194   002998  5A07               	subwfb	(___aodiv@dividend+6)^(0+1280),f,c
  2195   00299A  5010               	movf	(___aodiv@divisor+7)^(0+1280),w,c
  2196   00299C  5A08               	subwfb	(___aodiv@dividend+7)^(0+1280),f,c
  2197   00299E  8013               	bsf	___aodiv@quotient^(0+1280),0,c
  2198   0029A0                     l1720:
  2199   0029A0  90D8               	bcf	status,0,c
  2200   0029A2  3210               	rrcf	(___aodiv@divisor+7)^(0+1280),f,c
  2201   0029A4  320F               	rrcf	(___aodiv@divisor+6)^(0+1280),f,c
  2202   0029A6  320E               	rrcf	(___aodiv@divisor+5)^(0+1280),f,c
  2203   0029A8  320D               	rrcf	(___aodiv@divisor+4)^(0+1280),f,c
  2204   0029AA  320C               	rrcf	(___aodiv@divisor+3)^(0+1280),f,c
  2205   0029AC  320B               	rrcf	(___aodiv@divisor+2)^(0+1280),f,c
  2206   0029AE  320A               	rrcf	(___aodiv@divisor+1)^(0+1280),f,c
  2207   0029B0  3209               	rrcf	___aodiv@divisor^(0+1280),f,c
  2208   0029B2  2E11               	decfsz	___aodiv@counter^(0+1280),f,c
  2209   0029B4  EF9F  F014         	goto	l1712
  2210   0029B8                     l1724:
  2211   0029B8  5012               	movf	___aodiv@sign^(0+1280),w,c
  2212   0029BA  B4D8               	btfsc	status,2,c
  2213   0029BC  EFE2  F014         	goto	u641
  2214   0029C0  EFE4  F014         	goto	u640
  2215   0029C4                     u641:
  2216   0029C4  EFF4  F014         	goto	l1728
  2217   0029C8                     u640:
  2218   0029C8  1E1A               	comf	(___aodiv@quotient+7)^(0+1280),f,c
  2219   0029CA  1E19               	comf	(___aodiv@quotient+6)^(0+1280),f,c
  2220   0029CC  1E18               	comf	(___aodiv@quotient+5)^(0+1280),f,c
  2221   0029CE  1E17               	comf	(___aodiv@quotient+4)^(0+1280),f,c
  2222   0029D0  1E16               	comf	(___aodiv@quotient+3)^(0+1280),f,c
  2223   0029D2  1E15               	comf	(___aodiv@quotient+2)^(0+1280),f,c
  2224   0029D4  1E14               	comf	(___aodiv@quotient+1)^(0+1280),f,c
  2225   0029D6  6C13               	negf	___aodiv@quotient^(0+1280),c
  2226   0029D8  0E00               	movlw	0
  2227   0029DA  2214               	addwfc	(___aodiv@quotient+1)^(0+1280),f,c
  2228   0029DC  2215               	addwfc	(___aodiv@quotient+2)^(0+1280),f,c
  2229   0029DE  2216               	addwfc	(___aodiv@quotient+3)^(0+1280),f,c
  2230   0029E0  2217               	addwfc	(___aodiv@quotient+4)^(0+1280),f,c
  2231   0029E2  2218               	addwfc	(___aodiv@quotient+5)^(0+1280),f,c
  2232   0029E4  2219               	addwfc	(___aodiv@quotient+6)^(0+1280),f,c
  2233   0029E6  221A               	addwfc	(___aodiv@quotient+7)^(0+1280),f,c
  2234   0029E8                     l1728:
  2235   0029E8  C513  F501         	movff	___aodiv@quotient,?___aodiv
  2236   0029EC  C514  F502         	movff	___aodiv@quotient+1,?___aodiv+1
  2237   0029F0  C515  F503         	movff	___aodiv@quotient+2,?___aodiv+2
  2238   0029F4  C516  F504         	movff	___aodiv@quotient+3,?___aodiv+3
  2239   0029F8  C517  F505         	movff	___aodiv@quotient+4,?___aodiv+4
  2240   0029FC  C518  F506         	movff	___aodiv@quotient+5,?___aodiv+5
  2241   002A00  C519  F507         	movff	___aodiv@quotient+6,?___aodiv+6
  2242   002A04  C51A  F508         	movff	___aodiv@quotient+7,?___aodiv+7
  2243   002A08  0012               	return		;funcret
  2244   002A0A                     __end_of___aodiv:
  2245                           	callstack 0
  2246                           
  2247 ;; *************** function _SYSTEM_Initialize *****************
  2248 ;; Defined at:
  2249 ;;		line 50 in file "mcc_generated_files/mcc.c"
  2250 ;; Parameters:    Size  Location     Type
  2251 ;;		None
  2252 ;; Auto vars:     Size  Location     Type
  2253 ;;		None
  2254 ;; Return value:  Size  Location     Type
  2255 ;;                  1    wreg      void 
  2256 ;; Registers used:
  2257 ;;		wreg, status,2, status,0, cstack
  2258 ;; Tracked objects:
  2259 ;;		On entry : 0/0
  2260 ;;		On exit  : 0/0
  2261 ;;		Unchanged: 0/0
  2262 ;; Data sizes:     COMRAM   BANK5   BANK6   BANK7   BANK8   BANK9  BANK10  BANK11  BANK12  BANK13  BANK14  BANK15  BANK1
      +6  BANK17  BANK18  BANK19  BANK20  BANK21  BANK22  BANK23  BANK24  BANK25  BANK26  BANK27  BANK28  BANK29  BANK30  BANK3
      +1  BANK32  BANK33  BANK34  BANK35  BANK36
  2263 ;;      Params:         0       0       0       0       0       0       0       0       0       0       0       0       
      +0       0       0       0       0       0       0       0       0       0       0       0       0       0       0       
      +0       0       0       0       0       0
  2264 ;;      Locals:         0       0       0       0       0       0       0       0       0       0       0       0       
      +0       0       0       0       0       0       0       0       0       0       0       0       0       0       0       
      +0       0       0       0       0       0
  2265 ;;      Temps:          0       0       0       0       0       0       0       0       0       0       0       0       
      +0       0       0       0       0       0       0       0       0       0       0       0       0       0       0       
      +0       0       0       0       0       0
  2266 ;;      Totals:         0       0       0       0       0       0       0       0       0       0       0       0       
      +0       0       0       0       0       0       0       0       0       0       0       0       0       0       0       
      +0       0       0       0       0       0
  2267 ;;Total ram usage:        0 bytes
  2268 ;; Hardware stack levels used: 1
  2269 ;; Hardware stack levels required when called: 2
  2270 ;; This function calls:
  2271 ;;		_ADCC_Initialize
  2272 ;;		_OSCILLATOR_Initialize
  2273 ;;		_PIN_MANAGER_Initialize
  2274 ;;		_PMD_Initialize
  2275 ;;		_UART3_Initialize
  2276 ;; This function is called by:
  2277 ;;		_main
  2278 ;; This function uses a non-reentrant model
  2279 ;;
  2280                           
  2281                           	psect	text13
  2282   00310A                     __ptext13:
  2283                           	callstack 0
  2284   00310A                     _SYSTEM_Initialize:
  2285                           	callstack 124
  2286   00310A                     
  2287                           ;mcc_generated_files/mcc.c: 52:     PMD_Initialize();
  2288   00310A  EC5A  F018         	call	_PMD_Initialize	;wreg free
  2289                           
  2290                           ;mcc_generated_files/mcc.c: 53:     PIN_MANAGER_Initialize();
  2291   00310E  EC66  F016         	call	_PIN_MANAGER_Initialize	;wreg free
  2292                           
  2293                           ;mcc_generated_files/mcc.c: 54:     OSCILLATOR_Initialize();
  2294   003112  EC6C  F018         	call	_OSCILLATOR_Initialize	;wreg free
  2295                           
  2296                           ;mcc_generated_files/mcc.c: 55:     ADCC_Initialize();
  2297   003116  ECAD  F017         	call	_ADCC_Initialize	;wreg free
  2298   00311A                     
  2299                           ;mcc_generated_files/mcc.c: 56:     UART3_Initialize();
  2300   00311A  EC79  F017         	call	_UART3_Initialize	;wreg free
  2301   00311E  0012               	return		;funcret
  2302   003120                     __end_of_SYSTEM_Initialize:
  2303                           	callstack 0
  2304                           
  2305 ;; *************** function _UART3_Initialize *****************
  2306 ;; Defined at:
  2307 ;;		line 66 in file "mcc_generated_files/uart3.c"
  2308 ;; Parameters:    Size  Location     Type
  2309 ;;		None
  2310 ;; Auto vars:     Size  Location     Type
  2311 ;;		None
  2312 ;; Return value:  Size  Location     Type
  2313 ;;                  1    wreg      void 
  2314 ;; Registers used:
  2315 ;;		wreg, status,2, status,0, cstack
  2316 ;; Tracked objects:
  2317 ;;		On entry : 0/0
  2318 ;;		On exit  : 0/0
  2319 ;;		Unchanged: 0/0
  2320 ;; Data sizes:     COMRAM   BANK5   BANK6   BANK7   BANK8   BANK9  BANK10  BANK11  BANK12  BANK13  BANK14  BANK15  BANK1
      +6  BANK17  BANK18  BANK19  BANK20  BANK21  BANK22  BANK23  BANK24  BANK25  BANK26  BANK27  BANK28  BANK29  BANK30  BANK3
      +1  BANK32  BANK33  BANK34  BANK35  BANK36
  2321 ;;      Params:         0       0       0       0       0       0       0       0       0       0       0       0       
      +0       0       0       0       0       0       0       0       0       0       0       0       0       0       0       
      +0       0       0       0       0       0
  2322 ;;      Locals:         0       0       0       0       0       0       0       0       0       0       0       0       
      +0       0       0       0       0       0       0       0       0       0       0       0       0       0       0       
      +0       0       0       0       0       0
  2323 ;;      Temps:          0       0       0       0       0       0       0       0       0       0       0       0       
      +0       0       0       0       0       0       0       0       0       0       0       0       0       0       0       
      +0       0       0       0       0       0
  2324 ;;      Totals:         0       0       0       0       0       0       0       0       0       0       0       0       
      +0       0       0       0       0       0       0       0       0       0       0       0       0       0       0       
      +0       0       0       0       0       0
  2325 ;;Total ram usage:        0 bytes
  2326 ;; Hardware stack levels used: 1
  2327 ;; Hardware stack levels required when called: 1
  2328 ;; This function calls:
  2329 ;;		_UART3_SetErrorHandler
  2330 ;;		_UART3_SetFramingErrorHandler
  2331 ;;		_UART3_SetOverrunErrorHandler
  2332 ;; This function is called by:
  2333 ;;		_SYSTEM_Initialize
  2334 ;; This function uses a non-reentrant model
  2335 ;;
  2336                           
  2337                           	psect	text14
  2338   002EF2                     __ptext14:
  2339                           	callstack 0
  2340   002EF2                     _UART3_Initialize:
  2341                           	callstack 124
  2342   002EF2                     
  2343                           ;mcc_generated_files/uart3.c: 73:     U3P1L = 0x00;
  2344   002EF2  0E00               	movlw	0
  2345   002EF4  0102               	movlb	2	; () banked
  2346   002EF6  6FCB               	movwf	203,b	;volatile
  2347                           
  2348                           ;mcc_generated_files/uart3.c: 76:     U3P2L = 0x00;
  2349   002EF8  0E00               	movlw	0
  2350   002EFA  6FCD               	movwf	205,b	;volatile
  2351                           
  2352                           ;mcc_generated_files/uart3.c: 79:     U3P3L = 0x00;
  2353   002EFC  0E00               	movlw	0
  2354   002EFE  6FCF               	movwf	207,b	;volatile
  2355                           
  2356                           ;mcc_generated_files/uart3.c: 82:     U3CON0 = 0xB0;
  2357   002F00  0EB0               	movlw	176
  2358   002F02  6FD1               	movwf	209,b	;volatile
  2359                           
  2360                           ;mcc_generated_files/uart3.c: 85:     U3CON1 = 0x80;
  2361   002F04  0E80               	movlw	128
  2362   002F06  6FD2               	movwf	210,b	;volatile
  2363                           
  2364                           ;mcc_generated_files/uart3.c: 88:     U3CON2 = 0x00;
  2365   002F08  0E00               	movlw	0
  2366   002F0A  6FD3               	movwf	211,b	;volatile
  2367                           
  2368                           ;mcc_generated_files/uart3.c: 91:     U3BRGL = 0x19;
  2369   002F0C  0E19               	movlw	25
  2370   002F0E  6FD4               	movwf	212,b	;volatile
  2371                           
  2372                           ;mcc_generated_files/uart3.c: 94:     U3BRGH = 0x00;
  2373   002F10  0E00               	movlw	0
  2374   002F12  6FD5               	movwf	213,b	;volatile
  2375                           
  2376                           ;mcc_generated_files/uart3.c: 97:     U3FIFO = 0x00;
  2377   002F14  0E00               	movlw	0
  2378   002F16  6FD6               	movwf	214,b	;volatile
  2379                           
  2380                           ;mcc_generated_files/uart3.c: 100:     U3UIR = 0x00;
  2381   002F18  0E00               	movlw	0
  2382   002F1A  6FD7               	movwf	215,b	;volatile
  2383                           
  2384                           ;mcc_generated_files/uart3.c: 103:     U3ERRIR = 0x00;
  2385   002F1C  0E00               	movlw	0
  2386   002F1E  6FD8               	movwf	216,b	;volatile
  2387                           
  2388                           ;mcc_generated_files/uart3.c: 106:     U3ERRIE = 0x00;
  2389   002F20  0E00               	movlw	0
  2390   002F22  6FD9               	movwf	217,b	;volatile
  2391   002F24                     
  2392                           ; BSR set to: 2
  2393                           ;mcc_generated_files/uart3.c: 109:     UART3_SetFramingErrorHandler(UART3_DefaultFraming
      +                          ErrorHandler);
  2394   002F24  0E00               	movlw	0
  2395   002F26  6E01               	movwf	UART3_SetFramingErrorHandler@interruptHandler^(0+1280),c
  2396   002F28  0E00               	movlw	0
  2397   002F2A  6E02               	movwf	(UART3_SetFramingErrorHandler@interruptHandler+1)^(0+1280),c
  2398   002F2C  0E00               	movlw	0
  2399   002F2E  6E03               	movwf	(UART3_SetFramingErrorHandler@interruptHandler+2)^(0+1280),c
  2400   002F30  ECB7  F018         	call	_UART3_SetFramingErrorHandler	;wreg free
  2401   002F34                     
  2402                           ;mcc_generated_files/uart3.c: 110:     UART3_SetOverrunErrorHandler(UART3_DefaultOverrun
      +                          ErrorHandler);
  2403   002F34  0E00               	movlw	0
  2404   002F36  6E01               	movwf	UART3_SetOverrunErrorHandler@interruptHandler^(0+1280),c
  2405   002F38  0E00               	movlw	0
  2406   002F3A  6E02               	movwf	(UART3_SetOverrunErrorHandler@interruptHandler+1)^(0+1280),c
  2407   002F3C  0E00               	movlw	0
  2408   002F3E  6E03               	movwf	(UART3_SetOverrunErrorHandler@interruptHandler+2)^(0+1280),c
  2409   002F40  ECB0  F018         	call	_UART3_SetOverrunErrorHandler	;wreg free
  2410   002F44                     
  2411                           ;mcc_generated_files/uart3.c: 111:     UART3_SetErrorHandler(UART3_DefaultErrorHandler);
  2412   002F44  0E00               	movlw	0
  2413   002F46  6E01               	movwf	UART3_SetErrorHandler@interruptHandler^(0+1280),c
  2414   002F48  0E00               	movlw	0
  2415   002F4A  6E02               	movwf	(UART3_SetErrorHandler@interruptHandler+1)^(0+1280),c
  2416   002F4C  0E00               	movlw	0
  2417   002F4E  6E03               	movwf	(UART3_SetErrorHandler@interruptHandler+2)^(0+1280),c
  2418   002F50  ECBE  F018         	call	_UART3_SetErrorHandler	;wreg free
  2419   002F54                     
  2420                           ;mcc_generated_files/uart3.c: 113:     uart3RxLastError.status = 0;
  2421   002F54  0E00               	movlw	0
  2422   002F56  6E5F               	movwf	_uart3RxLastError^(0+1280),c	;volatile
  2423   002F58  0012               	return		;funcret
  2424   002F5A                     __end_of_UART3_Initialize:
  2425                           	callstack 0
  2426                           
  2427 ;; *************** function _UART3_SetOverrunErrorHandler *****************
  2428 ;; Defined at:
  2429 ;;		line 195 in file "mcc_generated_files/uart3.c"
  2430 ;; Parameters:    Size  Location     Type
  2431 ;;  interruptHan    3    0[COMRAM] PTR FTN()void 
  2432 ;;		 -> UART3_DefaultOverrunErrorHandler(1), 
  2433 ;; Auto vars:     Size  Location     Type
  2434 ;;		None
  2435 ;; Return value:  Size  Location     Type
  2436 ;;                  1    wreg      void 
  2437 ;; Registers used:
  2438 ;;		wreg, status,2, status,0
  2439 ;; Tracked objects:
  2440 ;;		On entry : 0/0
  2441 ;;		On exit  : 0/0
  2442 ;;		Unchanged: 0/0
  2443 ;; Data sizes:     COMRAM   BANK5   BANK6   BANK7   BANK8   BANK9  BANK10  BANK11  BANK12  BANK13  BANK14  BANK15  BANK1
      +6  BANK17  BANK18  BANK19  BANK20  BANK21  BANK22  BANK23  BANK24  BANK25  BANK26  BANK27  BANK28  BANK29  BANK30  BANK3
      +1  BANK32  BANK33  BANK34  BANK35  BANK36
  2444 ;;      Params:         3       0       0       0       0       0       0       0       0       0       0       0       
      +0       0       0       0       0       0       0       0       0       0       0       0       0       0       0       
      +0       0       0       0       0       0
  2445 ;;      Locals:         0       0       0       0       0       0       0       0       0       0       0       0       
      +0       0       0       0       0       0       0       0       0       0       0       0       0       0       0       
      +0       0       0       0       0       0
  2446 ;;      Temps:          0       0       0       0       0       0       0       0       0       0       0       0       
      +0       0       0       0       0       0       0       0       0       0       0       0       0       0       0       
      +0       0       0       0       0       0
  2447 ;;      Totals:         3       0       0       0       0       0       0       0       0       0       0       0       
      +0       0       0       0       0       0       0       0       0       0       0       0       0       0       0       
      +0       0       0       0       0       0
  2448 ;;Total ram usage:        3 bytes
  2449 ;; Hardware stack levels used: 1
  2450 ;; This function calls:
  2451 ;;		Nothing
  2452 ;; This function is called by:
  2453 ;;		_UART3_Initialize
  2454 ;; This function uses a non-reentrant model
  2455 ;;
  2456                           
  2457                           	psect	text15
  2458   003160                     __ptext15:
  2459                           	callstack 0
  2460   003160                     _UART3_SetOverrunErrorHandler:
  2461                           	callstack 124
  2462   003160                     
  2463                           ;mcc_generated_files/uart3.c: 196:     UART3_OverrunErrorHandler = interruptHandler;
  2464   003160  C501  F58A         	movff	UART3_SetOverrunErrorHandler@interruptHandler,_UART3_OverrunErrorHandler
  2465   003164  C502  F58B         	movff	UART3_SetOverrunErrorHandler@interruptHandler+1,_UART3_OverrunErrorHandler+1
  2466   003168  C503  F58C         	movff	UART3_SetOverrunErrorHandler@interruptHandler+2,_UART3_OverrunErrorHandler+2
  2467   00316C  0012               	return		;funcret
  2468   00316E                     __end_of_UART3_SetOverrunErrorHandler:
  2469                           	callstack 0
  2470                           
  2471 ;; *************** function _UART3_SetFramingErrorHandler *****************
  2472 ;; Defined at:
  2473 ;;		line 191 in file "mcc_generated_files/uart3.c"
  2474 ;; Parameters:    Size  Location     Type
  2475 ;;  interruptHan    3    0[COMRAM] PTR FTN()void 
  2476 ;;		 -> UART3_DefaultFramingErrorHandler(1), 
  2477 ;; Auto vars:     Size  Location     Type
  2478 ;;		None
  2479 ;; Return value:  Size  Location     Type
  2480 ;;                  1    wreg      void 
  2481 ;; Registers used:
  2482 ;;		wreg, status,2, status,0
  2483 ;; Tracked objects:
  2484 ;;		On entry : 0/0
  2485 ;;		On exit  : 0/0
  2486 ;;		Unchanged: 0/0
  2487 ;; Data sizes:     COMRAM   BANK5   BANK6   BANK7   BANK8   BANK9  BANK10  BANK11  BANK12  BANK13  BANK14  BANK15  BANK1
      +6  BANK17  BANK18  BANK19  BANK20  BANK21  BANK22  BANK23  BANK24  BANK25  BANK26  BANK27  BANK28  BANK29  BANK30  BANK3
      +1  BANK32  BANK33  BANK34  BANK35  BANK36
  2488 ;;      Params:         3       0       0       0       0       0       0       0       0       0       0       0       
      +0       0       0       0       0       0       0       0       0       0       0       0       0       0       0       
      +0       0       0       0       0       0
  2489 ;;      Locals:         0       0       0       0       0       0       0       0       0       0       0       0       
      +0       0       0       0       0       0       0       0       0       0       0       0       0       0       0       
      +0       0       0       0       0       0
  2490 ;;      Temps:          0       0       0       0       0       0       0       0       0       0       0       0       
      +0       0       0       0       0       0       0       0       0       0       0       0       0       0       0       
      +0       0       0       0       0       0
  2491 ;;      Totals:         3       0       0       0       0       0       0       0       0       0       0       0       
      +0       0       0       0       0       0       0       0       0       0       0       0       0       0       0       
      +0       0       0       0       0       0
  2492 ;;Total ram usage:        3 bytes
  2493 ;; Hardware stack levels used: 1
  2494 ;; This function calls:
  2495 ;;		Nothing
  2496 ;; This function is called by:
  2497 ;;		_UART3_Initialize
  2498 ;; This function uses a non-reentrant model
  2499 ;;
  2500                           
  2501                           	psect	text16
  2502   00316E                     __ptext16:
  2503                           	callstack 0
  2504   00316E                     _UART3_SetFramingErrorHandler:
  2505                           	callstack 124
  2506   00316E                     
  2507                           ;mcc_generated_files/uart3.c: 192:     UART3_FramingErrorHandler = interruptHandler;
  2508   00316E  C501  F58D         	movff	UART3_SetFramingErrorHandler@interruptHandler,_UART3_FramingErrorHandler
  2509   003172  C502  F58E         	movff	UART3_SetFramingErrorHandler@interruptHandler+1,_UART3_FramingErrorHandler+1
  2510   003176  C503  F58F         	movff	UART3_SetFramingErrorHandler@interruptHandler+2,_UART3_FramingErrorHandler+2
  2511   00317A  0012               	return		;funcret
  2512   00317C                     __end_of_UART3_SetFramingErrorHandler:
  2513                           	callstack 0
  2514                           
  2515 ;; *************** function _UART3_SetErrorHandler *****************
  2516 ;; Defined at:
  2517 ;;		line 199 in file "mcc_generated_files/uart3.c"
  2518 ;; Parameters:    Size  Location     Type
  2519 ;;  interruptHan    3    0[COMRAM] PTR FTN()void 
  2520 ;;		 -> UART3_DefaultErrorHandler(1), 
  2521 ;; Auto vars:     Size  Location     Type
  2522 ;;		None
  2523 ;; Return value:  Size  Location     Type
  2524 ;;                  1    wreg      void 
  2525 ;; Registers used:
  2526 ;;		wreg, status,2, status,0
  2527 ;; Tracked objects:
  2528 ;;		On entry : 0/0
  2529 ;;		On exit  : 0/0
  2530 ;;		Unchanged: 0/0
  2531 ;; Data sizes:     COMRAM   BANK5   BANK6   BANK7   BANK8   BANK9  BANK10  BANK11  BANK12  BANK13  BANK14  BANK15  BANK1
      +6  BANK17  BANK18  BANK19  BANK20  BANK21  BANK22  BANK23  BANK24  BANK25  BANK26  BANK27  BANK28  BANK29  BANK30  BANK3
      +1  BANK32  BANK33  BANK34  BANK35  BANK36
  2532 ;;      Params:         3       0       0       0       0       0       0       0       0       0       0       0       
      +0       0       0       0       0       0       0       0       0       0       0       0       0       0       0       
      +0       0       0       0       0       0
  2533 ;;      Locals:         0       0       0       0       0       0       0       0       0       0       0       0       
      +0       0       0       0       0       0       0       0       0       0       0       0       0       0       0       
      +0       0       0       0       0       0
  2534 ;;      Temps:          0       0       0       0       0       0       0       0       0       0       0       0       
      +0       0       0       0       0       0       0       0       0       0       0       0       0       0       0       
      +0       0       0       0       0       0
  2535 ;;      Totals:         3       0       0       0       0       0       0       0       0       0       0       0       
      +0       0       0       0       0       0       0       0       0       0       0       0       0       0       0       
      +0       0       0       0       0       0
  2536 ;;Total ram usage:        3 bytes
  2537 ;; Hardware stack levels used: 1
  2538 ;; This function calls:
  2539 ;;		Nothing
  2540 ;; This function is called by:
  2541 ;;		_UART3_Initialize
  2542 ;; This function uses a non-reentrant model
  2543 ;;
  2544                           
  2545                           	psect	text17
  2546   00317C                     __ptext17:
  2547                           	callstack 0
  2548   00317C                     _UART3_SetErrorHandler:
  2549                           	callstack 124
  2550   00317C                     
  2551                           ;mcc_generated_files/uart3.c: 200:     UART3_ErrorHandler = interruptHandler;
  2552   00317C  C501  F587         	movff	UART3_SetErrorHandler@interruptHandler,_UART3_ErrorHandler
  2553   003180  C502  F588         	movff	UART3_SetErrorHandler@interruptHandler+1,_UART3_ErrorHandler+1
  2554   003184  C503  F589         	movff	UART3_SetErrorHandler@interruptHandler+2,_UART3_ErrorHandler+2
  2555   003188  0012               	return		;funcret
  2556   00318A                     __end_of_UART3_SetErrorHandler:
  2557                           	callstack 0
  2558                           
  2559 ;; *************** function _PMD_Initialize *****************
  2560 ;; Defined at:
  2561 ;;		line 75 in file "mcc_generated_files/mcc.c"
  2562 ;; Parameters:    Size  Location     Type
  2563 ;;		None
  2564 ;; Auto vars:     Size  Location     Type
  2565 ;;		None
  2566 ;; Return value:  Size  Location     Type
  2567 ;;                  1    wreg      void 
  2568 ;; Registers used:
  2569 ;;		wreg, status,2
  2570 ;; Tracked objects:
  2571 ;;		On entry : 0/0
  2572 ;;		On exit  : 0/0
  2573 ;;		Unchanged: 0/0
  2574 ;; Data sizes:     COMRAM   BANK5   BANK6   BANK7   BANK8   BANK9  BANK10  BANK11  BANK12  BANK13  BANK14  BANK15  BANK1
      +6  BANK17  BANK18  BANK19  BANK20  BANK21  BANK22  BANK23  BANK24  BANK25  BANK26  BANK27  BANK28  BANK29  BANK30  BANK3
      +1  BANK32  BANK33  BANK34  BANK35  BANK36
  2575 ;;      Params:         0       0       0       0       0       0       0       0       0       0       0       0       
      +0       0       0       0       0       0       0       0       0       0       0       0       0       0       0       
      +0       0       0       0       0       0
  2576 ;;      Locals:         0       0       0       0       0       0       0       0       0       0       0       0       
      +0       0       0       0       0       0       0       0       0       0       0       0       0       0       0       
      +0       0       0       0       0       0
  2577 ;;      Temps:          0       0       0       0       0       0       0       0       0       0       0       0       
      +0       0       0       0       0       0       0       0       0       0       0       0       0       0       0       
      +0       0       0       0       0       0
  2578 ;;      Totals:         0       0       0       0       0       0       0       0       0       0       0       0       
      +0       0       0       0       0       0       0       0       0       0       0       0       0       0       0       
      +0       0       0       0       0       0
  2579 ;;Total ram usage:        0 bytes
  2580 ;; Hardware stack levels used: 1
  2581 ;; This function calls:
  2582 ;;		Nothing
  2583 ;; This function is called by:
  2584 ;;		_SYSTEM_Initialize
  2585 ;; This function uses a non-reentrant model
  2586 ;;
  2587                           
  2588                           	psect	text18
  2589   0030B4                     __ptext18:
  2590                           	callstack 0
  2591   0030B4                     _PMD_Initialize:
  2592                           	callstack 125
  2593   0030B4                     
  2594                           ;mcc_generated_files/mcc.c: 78:     PMD0 = 0x00;
  2595   0030B4  0E00               	movlw	0
  2596   0030B6  0100               	movlb	0	; () banked
  2597   0030B8  6F60               	movwf	96,b	;volatile
  2598                           
  2599                           ;mcc_generated_files/mcc.c: 80:     PMD1 = 0x00;
  2600   0030BA  0E00               	movlw	0
  2601   0030BC  6F61               	movwf	97,b	;volatile
  2602                           
  2603                           ;mcc_generated_files/mcc.c: 82:     PMD3 = 0x00;
  2604   0030BE  0E00               	movlw	0
  2605   0030C0  6F63               	movwf	99,b	;volatile
  2606                           
  2607                           ;mcc_generated_files/mcc.c: 84:     PMD4 = 0x00;
  2608   0030C2  0E00               	movlw	0
  2609   0030C4  6F64               	movwf	100,b	;volatile
  2610                           
  2611                           ;mcc_generated_files/mcc.c: 86:     PMD5 = 0x00;
  2612   0030C6  0E00               	movlw	0
  2613   0030C8  6F65               	movwf	101,b	;volatile
  2614                           
  2615                           ;mcc_generated_files/mcc.c: 88:     PMD6 = 0x00;
  2616   0030CA  0E00               	movlw	0
  2617   0030CC  6F66               	movwf	102,b	;volatile
  2618                           
  2619                           ;mcc_generated_files/mcc.c: 90:     PMD7 = 0x00;
  2620   0030CE  0E00               	movlw	0
  2621   0030D0  6F67               	movwf	103,b	;volatile
  2622                           
  2623                           ;mcc_generated_files/mcc.c: 92:     PMD8 = 0x00;
  2624   0030D2  0E00               	movlw	0
  2625   0030D4  6F68               	movwf	104,b	;volatile
  2626   0030D6                     
  2627                           ; BSR set to: 0
  2628   0030D6  0012               	return		;funcret
  2629   0030D8                     __end_of_PMD_Initialize:
  2630                           	callstack 0
  2631                           
  2632 ;; *************** function _PIN_MANAGER_Initialize *****************
  2633 ;; Defined at:
  2634 ;;		line 55 in file "mcc_generated_files/pin_manager.c"
  2635 ;; Parameters:    Size  Location     Type
  2636 ;;		None
  2637 ;; Auto vars:     Size  Location     Type
  2638 ;;		None
  2639 ;; Return value:  Size  Location     Type
  2640 ;;                  1    wreg      void 
  2641 ;; Registers used:
  2642 ;;		wreg, status,2
  2643 ;; Tracked objects:
  2644 ;;		On entry : 0/0
  2645 ;;		On exit  : 0/0
  2646 ;;		Unchanged: 0/0
  2647 ;; Data sizes:     COMRAM   BANK5   BANK6   BANK7   BANK8   BANK9  BANK10  BANK11  BANK12  BANK13  BANK14  BANK15  BANK1
      +6  BANK17  BANK18  BANK19  BANK20  BANK21  BANK22  BANK23  BANK24  BANK25  BANK26  BANK27  BANK28  BANK29  BANK30  BANK3
      +1  BANK32  BANK33  BANK34  BANK35  BANK36
  2648 ;;      Params:         0       0       0       0       0       0       0       0       0       0       0       0       
      +0       0       0       0       0       0       0       0       0       0       0       0       0       0       0       
      +0       0       0       0       0       0
  2649 ;;      Locals:         0       0       0       0       0       0       0       0       0       0       0       0       
      +0       0       0       0       0       0       0       0       0       0       0       0       0       0       0       
      +0       0       0       0       0       0
  2650 ;;      Temps:          0       0       0       0       0       0       0       0       0       0       0       0       
      +0       0       0       0       0       0       0       0       0       0       0       0       0       0       0       
      +0       0       0       0       0       0
  2651 ;;      Totals:         0       0       0       0       0       0       0       0       0       0       0       0       
      +0       0       0       0       0       0       0       0       0       0       0       0       0       0       0       
      +0       0       0       0       0       0
  2652 ;;Total ram usage:        0 bytes
  2653 ;; Hardware stack levels used: 1
  2654 ;; This function calls:
  2655 ;;		Nothing
  2656 ;; This function is called by:
  2657 ;;		_SYSTEM_Initialize
  2658 ;; This function uses a non-reentrant model
  2659 ;;
  2660                           
  2661                           	psect	text19
  2662   002CCC                     __ptext19:
  2663                           	callstack 0
  2664   002CCC                     _PIN_MANAGER_Initialize:
  2665                           	callstack 125
  2666   002CCC                     
  2667                           ;mcc_generated_files/pin_manager.c: 60:     LATE = 0x00;
  2668   002CCC  0E00               	movlw	0
  2669   002CCE  6EC2               	movwf	194,c	;volatile
  2670                           
  2671                           ;mcc_generated_files/pin_manager.c: 61:     LATD = 0x00;
  2672   002CD0  0E00               	movlw	0
  2673   002CD2  6EC1               	movwf	193,c	;volatile
  2674                           
  2675                           ;mcc_generated_files/pin_manager.c: 62:     LATA = 0x00;
  2676   002CD4  0E00               	movlw	0
  2677   002CD6  6EBE               	movwf	190,c	;volatile
  2678                           
  2679                           ;mcc_generated_files/pin_manager.c: 63:     LATF = 0x00;
  2680   002CD8  0E00               	movlw	0
  2681   002CDA  6EC3               	movwf	195,c	;volatile
  2682                           
  2683                           ;mcc_generated_files/pin_manager.c: 64:     LATB = 0x00;
  2684   002CDC  0E00               	movlw	0
  2685   002CDE  6EBF               	movwf	191,c	;volatile
  2686                           
  2687                           ;mcc_generated_files/pin_manager.c: 65:     LATC = 0x0C;
  2688   002CE0  0E0C               	movlw	12
  2689   002CE2  6EC0               	movwf	192,c	;volatile
  2690                           
  2691                           ;mcc_generated_files/pin_manager.c: 70:     TRISE = 0x07;
  2692   002CE4  0E07               	movlw	7
  2693   002CE6  6ECA               	movwf	202,c	;volatile
  2694                           
  2695                           ;mcc_generated_files/pin_manager.c: 71:     TRISF = 0xFE;
  2696   002CE8  0EFE               	movlw	254
  2697   002CEA  6ECB               	movwf	203,c	;volatile
  2698                           
  2699                           ;mcc_generated_files/pin_manager.c: 72:     TRISA = 0xEF;
  2700   002CEC  0EEF               	movlw	239
  2701   002CEE  6EC6               	movwf	198,c	;volatile
  2702   002CF0                     
  2703                           ;mcc_generated_files/pin_manager.c: 73:     TRISB = 0xFF;
  2704   002CF0  68C7               	setf	199,c	;volatile
  2705   002CF2                     
  2706                           ;mcc_generated_files/pin_manager.c: 74:     TRISC = 0xFF;
  2707   002CF2  68C8               	setf	200,c	;volatile
  2708   002CF4                     
  2709                           ;mcc_generated_files/pin_manager.c: 75:     TRISD = 0xFF;
  2710   002CF4  68C9               	setf	201,c	;volatile
  2711   002CF6                     
  2712                           ;mcc_generated_files/pin_manager.c: 80:     ANSELD = 0xFF;
  2713   002CF6  0104               	movlb	4	; () banked
  2714   002CF8  6918               	setf	24,b	;volatile
  2715                           
  2716                           ;mcc_generated_files/pin_manager.c: 81:     ANSELC = 0xF7;
  2717   002CFA  0EF7               	movlw	247
  2718   002CFC  6F10               	movwf	16,b	;volatile
  2719   002CFE                     
  2720                           ; BSR set to: 4
  2721                           ;mcc_generated_files/pin_manager.c: 82:     ANSELB = 0xFF;
  2722   002CFE  6908               	setf	8,b	;volatile
  2723                           
  2724                           ;mcc_generated_files/pin_manager.c: 83:     ANSELE = 0x07;
  2725   002D00  0E07               	movlw	7
  2726   002D02  6F20               	movwf	32,b	;volatile
  2727   002D04                     
  2728                           ; BSR set to: 4
  2729                           ;mcc_generated_files/pin_manager.c: 84:     ANSELF = 0xFF;
  2730   002D04  6928               	setf	40,b	;volatile
  2731                           
  2732                           ;mcc_generated_files/pin_manager.c: 85:     ANSELA = 0x6F;
  2733   002D06  0E6F               	movlw	111
  2734   002D08  6F00               	movwf	0,b	;volatile
  2735                           
  2736                           ;mcc_generated_files/pin_manager.c: 90:     WPUD = 0x00;
  2737   002D0A  0E00               	movlw	0
  2738   002D0C  6F19               	movwf	25,b	;volatile
  2739                           
  2740                           ;mcc_generated_files/pin_manager.c: 91:     WPUF = 0x00;
  2741   002D0E  0E00               	movlw	0
  2742   002D10  6F29               	movwf	41,b	;volatile
  2743                           
  2744                           ;mcc_generated_files/pin_manager.c: 92:     WPUE = 0x00;
  2745   002D12  0E00               	movlw	0
  2746   002D14  6F21               	movwf	33,b	;volatile
  2747                           
  2748                           ;mcc_generated_files/pin_manager.c: 93:     WPUB = 0x00;
  2749   002D16  0E00               	movlw	0
  2750   002D18  6F09               	movwf	9,b	;volatile
  2751                           
  2752                           ;mcc_generated_files/pin_manager.c: 94:     WPUA = 0x00;
  2753   002D1A  0E00               	movlw	0
  2754   002D1C  6F01               	movwf	1,b	;volatile
  2755                           
  2756                           ;mcc_generated_files/pin_manager.c: 95:     WPUC = 0x00;
  2757   002D1E  0E00               	movlw	0
  2758   002D20  6F11               	movwf	17,b	;volatile
  2759                           
  2760                           ;mcc_generated_files/pin_manager.c: 100:     RB1I2C = 0x00;
  2761   002D22  0E00               	movlw	0
  2762   002D24  0102               	movlb	2	; () banked
  2763   002D26  6F89               	movwf	137,b	;volatile
  2764                           
  2765                           ;mcc_generated_files/pin_manager.c: 101:     RB2I2C = 0x00;
  2766   002D28  0E00               	movlw	0
  2767   002D2A  6F88               	movwf	136,b	;volatile
  2768                           
  2769                           ;mcc_generated_files/pin_manager.c: 102:     RC3I2C = 0x00;
  2770   002D2C  0E00               	movlw	0
  2771   002D2E  6F87               	movwf	135,b	;volatile
  2772                           
  2773                           ;mcc_generated_files/pin_manager.c: 103:     RC4I2C = 0x00;
  2774   002D30  0E00               	movlw	0
  2775   002D32  6F86               	movwf	134,b	;volatile
  2776                           
  2777                           ;mcc_generated_files/pin_manager.c: 108:     ODCONE = 0x00;
  2778   002D34  0E00               	movlw	0
  2779   002D36  0104               	movlb	4	; () banked
  2780   002D38  6F22               	movwf	34,b	;volatile
  2781                           
  2782                           ;mcc_generated_files/pin_manager.c: 109:     ODCONF = 0x00;
  2783   002D3A  0E00               	movlw	0
  2784   002D3C  6F2A               	movwf	42,b	;volatile
  2785                           
  2786                           ;mcc_generated_files/pin_manager.c: 110:     ODCONA = 0x00;
  2787   002D3E  0E00               	movlw	0
  2788   002D40  6F02               	movwf	2,b	;volatile
  2789                           
  2790                           ;mcc_generated_files/pin_manager.c: 111:     ODCONB = 0x00;
  2791   002D42  0E00               	movlw	0
  2792   002D44  6F0A               	movwf	10,b	;volatile
  2793                           
  2794                           ;mcc_generated_files/pin_manager.c: 112:     ODCONC = 0x00;
  2795   002D46  0E00               	movlw	0
  2796   002D48  6F12               	movwf	18,b	;volatile
  2797                           
  2798                           ;mcc_generated_files/pin_manager.c: 113:     ODCOND = 0x00;
  2799   002D4A  0E00               	movlw	0
  2800   002D4C  6F1A               	movwf	26,b	;volatile
  2801   002D4E                     
  2802                           ; BSR set to: 4
  2803                           ;mcc_generated_files/pin_manager.c: 118:     SLRCONA = 0xFF;
  2804   002D4E  6903               	setf	3,b	;volatile
  2805   002D50                     
  2806                           ; BSR set to: 4
  2807                           ;mcc_generated_files/pin_manager.c: 119:     SLRCONB = 0xFF;
  2808   002D50  690B               	setf	11,b	;volatile
  2809   002D52                     
  2810                           ; BSR set to: 4
  2811                           ;mcc_generated_files/pin_manager.c: 120:     SLRCONC = 0xFF;
  2812   002D52  6913               	setf	19,b	;volatile
  2813   002D54                     
  2814                           ; BSR set to: 4
  2815                           ;mcc_generated_files/pin_manager.c: 121:     SLRCOND = 0xFF;
  2816   002D54  691B               	setf	27,b	;volatile
  2817                           
  2818                           ;mcc_generated_files/pin_manager.c: 122:     SLRCONE = 0x07;
  2819   002D56  0E07               	movlw	7
  2820   002D58  6F23               	movwf	35,b	;volatile
  2821   002D5A                     
  2822                           ; BSR set to: 4
  2823                           ;mcc_generated_files/pin_manager.c: 123:     SLRCONF = 0xFF;
  2824   002D5A  692B               	setf	43,b	;volatile
  2825   002D5C                     
  2826                           ; BSR set to: 4
  2827                           ;mcc_generated_files/pin_manager.c: 128:     INLVLA = 0xFF;
  2828   002D5C  6904               	setf	4,b	;volatile
  2829   002D5E                     
  2830                           ; BSR set to: 4
  2831                           ;mcc_generated_files/pin_manager.c: 129:     INLVLB = 0xFF;
  2832   002D5E  690C               	setf	12,b	;volatile
  2833   002D60                     
  2834                           ; BSR set to: 4
  2835                           ;mcc_generated_files/pin_manager.c: 130:     INLVLC = 0xFF;
  2836   002D60  6914               	setf	20,b	;volatile
  2837   002D62                     
  2838                           ; BSR set to: 4
  2839                           ;mcc_generated_files/pin_manager.c: 131:     INLVLD = 0xFF;
  2840   002D62  691C               	setf	28,b	;volatile
  2841                           
  2842                           ;mcc_generated_files/pin_manager.c: 132:     INLVLE = 0x0F;
  2843   002D64  0E0F               	movlw	15
  2844   002D66  6F24               	movwf	36,b	;volatile
  2845   002D68                     
  2846                           ; BSR set to: 4
  2847                           ;mcc_generated_files/pin_manager.c: 133:     INLVLF = 0xFF;
  2848   002D68  692C               	setf	44,b	;volatile
  2849                           
  2850                           ;mcc_generated_files/pin_manager.c: 142:     RF0PPS = 0x26;
  2851   002D6A  0E26               	movlw	38
  2852   002D6C  0102               	movlb	2	; () banked
  2853   002D6E  6F29               	movwf	41,b	;volatile
  2854                           
  2855                           ;mcc_generated_files/pin_manager.c: 143:     U3RXPPS = 0x07;
  2856   002D70  0E07               	movlw	7
  2857   002D72  6F76               	movwf	118,b	;volatile
  2858   002D74                     
  2859                           ; BSR set to: 2
  2860   002D74  0012               	return		;funcret
  2861   002D76                     __end_of_PIN_MANAGER_Initialize:
  2862                           	callstack 0
  2863                           
  2864 ;; *************** function _OSCILLATOR_Initialize *****************
  2865 ;; Defined at:
  2866 ;;		line 59 in file "mcc_generated_files/mcc.c"
  2867 ;; Parameters:    Size  Location     Type
  2868 ;;		None
  2869 ;; Auto vars:     Size  Location     Type
  2870 ;;		None
  2871 ;; Return value:  Size  Location     Type
  2872 ;;                  1    wreg      void 
  2873 ;; Registers used:
  2874 ;;		wreg, status,2
  2875 ;; Tracked objects:
  2876 ;;		On entry : 0/0
  2877 ;;		On exit  : 0/0
  2878 ;;		Unchanged: 0/0
  2879 ;; Data sizes:     COMRAM   BANK5   BANK6   BANK7   BANK8   BANK9  BANK10  BANK11  BANK12  BANK13  BANK14  BANK15  BANK1
      +6  BANK17  BANK18  BANK19  BANK20  BANK21  BANK22  BANK23  BANK24  BANK25  BANK26  BANK27  BANK28  BANK29  BANK30  BANK3
      +1  BANK32  BANK33  BANK34  BANK35  BANK36
  2880 ;;      Params:         0       0       0       0       0       0       0       0       0       0       0       0       
      +0       0       0       0       0       0       0       0       0       0       0       0       0       0       0       
      +0       0       0       0       0       0
  2881 ;;      Locals:         0       0       0       0       0       0       0       0       0       0       0       0       
      +0       0       0       0       0       0       0       0       0       0       0       0       0       0       0       
      +0       0       0       0       0       0
  2882 ;;      Temps:          0       0       0       0       0       0       0       0       0       0       0       0       
      +0       0       0       0       0       0       0       0       0       0       0       0       0       0       0       
      +0       0       0       0       0       0
  2883 ;;      Totals:         0       0       0       0       0       0       0       0       0       0       0       0       
      +0       0       0       0       0       0       0       0       0       0       0       0       0       0       0       
      +0       0       0       0       0       0
  2884 ;;Total ram usage:        0 bytes
  2885 ;; Hardware stack levels used: 1
  2886 ;; This function calls:
  2887 ;;		Nothing
  2888 ;; This function is called by:
  2889 ;;		_SYSTEM_Initialize
  2890 ;; This function uses a non-reentrant model
  2891 ;;
  2892                           
  2893                           	psect	text20
  2894   0030D8                     __ptext20:
  2895                           	callstack 0
  2896   0030D8                     _OSCILLATOR_Initialize:
  2897                           	callstack 125
  2898   0030D8                     
  2899                           ;mcc_generated_files/mcc.c: 62:     OSCCON1 = 0x62;
  2900   0030D8  0E62               	movlw	98
  2901   0030DA  0100               	movlb	0	; () banked
  2902   0030DC  6FAD               	movwf	173,b	;volatile
  2903                           
  2904                           ;mcc_generated_files/mcc.c: 64:     OSCCON3 = 0x00;
  2905   0030DE  0E00               	movlw	0
  2906   0030E0  6FAF               	movwf	175,b	;volatile
  2907                           
  2908                           ;mcc_generated_files/mcc.c: 66:     OSCEN = 0x00;
  2909   0030E2  0E00               	movlw	0
  2910   0030E4  6FB3               	movwf	179,b	;volatile
  2911                           
  2912                           ;mcc_generated_files/mcc.c: 68:     OSCFRQ = 0x02;
  2913   0030E6  0E02               	movlw	2
  2914   0030E8  6FB1               	movwf	177,b	;volatile
  2915                           
  2916                           ;mcc_generated_files/mcc.c: 70:     OSCTUNE = 0x00;
  2917   0030EA  0E00               	movlw	0
  2918   0030EC  6FB0               	movwf	176,b	;volatile
  2919                           
  2920                           ;mcc_generated_files/mcc.c: 72:     ACTCON = 0x00;
  2921   0030EE  0E00               	movlw	0
  2922   0030F0  6FAC               	movwf	172,b	;volatile
  2923   0030F2                     
  2924                           ; BSR set to: 0
  2925   0030F2  0012               	return		;funcret
  2926   0030F4                     __end_of_OSCILLATOR_Initialize:
  2927                           	callstack 0
  2928                           
  2929 ;; *************** function _ADCC_Initialize *****************
  2930 ;; Defined at:
  2931 ;;		line 62 in file "mcc_generated_files/adcc.c"
  2932 ;; Parameters:    Size  Location     Type
  2933 ;;		None
  2934 ;; Auto vars:     Size  Location     Type
  2935 ;;		None
  2936 ;; Return value:  Size  Location     Type
  2937 ;;                  1    wreg      void 
  2938 ;; Registers used:
  2939 ;;		wreg, status,2
  2940 ;; Tracked objects:
  2941 ;;		On entry : 0/0
  2942 ;;		On exit  : 0/0
  2943 ;;		Unchanged: 0/0
  2944 ;; Data sizes:     COMRAM   BANK5   BANK6   BANK7   BANK8   BANK9  BANK10  BANK11  BANK12  BANK13  BANK14  BANK15  BANK1
      +6  BANK17  BANK18  BANK19  BANK20  BANK21  BANK22  BANK23  BANK24  BANK25  BANK26  BANK27  BANK28  BANK29  BANK30  BANK3
      +1  BANK32  BANK33  BANK34  BANK35  BANK36
  2945 ;;      Params:         0       0       0       0       0       0       0       0       0       0       0       0       
      +0       0       0       0       0       0       0       0       0       0       0       0       0       0       0       
      +0       0       0       0       0       0
  2946 ;;      Locals:         0       0       0       0       0       0       0       0       0       0       0       0       
      +0       0       0       0       0       0       0       0       0       0       0       0       0       0       0       
      +0       0       0       0       0       0
  2947 ;;      Temps:          0       0       0       0       0       0       0       0       0       0       0       0       
      +0       0       0       0       0       0       0       0       0       0       0       0       0       0       0       
      +0       0       0       0       0       0
  2948 ;;      Totals:         0       0       0       0       0       0       0       0       0       0       0       0       
      +0       0       0       0       0       0       0       0       0       0       0       0       0       0       0       
      +0       0       0       0       0       0
  2949 ;;Total ram usage:        0 bytes
  2950 ;; Hardware stack levels used: 1
  2951 ;; This function calls:
  2952 ;;		Nothing
  2953 ;; This function is called by:
  2954 ;;		_SYSTEM_Initialize
  2955 ;;		_main
  2956 ;; This function uses a non-reentrant model
  2957 ;;
  2958                           
  2959                           	psect	text21
  2960   002F5A                     __ptext21:
  2961                           	callstack 0
  2962   002F5A                     _ADCC_Initialize:
  2963                           	callstack 125
  2964   002F5A                     
  2965                           ;mcc_generated_files/adcc.c: 66:     ADLTHL = 0x00;
  2966   002F5A  0E00               	movlw	0
  2967   002F5C  0103               	movlb	3	; () banked
  2968   002F5E  6FD9               	movwf	217,b	;volatile
  2969                           
  2970                           ;mcc_generated_files/adcc.c: 68:     ADLTHH = 0x00;
  2971   002F60  0E00               	movlw	0
  2972   002F62  6FDA               	movwf	218,b	;volatile
  2973                           
  2974                           ;mcc_generated_files/adcc.c: 70:     ADUTHL = 0x00;
  2975   002F64  0E00               	movlw	0
  2976   002F66  6FDB               	movwf	219,b	;volatile
  2977                           
  2978                           ;mcc_generated_files/adcc.c: 72:     ADUTHH = 0x00;
  2979   002F68  0E00               	movlw	0
  2980   002F6A  6FDC               	movwf	220,b	;volatile
  2981                           
  2982                           ;mcc_generated_files/adcc.c: 74:     ADSTPTL = 0x00;
  2983   002F6C  0E00               	movlw	0
  2984   002F6E  6FDF               	movwf	223,b	;volatile
  2985                           
  2986                           ;mcc_generated_files/adcc.c: 76:     ADSTPTH = 0x00;
  2987   002F70  0E00               	movlw	0
  2988   002F72  6FE0               	movwf	224,b	;volatile
  2989                           
  2990                           ;mcc_generated_files/adcc.c: 78:     ADACCU = 0x00;
  2991   002F74  0E00               	movlw	0
  2992   002F76  6FE5               	movwf	229,b	;volatile
  2993                           
  2994                           ;mcc_generated_files/adcc.c: 80:     ADRPT = 0x00;
  2995   002F78  0E00               	movlw	0
  2996   002F7A  6FE7               	movwf	231,b	;volatile
  2997                           
  2998                           ;mcc_generated_files/adcc.c: 82:     ADPCH = 0x00;
  2999   002F7C  0E00               	movlw	0
  3000   002F7E  6FEC               	movwf	236,b	;volatile
  3001                           
  3002                           ;mcc_generated_files/adcc.c: 84:     ADACQL = 0x00;
  3003   002F80  0E00               	movlw	0
  3004   002F82  6FEE               	movwf	238,b	;volatile
  3005                           
  3006                           ;mcc_generated_files/adcc.c: 86:     ADACQH = 0x00;
  3007   002F84  0E00               	movlw	0
  3008   002F86  6FEF               	movwf	239,b	;volatile
  3009                           
  3010                           ;mcc_generated_files/adcc.c: 88:     ADCAP = 0x00;
  3011   002F88  0E00               	movlw	0
  3012   002F8A  6FF0               	movwf	240,b	;volatile
  3013                           
  3014                           ;mcc_generated_files/adcc.c: 90:     ADPREL = 0x00;
  3015   002F8C  0E00               	movlw	0
  3016   002F8E  6FF1               	movwf	241,b	;volatile
  3017                           
  3018                           ;mcc_generated_files/adcc.c: 92:     ADPREH = 0x00;
  3019   002F90  0E00               	movlw	0
  3020   002F92  6FF2               	movwf	242,b	;volatile
  3021                           
  3022                           ;mcc_generated_files/adcc.c: 94:     ADCON1 = 0x00;
  3023   002F94  0E00               	movlw	0
  3024   002F96  6FF4               	movwf	244,b	;volatile
  3025                           
  3026                           ;mcc_generated_files/adcc.c: 96:     ADCON2 = 0x10;
  3027   002F98  0E10               	movlw	16
  3028   002F9A  6FF5               	movwf	245,b	;volatile
  3029                           
  3030                           ;mcc_generated_files/adcc.c: 98:     ADCON3 = 0x00;
  3031   002F9C  0E00               	movlw	0
  3032   002F9E  6FF6               	movwf	246,b	;volatile
  3033                           
  3034                           ;mcc_generated_files/adcc.c: 100:     ADSTAT = 0x00;
  3035   002FA0  0E00               	movlw	0
  3036   002FA2  6FF7               	movwf	247,b	;volatile
  3037                           
  3038                           ;mcc_generated_files/adcc.c: 102:     ADREF = 0x00;
  3039   002FA4  0E00               	movlw	0
  3040   002FA6  6FF8               	movwf	248,b	;volatile
  3041                           
  3042                           ;mcc_generated_files/adcc.c: 104:     ADACT = 0x00;
  3043   002FA8  0E00               	movlw	0
  3044   002FAA  6FF9               	movwf	249,b	;volatile
  3045                           
  3046                           ;mcc_generated_files/adcc.c: 106:     ADCLK = 0x00;
  3047   002FAC  0E00               	movlw	0
  3048   002FAE  6FFA               	movwf	250,b	;volatile
  3049                           
  3050                           ;mcc_generated_files/adcc.c: 108:     ADCON0 = 0x84;
  3051   002FB0  0E84               	movlw	132
  3052   002FB2  6FF3               	movwf	243,b	;volatile
  3053   002FB4                     
  3054                           ; BSR set to: 3
  3055   002FB4  0012               	return		;funcret
  3056   002FB6                     __end_of_ADCC_Initialize:
  3057                           	callstack 0
  3058                           
  3059 ;; *************** function _ADCC_StartConversion *****************
  3060 ;; Defined at:
  3061 ;;		line 113 in file "mcc_generated_files/adcc.c"
  3062 ;; Parameters:    Size  Location     Type
  3063 ;;  channel         1    wreg     enum E16691
  3064 ;; Auto vars:     Size  Location     Type
  3065 ;;  channel         1    0[COMRAM] enum E16691
  3066 ;; Return value:  Size  Location     Type
  3067 ;;                  1    wreg      void 
  3068 ;; Registers used:
  3069 ;;		wreg
  3070 ;; Tracked objects:
  3071 ;;		On entry : 0/0
  3072 ;;		On exit  : 0/0
  3073 ;;		Unchanged: 0/0
  3074 ;; Data sizes:     COMRAM   BANK5   BANK6   BANK7   BANK8   BANK9  BANK10  BANK11  BANK12  BANK13  BANK14  BANK15  BANK1
      +6  BANK17  BANK18  BANK19  BANK20  BANK21  BANK22  BANK23  BANK24  BANK25  BANK26  BANK27  BANK28  BANK29  BANK30  BANK3
      +1  BANK32  BANK33  BANK34  BANK35  BANK36
  3075 ;;      Params:         0       0       0       0       0       0       0       0       0       0       0       0       
      +0       0       0       0       0       0       0       0       0       0       0       0       0       0       0       
      +0       0       0       0       0       0
  3076 ;;      Locals:         1       0       0       0       0       0       0       0       0       0       0       0       
      +0       0       0       0       0       0       0       0       0       0       0       0       0       0       0       
      +0       0       0       0       0       0
  3077 ;;      Temps:          0       0       0       0       0       0       0       0       0       0       0       0       
      +0       0       0       0       0       0       0       0       0       0       0       0       0       0       0       
      +0       0       0       0       0       0
  3078 ;;      Totals:         1       0       0       0       0       0       0       0       0       0       0       0       
      +0       0       0       0       0       0       0       0       0       0       0       0       0       0       0       
      +0       0       0       0       0       0
  3079 ;;Total ram usage:        1 bytes
  3080 ;; Hardware stack levels used: 1
  3081 ;; This function calls:
  3082 ;;		Nothing
  3083 ;; This function is called by:
  3084 ;;		_main
  3085 ;; This function uses a non-reentrant model
  3086 ;;
  3087                           
  3088                           	psect	text22
  3089   00318A                     __ptext22:
  3090                           	callstack 0
  3091   00318A                     _ADCC_StartConversion:
  3092                           	callstack 126
  3093                           
  3094                           ; BSR set to: 3
  3095                           ;incstack = 0
  3096                           ;ADCC_StartConversion@channel stored from wreg
  3097   00318A  6E01               	movwf	ADCC_StartConversion@channel^(0+1280),c
  3098   00318C                     
  3099                           ;mcc_generated_files/adcc.c: 113: void ADCC_StartConversion(adcc_channel_t channel);mcc_
      +                          generated_files/adcc.c: 114: {;mcc_generated_files/adcc.c: 116:     ADPCH = channel;
  3100   00318C  C501  F3EC         	movff	ADCC_StartConversion@channel,1004	;volatile
  3101   003190                     
  3102                           ;mcc_generated_files/adcc.c: 119:     ADCON0bits.ADON = 1;
  3103   003190  0103               	movlb	3	; () banked
  3104   003192  8FF3               	bsf	243,7,b	;volatile
  3105   003194                     
  3106                           ; BSR set to: 3
  3107                           ;mcc_generated_files/adcc.c: 122:     ADCON0bits.ADGO = 1;
  3108   003194  81F3               	bsf	243,0,b	;volatile
  3109   003196                     
  3110                           ; BSR set to: 3
  3111   003196  0012               	return		;funcret
  3112   003198                     __end_of_ADCC_StartConversion:
  3113                           	callstack 0
  3114                           
  3115 ;; *************** function _ADCC_IsConversionDone *****************
  3116 ;; Defined at:
  3117 ;;		line 125 in file "mcc_generated_files/adcc.c"
  3118 ;; Parameters:    Size  Location     Type
  3119 ;;		None
  3120 ;; Auto vars:     Size  Location     Type
  3121 ;;		None
  3122 ;; Return value:  Size  Location     Type
  3123 ;;                  1    wreg      _Bool 
  3124 ;; Registers used:
  3125 ;;		wreg
  3126 ;; Tracked objects:
  3127 ;;		On entry : 0/0
  3128 ;;		On exit  : 0/0
  3129 ;;		Unchanged: 0/0
  3130 ;; Data sizes:     COMRAM   BANK5   BANK6   BANK7   BANK8   BANK9  BANK10  BANK11  BANK12  BANK13  BANK14  BANK15  BANK1
      +6  BANK17  BANK18  BANK19  BANK20  BANK21  BANK22  BANK23  BANK24  BANK25  BANK26  BANK27  BANK28  BANK29  BANK30  BANK3
      +1  BANK32  BANK33  BANK34  BANK35  BANK36
  3131 ;;      Params:         0       0       0       0       0       0       0       0       0       0       0       0       
      +0       0       0       0       0       0       0       0       0       0       0       0       0       0       0       
      +0       0       0       0       0       0
  3132 ;;      Locals:         0       0       0       0       0       0       0       0       0       0       0       0       
      +0       0       0       0       0       0       0       0       0       0       0       0       0       0       0       
      +0       0       0       0       0       0
  3133 ;;      Temps:          0       0       0       0       0       0       0       0       0       0       0       0       
      +0       0       0       0       0       0       0       0       0       0       0       0       0       0       0       
      +0       0       0       0       0       0
  3134 ;;      Totals:         0       0       0       0       0       0       0       0       0       0       0       0       
      +0       0       0       0       0       0       0       0       0       0       0       0       0       0       0       
      +0       0       0       0       0       0
  3135 ;;Total ram usage:        0 bytes
  3136 ;; Hardware stack levels used: 1
  3137 ;; This function calls:
  3138 ;;		Nothing
  3139 ;; This function is called by:
  3140 ;;		_main
  3141 ;; This function uses a non-reentrant model
  3142 ;;
  3143                           
  3144                           	psect	text23
  3145   003120                     __ptext23:
  3146                           	callstack 0
  3147   003120                     _ADCC_IsConversionDone:
  3148                           	callstack 126
  3149   003120                     
  3150                           ;mcc_generated_files/adcc.c: 128:     return ((unsigned char)(!ADCON0bits.ADGO));
  3151   003120  0103               	movlb	3	; () banked
  3152   003122  A1F3               	btfss	243,0,b	;volatile
  3153   003124  EF96  F018         	goto	u881
  3154   003128  EF99  F018         	goto	u880
  3155   00312C                     u881:
  3156   00312C  0E01               	movlw	1
  3157   00312E  EF9A  F018         	goto	u890
  3158   003132                     u880:
  3159   003132  0E00               	movlw	0
  3160   003134                     u890:
  3161   003134                     
  3162                           ; BSR set to: 3
  3163   003134  0012               	return		;funcret
  3164   003136                     __end_of_ADCC_IsConversionDone:
  3165                           	callstack 0
  3166                           
  3167 ;; *************** function _ADCC_GetConversionResult *****************
  3168 ;; Defined at:
  3169 ;;		line 131 in file "mcc_generated_files/adcc.c"
  3170 ;; Parameters:    Size  Location     Type
  3171 ;;		None
  3172 ;; Auto vars:     Size  Location     Type
  3173 ;;		None
  3174 ;; Return value:  Size  Location     Type
  3175 ;;                  2    0[COMRAM] unsigned short 
  3176 ;; Registers used:
  3177 ;;		wreg, status,2, status,0
  3178 ;; Tracked objects:
  3179 ;;		On entry : 0/0
  3180 ;;		On exit  : 0/0
  3181 ;;		Unchanged: 0/0
  3182 ;; Data sizes:     COMRAM   BANK5   BANK6   BANK7   BANK8   BANK9  BANK10  BANK11  BANK12  BANK13  BANK14  BANK15  BANK1
      +6  BANK17  BANK18  BANK19  BANK20  BANK21  BANK22  BANK23  BANK24  BANK25  BANK26  BANK27  BANK28  BANK29  BANK30  BANK3
      +1  BANK32  BANK33  BANK34  BANK35  BANK36
  3183 ;;      Params:         2       0       0       0       0       0       0       0       0       0       0       0       
      +0       0       0       0       0       0       0       0       0       0       0       0       0       0       0       
      +0       0       0       0       0       0
  3184 ;;      Locals:         0       0       0       0       0       0       0       0       0       0       0       0       
      +0       0       0       0       0       0       0       0       0       0       0       0       0       0       0       
      +0       0       0       0       0       0
  3185 ;;      Temps:          2       0       0       0       0       0       0       0       0       0       0       0       
      +0       0       0       0       0       0       0       0       0       0       0       0       0       0       0       
      +0       0       0       0       0       0
  3186 ;;      Totals:         4       0       0       0       0       0       0       0       0       0       0       0       
      +0       0       0       0       0       0       0       0       0       0       0       0       0       0       0       
      +0       0       0       0       0       0
  3187 ;;Total ram usage:        4 bytes
  3188 ;; Hardware stack levels used: 1
  3189 ;; This function calls:
  3190 ;;		Nothing
  3191 ;; This function is called by:
  3192 ;;		_main
  3193 ;; This function uses a non-reentrant model
  3194 ;;
  3195                           
  3196                           	psect	text24
  3197   003136                     __ptext24:
  3198                           	callstack 0
  3199   003136                     _ADCC_GetConversionResult:
  3200                           	callstack 126
  3201   003136                     
  3202                           ;mcc_generated_files/adcc.c: 134:     return ((adc_result_t)((ADRESH << 8) + ADRESL));
  3203   003136  0103               	movlb	3	; () banked
  3204   003138  51EB               	movf	235,w,b	;volatile
  3205   00313A  6E04               	movwf	(??_ADCC_GetConversionResult+1)^(0+1280),c
  3206   00313C  6A03               	clrf	??_ADCC_GetConversionResult^(0+1280),c
  3207   00313E  51EA               	movf	234,w,b	;volatile
  3208   003140  2403               	addwf	??_ADCC_GetConversionResult^(0+1280),w,c
  3209   003142  6E01               	movwf	?_ADCC_GetConversionResult^(0+1280),c
  3210   003144  0E00               	movlw	0
  3211   003146  2004               	addwfc	(??_ADCC_GetConversionResult+1)^(0+1280),w,c
  3212   003148  6E02               	movwf	(?_ADCC_GetConversionResult+1)^(0+1280),c
  3213   00314A                     
  3214                           ; BSR set to: 3
  3215   00314A  0012               	return		;funcret
  3216   00314C                     __end_of_ADCC_GetConversionResult:
  3217                           	callstack 0
  3218                           
  3219                           	psect	rparam
  3220   000000                     
  3221                           	psect	idloc
  3222                           
  3223                           ;Config register IDLOC0 @ 0x200000
  3224                           ;	unspecified, using default values
  3225   200000                     	org	2097152
  3226   200000  0FFF               	dw	4095
  3227                           
  3228                           ;Config register IDLOC1 @ 0x200002
  3229                           ;	unspecified, using default values
  3230   200002                     	org	2097154
  3231   200002  0FFF               	dw	4095
  3232                           
  3233                           ;Config register IDLOC2 @ 0x200004
  3234                           ;	unspecified, using default values
  3235   200004                     	org	2097156
  3236   200004  0FFF               	dw	4095
  3237                           
  3238                           ;Config register IDLOC3 @ 0x200006
  3239                           ;	unspecified, using default values
  3240   200006                     	org	2097158
  3241   200006  0FFF               	dw	4095
  3242                           
  3243                           ;Config register IDLOC4 @ 0x200008
  3244                           ;	unspecified, using default values
  3245   200008                     	org	2097160
  3246   200008  0FFF               	dw	4095
  3247                           
  3248                           ;Config register IDLOC5 @ 0x20000A
  3249                           ;	unspecified, using default values
  3250   20000A                     	org	2097162
  3251   20000A  0FFF               	dw	4095
  3252                           
  3253                           ;Config register IDLOC6 @ 0x20000C
  3254                           ;	unspecified, using default values
  3255   20000C                     	org	2097164
  3256   20000C  0FFF               	dw	4095
  3257                           
  3258                           ;Config register IDLOC7 @ 0x20000E
  3259                           ;	unspecified, using default values
  3260   20000E                     	org	2097166
  3261   20000E  0FFF               	dw	4095
  3262                           
  3263                           ;Config register IDLOC8 @ 0x200010
  3264                           ;	unspecified, using default values
  3265   200010                     	org	2097168
  3266   200010  0FFF               	dw	4095
  3267                           
  3268                           ;Config register IDLOC9 @ 0x200012
  3269                           ;	unspecified, using default values
  3270   200012                     	org	2097170
  3271   200012  0FFF               	dw	4095
  3272                           
  3273                           ;Config register IDLOC10 @ 0x200014
  3274                           ;	unspecified, using default values
  3275   200014                     	org	2097172
  3276   200014  0FFF               	dw	4095
  3277                           
  3278                           ;Config register IDLOC11 @ 0x200016
  3279                           ;	unspecified, using default values
  3280   200016                     	org	2097174
  3281   200016  0FFF               	dw	4095
  3282                           
  3283                           ;Config register IDLOC12 @ 0x200018
  3284                           ;	unspecified, using default values
  3285   200018                     	org	2097176
  3286   200018  0FFF               	dw	4095
  3287                           
  3288                           ;Config register IDLOC13 @ 0x20001A
  3289                           ;	unspecified, using default values
  3290   20001A                     	org	2097178
  3291   20001A  0FFF               	dw	4095
  3292                           
  3293                           ;Config register IDLOC14 @ 0x20001C
  3294                           ;	unspecified, using default values
  3295   20001C                     	org	2097180
  3296   20001C  0FFF               	dw	4095
  3297                           
  3298                           ;Config register IDLOC15 @ 0x20001E
  3299                           ;	unspecified, using default values
  3300   20001E                     	org	2097182
  3301   20001E  0FFF               	dw	4095
  3302                           
  3303                           ;Config register IDLOC16 @ 0x200020
  3304                           ;	unspecified, using default values
  3305   200020                     	org	2097184
  3306   200020  0FFF               	dw	4095
  3307                           
  3308                           ;Config register IDLOC17 @ 0x200022
  3309                           ;	unspecified, using default values
  3310   200022                     	org	2097186
  3311   200022  0FFF               	dw	4095
  3312                           
  3313                           ;Config register IDLOC18 @ 0x200024
  3314                           ;	unspecified, using default values
  3315   200024                     	org	2097188
  3316   200024  0FFF               	dw	4095
  3317                           
  3318                           ;Config register IDLOC19 @ 0x200026
  3319                           ;	unspecified, using default values
  3320   200026                     	org	2097190
  3321   200026  0FFF               	dw	4095
  3322                           
  3323                           ;Config register IDLOC20 @ 0x200028
  3324                           ;	unspecified, using default values
  3325   200028                     	org	2097192
  3326   200028  0FFF               	dw	4095
  3327                           
  3328                           ;Config register IDLOC21 @ 0x20002A
  3329                           ;	unspecified, using default values
  3330   20002A                     	org	2097194
  3331   20002A  0FFF               	dw	4095
  3332                           
  3333                           ;Config register IDLOC22 @ 0x20002C
  3334                           ;	unspecified, using default values
  3335   20002C                     	org	2097196
  3336   20002C  0FFF               	dw	4095
  3337                           
  3338                           ;Config register IDLOC23 @ 0x20002E
  3339                           ;	unspecified, using default values
  3340   20002E                     	org	2097198
  3341   20002E  0FFF               	dw	4095
  3342                           
  3343                           ;Config register IDLOC24 @ 0x200030
  3344                           ;	unspecified, using default values
  3345   200030                     	org	2097200
  3346   200030  0FFF               	dw	4095
  3347                           
  3348                           ;Config register IDLOC25 @ 0x200032
  3349                           ;	unspecified, using default values
  3350   200032                     	org	2097202
  3351   200032  0FFF               	dw	4095
  3352                           
  3353                           ;Config register IDLOC26 @ 0x200034
  3354                           ;	unspecified, using default values
  3355   200034                     	org	2097204
  3356   200034  0FFF               	dw	4095
  3357                           
  3358                           ;Config register IDLOC27 @ 0x200036
  3359                           ;	unspecified, using default values
  3360   200036                     	org	2097206
  3361   200036  0FFF               	dw	4095
  3362                           
  3363                           ;Config register IDLOC28 @ 0x200038
  3364                           ;	unspecified, using default values
  3365   200038                     	org	2097208
  3366   200038  0FFF               	dw	4095
  3367                           
  3368                           ;Config register IDLOC29 @ 0x20003A
  3369                           ;	unspecified, using default values
  3370   20003A                     	org	2097210
  3371   20003A  0FFF               	dw	4095
  3372                           
  3373                           ;Config register IDLOC30 @ 0x20003C
  3374                           ;	unspecified, using default values
  3375   20003C                     	org	2097212
  3376   20003C  0FFF               	dw	4095
  3377                           
  3378                           ;Config register IDLOC31 @ 0x20003E
  3379                           ;	unspecified, using default values
  3380   20003E                     	org	2097214
  3381   20003E  0FFF               	dw	4095
  3382                           
  3383                           	psect	config
  3384                           
  3385                           ;Config register CONFIG1 @ 0x300000
  3386                           ;	External Oscillator Selection
  3387                           ;	FEXTOSC = OFF, Oscillator not enabled
  3388                           ;	Reset Oscillator Selection
  3389                           ;	RSTOSC = HFINTOSC_1MHZ, HFINTOSC with HFFRQ = 4 MHz and CDIV = 4:1
  3390   300000                     	org	3145728
  3391   300000  EC                 	db	236
  3392                           
  3393                           ;Config register CONFIG2 @ 0x300001
  3394                           ;	Clock out Enable bit
  3395                           ;	CLKOUTEN = OFF, CLKOUT function is disabled
  3396                           ;	PRLOCKED One-Way Set Enable bit
  3397                           ;	PR1WAY = ON, PRLOCKED bit can be cleared and set only once
  3398                           ;	Clock Switch Enable bit
  3399                           ;	CSWEN = ON, Writing to NOSC and NDIV is allowed
  3400                           ;	Fail-Safe Clock Monitor Enable bit
  3401                           ;	FCMEN = ON, Fail-Safe Clock Monitor enabled
  3402   300001                     	org	3145729
  3403   300001  FF                 	db	255
  3404                           
  3405                           ;Config register CONFIG3 @ 0x300002
  3406                           ;	MCLR Enable bit
  3407                           ;	MCLRE = EXTMCLR, If LVP = 0, MCLR pin is MCLR; If LVP = 1, RE3 pin function is MCLR
  3408                           ;	Power-up timer selection bits
  3409                           ;	PWRTS = PWRT_OFF, PWRT is disabled
  3410                           ;	Multi-vector enable bit
  3411                           ;	MVECEN = OFF, Interrupt contoller does not use vector table to prioritze interrupts
  3412                           ;	IVTLOCK bit One-way set enable bit
  3413                           ;	IVT1WAY = ON, IVTLOCKED bit can be cleared and set only once
  3414                           ;	Low Power BOR Enable bit
  3415                           ;	LPBOREN = OFF, Low-Power BOR disabled
  3416                           ;	Brown-out Reset Enable bits
  3417                           ;	BOREN = SBORDIS, Brown-out Reset enabled , SBOREN bit is ignored
  3418   300002                     	org	3145730
  3419   300002  F7                 	db	247
  3420                           
  3421                           ;Config register CONFIG4 @ 0x300003
  3422                           ;	Brown-out Reset Voltage Selection bits
  3423                           ;	BORV = VBOR_1P9, Brown-out Reset Voltage (VBOR) set to 1.9V
  3424                           ;	ZCD Disable bit
  3425                           ;	ZCD = OFF, ZCD module is disabled. ZCD can be enabled by setting the ZCDSEN bit of ZCD
      +                          CON
  3426                           ;	PPSLOCK bit One-Way Set Enable bit
  3427                           ;	PPS1WAY = ON, PPSLOCKED bit can be cleared and set only once; PPS registers remain loc
      +                          ked after one clear/set cycle
  3428                           ;	Stack Full/Underflow Reset Enable bit
  3429                           ;	STVREN = ON, Stack full/underflow will cause Reset
  3430                           ;	Low Voltage Programming Enable bit
  3431                           ;	LVP = ON, Low voltage programming enabled. MCLR/VPP pin function is MCLR. MCLRE config
      +                          uration bit is ignored
  3432                           ;	Extended Instruction Set Enable bit
  3433                           ;	XINST = OFF, Extended Instruction Set and Indexed Addressing Mode disabled
  3434   300003                     	org	3145731
  3435   300003  FF                 	db	255
  3436                           
  3437                           ;Config register CONFIG5 @ 0x300004
  3438                           ;	WDT Period selection bits
  3439                           ;	WDTCPS = WDTCPS_31, Divider ratio 1:65536; software control of WDTPS
  3440                           ;	WDT operating mode
  3441                           ;	WDTE = OFF, WDT Disabled; SWDTEN is ignored
  3442   300004                     	org	3145732
  3443   300004  9F                 	db	159
  3444                           
  3445                           ;Config register CONFIG6 @ 0x300005
  3446                           ;	WDT Window Select bits
  3447                           ;	WDTCWS = WDTCWS_7, window always open (100%); software control; keyed access not requi
      +                          red
  3448                           ;	WDT input clock selector
  3449                           ;	WDTCCS = SC, Software Control
  3450   300005                     	org	3145733
  3451   300005  FF                 	db	255
  3452                           
  3453                           ;Config register CONFIG7 @ 0x300006
  3454                           ;	Boot Block Size selection bits
  3455                           ;	BBSIZE = BBSIZE_512, Boot Block size is 512 words
  3456                           ;	Boot Block enable bit
  3457                           ;	BBEN = OFF, Boot block disabled
  3458                           ;	Storage Area Flash enable bit
  3459                           ;	SAFEN = OFF, SAF disabled
  3460                           ;	Background Debugger
  3461                           ;	DEBUG = OFF, Background Debugger disabled
  3462   300006                     	org	3145734
  3463   300006  FF                 	db	255
  3464                           
  3465                           ;Config register CONFIG8 @ 0x300007
  3466                           ;	Boot Block Write Protection bit
  3467                           ;	WRTB = OFF, Boot Block not Write protected
  3468                           ;	Configuration Register Write Protection bit
  3469                           ;	WRTC = OFF, Configuration registers not Write protected
  3470                           ;	Data EEPROM Write Protection bit
  3471                           ;	WRTD = OFF, Data EEPROM not Write protected
  3472                           ;	SAF Write protection bit
  3473                           ;	WRTSAF = OFF, SAF not Write Protected
  3474                           ;	Application Block write protection bit
  3475                           ;	WRTAPP = OFF, Application Block not write protected
  3476   300007                     	org	3145735
  3477   300007  FF                 	db	255
  3478                           
  3479                           ; Padding undefined space
  3480   300008                     	org	3145736
  3481   300008  FF                 	db	255
  3482                           
  3483                           ;Config register CONFIG10 @ 0x300009
  3484                           ;	PFM and Data EEPROM Code Protection bit
  3485                           ;	CP = OFF, PFM and Data EEPROM code protection disabled
  3486   300009                     	org	3145737
  3487   300009  FF                 	db	255
  3488                           tosu	equ	0x4FF
  3489                           tosh	equ	0x4FE
  3490                           tosl	equ	0x4FD
  3491                           stkptr	equ	0x4FC
  3492                           pclatu	equ	0x4FB
  3493                           pclath	equ	0x4FA
  3494                           pcl	equ	0x4F9
  3495                           tblptru	equ	0x4F8
  3496                           tblptrh	equ	0x4F7
  3497                           tblptrl	equ	0x4F6
  3498                           tablat	equ	0x4F5
  3499                           prodh	equ	0x4F4
  3500                           prodl	equ	0x4F3
  3501                           indf0	equ	0x4EF
  3502                           postinc0	equ	0x4EE
  3503                           postdec0	equ	0x4ED
  3504                           preinc0	equ	0x4EC
  3505                           plusw0	equ	0x4EB
  3506                           fsr0h	equ	0x4EA
  3507                           fsr0l	equ	0x4E9
  3508                           wreg	equ	0x4E8
  3509                           indf1	equ	0x4E7
  3510                           postinc1	equ	0x4E6
  3511                           postdec1	equ	0x4E5
  3512                           preinc1	equ	0x4E4
  3513                           plusw1	equ	0x4E3
  3514                           fsr1h	equ	0x4E2
  3515                           fsr1l	equ	0x4E1
  3516                           bsr	equ	0x4E0
  3517                           indf2	equ	0x4DF
  3518                           postinc2	equ	0x4DE
  3519                           postdec2	equ	0x4DD
  3520                           preinc2	equ	0x4DC
  3521                           plusw2	equ	0x4DB
  3522                           fsr2h	equ	0x4DA
  3523                           fsr2l	equ	0x4D9
  3524                           status	equ	0x4D8

Data Sizes:
    Strings     4
    Constant    0
    Data        0
    BSS         40
    Persistent  9
    Stack       0

Auto Spaces:
    Space          Size  Autos    Used
    COMRAM           95     94      95
    BANK5           160      2      50
    BANK6           256      0       0
    BANK7           256      0       0
    BANK8           256      0       0
    BANK9           256      0       0
    BANK10          256      0       0
    BANK11          256      0       0
    BANK12          256      0       0
    BANK13          256      0       0
    BANK14          256      0       0
    BANK15          256      0       0
    BANK16          256      0       0
    BANK17          256      0       0
    BANK18          256      0       0
    BANK19          256      0       0
    BANK20          256      0       0
    BANK21          256      0       0
    BANK22          256      0       0
    BANK23          256      0       0
    BANK24          256      0       0
    BANK25          256      0       0
    BANK26          256      0       0
    BANK27          256      0       0
    BANK28          256      0       0
    BANK29          256      0       0
    BANK30          256      0       0
    BANK31          256      0       0
    BANK32          256      0       0
    BANK33          256      0       0
    BANK34          256      0       0
    BANK35          256      0       0
    BANK36          256      0       0

Pointer List with Targets:

    fputs@s	PTR const unsigned char  size(2) Largest target is 32
		 -> dbuf(BANK5[32]), 

    fputs@fp	PTR struct _IO_FILE size(2) Largest target is 0
		 -> NULL(NULL[0]), 

    S1227$source	PTR const unsigned char  size(2) Largest target is 0

    fputc@fp...source	PTR const unsigned char  size(2) Largest target is 0

    S1227$buffer	PTR unsigned char  size(2) Largest target is 0

    fputc@fp...buffer	PTR unsigned char  size(2) Largest target is 0

    fputc@fp	PTR struct _IO_FILE size(2) Largest target is 0
		 -> NULL(NULL[0]), 

    vfprintf@ap	PTR PTR void  size(2) Largest target is 2
		 -> printf@ap(BANK5[2]), 

    vfprintf@fp	PTR struct _IO_FILE size(2) Largest target is 0
		 -> NULL(NULL[0]), 

    vfprintf@fmt	PTR const unsigned char  size(2) Largest target is 4
		 -> STR_1(CODE[4]), 

    vfprintf@cfmt	PTR unsigned char  size(2) Largest target is 4
		 -> STR_1(CODE[4]), 

    vfpfcnvrt@fp	PTR struct _IO_FILE size(2) Largest target is 0
		 -> NULL(NULL[0]), 

    vfpfcnvrt@ap	PTR PTR void  size(2) Largest target is 2
		 -> printf@ap(BANK5[2]), 

    vfpfcnvrt@cp	PTR unsigned char  size(2) Largest target is 4
		 -> STR_1(CODE[4]), 

    vfpfcnvrt@fmt	PTR PTR unsigned char  size(2) Largest target is 2
		 -> vfprintf@cfmt(COMRAM[2]), 

    S1267$vp	PTR void  size(2) Largest target is 0

    convarg.vp	PTR void  size(2) Largest target is 0

    dtoa@fp	PTR struct _IO_FILE size(2) Largest target is 0
		 -> NULL(NULL[0]), 

    pad@buf	PTR unsigned char  size(2) Largest target is 32
		 -> dbuf(BANK5[32]), 

    pad@fp	PTR struct _IO_FILE size(2) Largest target is 0
		 -> NULL(NULL[0]), 

    printf@fmt	PTR const unsigned char  size(2) Largest target is 4
		 -> STR_1(CODE[4]), 

    printf@ap	PTR void [1] size(2) Largest target is 2
		 -> ?_printf(COMRAM[2]), 

    UART3_SetErrorHandler@interruptHandler	PTR FTN()void  size(3) Largest target is 1
		 -> UART3_DefaultErrorHandler(), 

    UART3_SetOverrunErrorHandler@interruptHandler	PTR FTN()void  size(3) Largest target is 1
		 -> UART3_DefaultOverrunErrorHandler(), 

    UART3_SetFramingErrorHandler@interruptHandler	PTR FTN()void  size(3) Largest target is 1
		 -> UART3_DefaultFramingErrorHandler(), 

    UART3_ErrorHandler	PTR FTN()void  size(3) Largest target is 1
		 -> Absolute function(), UART3_DefaultErrorHandler(), 

    UART3_OverrunErrorHandler	PTR FTN()void  size(3) Largest target is 1
		 -> Absolute function(), UART3_DefaultOverrunErrorHandler(), 

    UART3_FramingErrorHandler	PTR FTN()void  size(3) Largest target is 1
		 -> Absolute function(), UART3_DefaultFramingErrorHandler(), 


Critical Paths under _main in COMRAM

    _main->_printf
    _printf->_vfprintf
    _vfprintf->_vfpfcnvrt
    _vfpfcnvrt->_dtoa
    _dtoa->_pad
    _pad->_fputs
    _fputs->_fputc
    _fputc->_putch
    _putch->_UART3_Write
    _abs->___aomod
    _UART3_Initialize->_UART3_SetErrorHandler
    _UART3_Initialize->_UART3_SetFramingErrorHandler
    _UART3_Initialize->_UART3_SetOverrunErrorHandler

Critical Paths under _main in BANK5

    _main->_printf

Critical Paths under _main in BANK6

    None.

Critical Paths under _main in BANK7

    None.

Critical Paths under _main in BANK8

    None.

Critical Paths under _main in BANK9

    None.

Critical Paths under _main in BANK10

    None.

Critical Paths under _main in BANK11

    None.

Critical Paths under _main in BANK12

    None.

Critical Paths under _main in BANK13

    None.

Critical Paths under _main in BANK14

    None.

Critical Paths under _main in BANK15

    None.

Critical Paths under _main in BANK16

    None.

Critical Paths under _main in BANK17

    None.

Critical Paths under _main in BANK18

    None.

Critical Paths under _main in BANK19

    None.

Critical Paths under _main in BANK20

    None.

Critical Paths under _main in BANK21

    None.

Critical Paths under _main in BANK22

    None.

Critical Paths under _main in BANK23

    None.

Critical Paths under _main in BANK24

    None.

Critical Paths under _main in BANK25

    None.

Critical Paths under _main in BANK26

    None.

Critical Paths under _main in BANK27

    None.

Critical Paths under _main in BANK28

    None.

Critical Paths under _main in BANK29

    None.

Critical Paths under _main in BANK30

    None.

Critical Paths under _main in BANK31

    None.

Critical Paths under _main in BANK32

    None.

Critical Paths under _main in BANK33

    None.

Critical Paths under _main in BANK34

    None.

Critical Paths under _main in BANK35

    None.

Critical Paths under _main in BANK36

    None.

Call Graph Tables:

 ---------------------------------------------------------------------------------
 (Depth) Function   	        Calls       Base Space   Used Autos Params    Refs
 ---------------------------------------------------------------------------------
 (0) _main                                                 0     0      0    5599
           _ADCC_GetConversionResult
                    _ADCC_Initialize
              _ADCC_IsConversionDone
               _ADCC_StartConversion
                  _SYSTEM_Initialize
                             _printf
 ---------------------------------------------------------------------------------
 (1) _printf                                               8     4      4    5283
                                             90 COMRAM     4     0      4
                                              0 BANK5      2     2      0
                           _vfprintf
 ---------------------------------------------------------------------------------
 (2) _vfprintf                                             8     2      6    5153
                                             82 COMRAM     8     2      6
                          _vfpfcnvrt
 ---------------------------------------------------------------------------------
 (3) _vfpfcnvrt                                           23    17      6    4803
                                             64 COMRAM    18    12      6
                               _dtoa
                              _fputc
 ---------------------------------------------------------------------------------
 (4) _dtoa                                                35    25     10    3605
                                             29 COMRAM    35    25     10
                            ___aodiv
                            ___aomod
                                _abs
                                _pad
 ---------------------------------------------------------------------------------
 (5) _pad                                                 11     5      6    1955
                                             18 COMRAM    11     5      6
                              _fputc
                              _fputs
 ---------------------------------------------------------------------------------
 (6) _fputs                                                7     3      4     909
                                             11 COMRAM     7     3      4
                              _fputc
 ---------------------------------------------------------------------------------
 (4) _fputc                                                9     5      4     660
                                              2 COMRAM     9     5      4
                              _putch
 ---------------------------------------------------------------------------------
 (5) _putch                                                1     1      0      44
                                              1 COMRAM     1     1      0
                        _UART3_Write
 ---------------------------------------------------------------------------------
 (6) _UART3_Write                                          1     1      0      22
                                              0 COMRAM     1     1      0
 ---------------------------------------------------------------------------------
 (5) _abs                                                  4     2      2     142
                                             18 COMRAM     4     2      2
                            ___aomod (ARG)
 ---------------------------------------------------------------------------------
 (5) ___aomod                                             18     2     16     448
                                              0 COMRAM    18     2     16
 ---------------------------------------------------------------------------------
 (5) ___aodiv                                             26    10     16     452
                                              0 COMRAM    26    10     16
 ---------------------------------------------------------------------------------
 (1) _SYSTEM_Initialize                                    0     0      0     294
                    _ADCC_Initialize
              _OSCILLATOR_Initialize
             _PIN_MANAGER_Initialize
                     _PMD_Initialize
                   _UART3_Initialize
 ---------------------------------------------------------------------------------
 (2) _UART3_Initialize                                     0     0      0     294
              _UART3_SetErrorHandler
       _UART3_SetFramingErrorHandler
       _UART3_SetOverrunErrorHandler
 ---------------------------------------------------------------------------------
 (3) _UART3_SetOverrunErrorHandler                         3     0      3      98
                                              0 COMRAM     3     0      3
 ---------------------------------------------------------------------------------
 (3) _UART3_SetFramingErrorHandler                         3     0      3      98
                                              0 COMRAM     3     0      3
 ---------------------------------------------------------------------------------
 (3) _UART3_SetErrorHandler                                3     0      3      98
                                              0 COMRAM     3     0      3
 ---------------------------------------------------------------------------------
 (2) _PMD_Initialize                                       0     0      0       0
 ---------------------------------------------------------------------------------
 (2) _PIN_MANAGER_Initialize                               0     0      0       0
 ---------------------------------------------------------------------------------
 (2) _OSCILLATOR_Initialize                                0     0      0       0
 ---------------------------------------------------------------------------------
 (2) _ADCC_Initialize                                      0     0      0       0
 ---------------------------------------------------------------------------------
 (1) _ADCC_StartConversion                                 1     1      0      22
                                              0 COMRAM     1     1      0
 ---------------------------------------------------------------------------------
 (1) _ADCC_IsConversionDone                                0     0      0       0
 ---------------------------------------------------------------------------------
 (1) _ADCC_GetConversionResult                             4     2      2       0
                                              0 COMRAM     4     2      2
 ---------------------------------------------------------------------------------
 Estimated maximum stack depth 6
 ---------------------------------------------------------------------------------

 Call Graph Graphs:

 _main (ROOT)
   _ADCC_GetConversionResult
   _ADCC_Initialize
   _ADCC_IsConversionDone
   _ADCC_StartConversion
   _SYSTEM_Initialize
     _ADCC_Initialize
     _OSCILLATOR_Initialize
     _PIN_MANAGER_Initialize
     _PMD_Initialize
     _UART3_Initialize
       _UART3_SetErrorHandler
       _UART3_SetFramingErrorHandler
       _UART3_SetOverrunErrorHandler
   _printf
     _vfprintf
       _vfpfcnvrt
         _dtoa
           ___aodiv
           ___aomod
           _abs
             ___aomod (ARG)
           _pad
             _fputc
               _putch
                 _UART3_Write
             _fputs
               _fputc
         _fputc

 Address spaces:
Name               Size   Autos  Total    Cost      Usage
BIGRAM            1FFF      0       0      69        0.0%
EEDATA             400      0       0       0        0.0%
BITBIGSFRllllll    175      0       0      91        0.0%
BITBIGSFR_1        100      0       0      68        0.0%
BITBANK36          100      0       0      66        0.0%
BANK36             100      0       0      67        0.0%
BITBANK35          100      0       0      64        0.0%
BANK35             100      0       0      65        0.0%
BITBANK34          100      0       0      62        0.0%
BANK34             100      0       0      63        0.0%
BITBANK33          100      0       0      60        0.0%
BANK33             100      0       0      61        0.0%
BITBANK32          100      0       0      58        0.0%
BANK32             100      0       0      59        0.0%
BITBANK31          100      0       0      56        0.0%
BANK31             100      0       0      57        0.0%
BITBANK30          100      0       0      54        0.0%
BANK30             100      0       0      55        0.0%
BITBANK29          100      0       0      52        0.0%
BANK29             100      0       0      53        0.0%
BITBANK28          100      0       0      50        0.0%
BANK28             100      0       0      51        0.0%
BITBANK27          100      0       0      48        0.0%
BANK27             100      0       0      49        0.0%
BITBANK26          100      0       0      46        0.0%
BANK26             100      0       0      47        0.0%
BITBANK25          100      0       0      44        0.0%
BANK25             100      0       0      45        0.0%
BITBANK24          100      0       0      42        0.0%
BANK24             100      0       0      43        0.0%
BITBANK23          100      0       0      40        0.0%
BANK23             100      0       0      41        0.0%
BITBANK22          100      0       0      38        0.0%
BANK22             100      0       0      39        0.0%
BITBANK21          100      0       0      36        0.0%
BANK21             100      0       0      37        0.0%
BITBANK20          100      0       0      34        0.0%
BANK20             100      0       0      35        0.0%
BITBANK19          100      0       0      32        0.0%
BANK19             100      0       0      33        0.0%
BITBANK18          100      0       0      30        0.0%
BANK18             100      0       0      31        0.0%
BITBANK17          100      0       0      28        0.0%
BANK17             100      0       0      29        0.0%
BITBANK16          100      0       0      26        0.0%
BANK16             100      0       0      27        0.0%
BITBANK15          100      0       0      24        0.0%
BANK15             100      0       0      25        0.0%
BITBANK14          100      0       0      22        0.0%
BANK14             100      0       0      23        0.0%
BITBANK13          100      0       0      20        0.0%
BANK13             100      0       0      21        0.0%
BITBANK12          100      0       0      18        0.0%
BANK12             100      0       0      19        0.0%
BITBANK11          100      0       0      16        0.0%
BANK11             100      0       0      17        0.0%
BITBANK10          100      0       0      14        0.0%
BANK10             100      0       0      15        0.0%
BITBANK9           100      0       0      12        0.0%
BANK9              100      0       0      13        0.0%
BITBANK8           100      0       0      10        0.0%
BANK8              100      0       0      11        0.0%
BITBANK7           100      0       0       8        0.0%
BANK7              100      0       0       9        0.0%
BITBANK6           100      0       0       6        0.0%
BANK6              100      0       0       7        0.0%
BITBIGSFRllllll     FF      0       0      82        0.0%
BITBANK5            A0      0       0       4        0.0%
BANK5               A0      2      32       5       31.2%
BITBIGSFRllhhhl     8A      0       0      74        0.0%
BITBIGSFRllllll     60      0       0      96        0.0%
BITCOMRAM           5F      0       0       0        0.0%
COMRAM              5F     5E      5F       1      100.0%
BITBIGSFRllllll     4C      0       0      90        0.0%
BITBIGSFRllllll     43      0       0      94        0.0%
BITBIGSFRllllll     3D      0       0      88        0.0%
BITBIGSFRhhh        31      0       0      70        0.0%
BITBIGSFRllllll      F      0       0      89        0.0%
BITBIGSFRllhhhh      6      0       0      73        0.0%
BITBIGSFRllllll      5      0       0      80        0.0%
BITBIGSFRlllllh      3      0       0      79        0.0%
BITBIGSFRllhhl       3      0       0      75        0.0%
BITBIGSFRllllh       3      0       0      78        0.0%
BITBIGSFRlllh        3      0       0      77        0.0%
BITBIGSFRllhl        3      0       0      76        0.0%
BITBIGSFRhhl         2      0       0      71        0.0%
BITBIGSFRhll         2      0       0      72        0.0%
BITBIGSFRllllll      1      0       0      86        0.0%
BITBIGSFRllllll      1      0       0      87        0.0%
BITBIGSFRllllll      1      0       0      83        0.0%
BITBIGSFRllllll      1      0       0      84        0.0%
BITBIGSFRllllll      1      0       0      85        0.0%
BITBIGSFRllllll      1      0       0      95        0.0%
BITBIGSFRllllll      1      0       0      92        0.0%
BITBIGSFRllllll      1      0       0      93        0.0%
BITBIGSFRllllll      1      0       0      81        0.0%
BIGSFR_1             0      0       0     200        0.0%
BIGSFR               0      0       0     200        0.0%
BITSFR_6             0      0       0     200        0.0%
SFR_6                0      0       0     200        0.0%
BITSFR_5             0      0       0     200        0.0%
SFR_5                0      0       0     200        0.0%
BITSFR_4             0      0       0     200        0.0%
SFR_4                0      0       0     200        0.0%
BITSFR_3             0      0       0     200        0.0%
SFR_3                0      0       0     200        0.0%
BITSFR_2             0      0       0     200        0.0%
SFR_2                0      0       0     200        0.0%
BITSFR_1             0      0       0     200        0.0%
SFR_1                0      0       0     200        0.0%
BITSFR               0      0       0     200        0.0%
SFR                  0      0       0     200        0.0%
STACK                0      0       0       2        0.0%
NULL                 0      0       0       0        0.0%
ABS                  0      0      91      97        0.0%
DATA                 0      0      91       3        0.0%
CODE                 0      0       0       0        0.0%


Microchip Technology PIC18 Macro Assembler V2.40 build 20220703182018 
Symbol Table                                                                                   Fri Dec 16 10:19:36 2022

               __end_of_UART3_SetErrorHandler 318A          __end_of_UART3_SetFramingErrorHandler 317C  
                _UART3_SetFramingErrorHandler 316E                                            l99 2D74  
                                         l303 311E                                           l401 31A0  
                                         l306 30F2                                           l181 2FB4  
                                         l309 30D6                                           l413 317A  
                                         l190 314A                                           l184 3196  
                                         l416 316C                                           l450 2EE8  
                                         l187 3134                                           l419 3188  
                                         l366 2F58                                           l447 2EE2  
                                         l392 30F6                                           l571 2A08  
                                         l395 3108                                           l584 2B6C  
                                         u520 3104                                           u601 28F0  
                                         u521 3100                                           u610 2914  
                                         u530 2D88                                           u611 2910  
                                         u531 2D84                                           u620 293E  
                                         u700 2B2C                                           u540 2D9A  
                                         u621 293A                                           u701 2B28  
                                         u541 2D96                                           u630 297E  
                                         u550 2DC2                                           u710 2E1A  
                                         u631 297A                                           u551 2DBE  
                                         u711 2E16                                           u640 29C8  
                                         u560 2DF8                                           u720 2E70  
                                         u800 2802                                           u641 29C4  
                                         u561 2DF4                                           u721 2E6C  
                                         u801 27FE                                           u650 2A1C  
                                         u730 3066                                           u570 304A  
                                         u810 2820                                           u651 2A18  
                                         u731 3062                                           u571 3046  
                                         u811 281C                                           u580 2894  
                                         u660 2A4E                                           u820 283A  
                                         u740 2636                                           u581 2890  
                                         u661 2A4A                                           u821 2836  
                                         u741 2630                                           u590 28C6  
                                         u670 2A8C                                           u830 284A  
                                         u750 2638                                           u591 28C2  
                                         u671 2A88                                           u831 2846  
                                         u680 2AB6                                           u760 264A  
                                         u840 2B96                                           u681 2AB2  
                                         u761 2646                                           u841 2B92  
                                         u690 2AE4                                           u770 2686  
                                         u850 2BE6                                           u691 2AE0  
                                         u771 2682                                           u851 2BE2  
                                         u780 26B2                                           u860 2C06  
                                         u781 26AE                                           u861 2C02  
                                         u790 26C8                                           u870 2FFE  
                                         u791 26C4                                           u871 2FFA  
                                         u880 3132                                           u881 312C  
                                         u890 3134                                           u970 2EA8  
                                         u971 2EA4                                           u990 2EE2  
                                         u991 2EDE                                           u985 2ED2  
                                         u986 2ED4                                           _abs 304C  
                                         _pad 2E0C                                           wreg 0004E8  
                                        l1200 308A                                          l2000 2ED4  
                                        ?_abs 0513                                          l1212 2E0A  
                                        l1220 304A                                          l1135 30B2  
                                        l1161 2E84                                          l1180 2880  
                                        l1157 2E2E                                          l1166 2692  
                                        l1168 269A                                          l1169 26E0  
                                        l1193 3006                                          l1187 2CCA  
                                        l1700 28E6                                          l1197 3082  
                                        l1710 2930                                          l1702 28EA  
                                        l1720 29A0                                          l1712 293E  
                                        l1704 28F6                                          l1800 26B2  
                                        l1722 29B2                                          l1714 2950  
                                        l1706 2914                                          l1810 26E8  
                                        l1802 26B8                                          l1900 2D5E  
                                        l1716 297E                                          l1708 291C  
                                        l1724 29B8                                          l1740 2A40  
                                        l1732 2A0A                                          l1660 30F6  
                                        l1820 2784                                          l1812 26F0  
                                        l1804 26C8                                          l1902 2D60  
                                        l1910 30B4                                          l1726 29C8  
                                        l1718 299E                                          l1750 2AA8  
                                        l1742 2A4E                                          l1734 2A0E  
                                        l1662 3104                                          l1670 2D9A  
                                        l1830 284A                                          l1814 26F6  
                                        l1822 27E8                                          l1806 26D4  
                                        l1912 30D8                                          l1904 2D62  
                                        l1840 3160                                          l1920 2F44  
                                        l1728 29E8                                          l1752 2AB6  
                                        l1760 2B1C                                          l1744 2A6E  
                                        l1736 2A1C                                          l1664 319A  
                                        l1672 2DA4                                          l1680 3008  
                                        l1832 2850                                          l1824 2802  
                                        l1816 2778                                          l1808 26DC  
                                        l1906 2D68                                          l1842 317C  
                                        l1922 2F54                                          l1914 2EF2  
                                        l1690 2886                                          l1762 2B2C  
                                        l1754 2AE4                                          l1746 2A8C  
                                        l1738 2A3C                                          l1674 2DC2  
                                        l1666 2D76                                          l1682 3014  
                                        l1770 2E1A                                          l1834 2860  
                                        l1826 2820                                          l1818 277E  
                                        l1850 2BB2                                          l1930 2FFE  
                                        l1940 3120                                          l1908 2F5A  
                                        l1916 2F24                                          l1692 2894  
                                        l1764 2B4C                                          l1756 2B04  
                                        l1748 2A94                                          l1676 2DF8  
                                        l1668 2D88                                          l1684 3026  
                                        l1780 2E70                                          l1772 2E26  
                                        l1828 283A                                          l1860 2C5C  
                                        l1852 2BB6                                          l1844 2B6E  
                                        l1924 2FB6                                          l1934 318C  
                                        l1838 316E                                          l1918 2F34  
                                        l1950 311A                                          l1694 28B4  
                                        l1758 2B16                                          l1782 304C  
                                        l1686 302A                                          l1774 2E3A  
                                        l1790 263A                                          l1854 2BC6  
                                        l1846 2B96                                          l1926 2FC2  
                        _ADCC_StartConversion 318A                                          l1944 3136  
                                        l1936 3190                                          l1880 2CF4  
                                        l1696 28B8                                          l1688 2882  
                                        l1784 3066                                          l1776 2E4E  
                                        l1768 2E0C                                          l1792 264A  
                                        l1864 2C8C                                          l1856 2BE6  
                                        l1848 2BA4                                          l1928 2FDE  
                                        l1938 3194                                          l1890 2D50  
                                        l1882 2CF6                                          l1874 2CCC  
                                        l1698 28C6                                          l1778 2E52  
                                        l1794 266A                                          l1786 2606  
                                        l1858 2C06                                          l1892 2D52  
                                        l1884 2CFE                                          l1876 2CF0  
                                        l1948 310A                                          l1796 2686  
                                        l1788 2626                                          l1868 2C9E  
                                        l1894 2D54                                          l1886 2D04  
                                        l1878 2CF2                                          l1798 26A2  
                                        l1990 2E8E                                          ?_pad 0513  
                                        l1896 2D5A                                          l1888 2D4E  
                                        l1976 308C                                          l1992 2E94  
                                        l1898 2D5C                                          l1978 3096  
                                        l1994 2EA8                                          l1986 2E86  
                                        l1996 2EB4                                          l1988 2E8A  
                                        l1998 2EC8                                          STR_1 2601  
                                        _LATA 0004BE                                          _LATB 0004BF  
                                        _LATC 0004C0                                          _LATD 0004C1  
                                        _LATE 0004C2                                          _LATF 0004C3  
                                        _PMD0 000060                                          _PMD1 000061  
                                        _PMD3 000063                                          _PMD4 000064  
                                        _PMD5 000065                                          _PMD6 000066  
                                        _PMD7 000067                                          _PMD8 000068  
                                        _WPUA 000401                                          _WPUB 000409  
                                        _WPUC 000411                                          _WPUD 000419  
                                        _WPUE 000421                                          _WPUF 000429  
                                        abs@a 0513                                          _dbuf 0567  
                                        _main 2E86                                          _dtoa 2606  
                                        _prec 0562                                          pad@i 051A  
                                        pad@p 0517                                          fsr1h 0004E2  
                                        fsr2h 0004DA                                          indf2 0004DF  
                                        fsr1l 0004E1                                          pad@w 051C  
                                        fsr2l 0004D9                                          start FFFC  
                                ___param_bank 000000                                         ??_abs 0515  
                                       ??_pad 0519                 __end_of_OSCILLATOR_Initialize 30F4  
               ?_UART3_SetFramingErrorHandler 0501                               __end_of___aodiv 2A0A  
                                       _ADACT 0003F9                                         _ADCAP 0003F0  
                                       ?_main 0501                                         ?_dtoa 051E  
                                       _ADCLK 0003FA                               __end_of___aomod 2B6E  
                                       _ADCNT 0003E6                                         _ADPCH 0003EC  
                                       _ADREF 0003F8                                         _ADRPT 0003E7  
                                       _U3P1L 0002CB                                         _U3P2L 0002CD  
                                       _U3P3L 0002CF                                         _U3UIR 0002D7  
                                       _U3RXB 0002C7                                         _U3TXB 0002C9  
                                       _OSCEN 0000B3                                  vfpfcnvrt@fmt 0543  
                                       _TRISA 0004C6                                         _TRISB 0004C7  
                                       _TRISC 0004C8                                         _TRISD 0004C9  
                                       _TRISE 0004CA                                         _TRISF 0004CB  
                     ??_ADCC_IsConversionDone 0501                                         _flags 0566  
                       ?_ADCC_StartConversion 0501                                         _fputc 2D76  
                                       _fputs 3008                                         _value 0564  
                                       pad@fp 0513                                         _width 0560  
                                       _putch 3198                                         dtoa@d 0520  
                                       dtoa@i 053E                                         dtoa@n 0536  
                                       dtoa@p 0532                                         dtoa@s 0540  
                                       dtoa@w 0534                                         tablat 0004F5  
                                       status 0004D8                               __initialization 314C  
                                __end_of_main 2EF2                                  __end_of_dtoa 2882  
                                ?_UART3_Write 0501                                        ??_main 055F  
                                      ??_dtoa 0528                                 __activetblptr 000003  
            _UART3_DefaultOverrunErrorHandler 000000                                        _ADACCH 0003E4  
                                      _ADACCL 0003E3                                        _ADACCU 0003E5  
                                      _ADACQH 0003EF                                        _ADACQL 0003EE  
                                      _ADCON0 0003F3                                        _ADCON1 0003F4  
                                      _ADCON2 0003F5                                        _ADCON3 0003F6  
                                      _ADERRH 0003DE                                        _ADERRL 0003DD  
                                      ?_fputc 0503                                        _ACTCON 0000AC  
                                      _ADLTHH 0003DA                                        _ADLTHL 0003D9  
                                      ?_fputs 050C                                        _ADRESH 0003EB  
                                      _ADRESL 0003EA                                        _ADPREH 0003F2  
                                      _ADPREL 0003F1                                        _ADSTAT 0003F7  
                                      _ADUTHH 0003DC                                        _ADUTHL 0003DB  
                                      _ANSELA 000400                                        ?_putch 0501  
                                      _ANSELB 000408                                        _ANSELC 000410  
                                      _ANSELD 000418                                        _ANSELE 000420  
                                      _ANSELF 000428                                        _RB1I2C 000289  
                                      _RB2I2C 000288                                        _RC3I2C 000287  
                                      _RC4I2C 000286                                        _U3CON0 0002D1  
                                      _U3CON1 0002D2                                        _U3CON2 0002D3  
                                      _U3BRGH 0002D5                                        _U3FIFO 0002D6  
                                      _U3BRGL 0002D4                                        _ODCONA 000402  
                                      _ODCONB 00040A                                        _ODCONC 000412  
                                      _RF0PPS 000229                                        _ODCOND 00041A  
                                      _ODCONE 000422                                        _ODCONF 00042A  
                                      _INLVLA 000404                                        _INLVLB 00040C  
                                      _INLVLC 000414                                        _INLVLD 00041C  
                                      _INLVLE 000424                                        _INLVLF 00042C  
                                      _OSCFRQ 0000B1                    ??_ADCC_GetConversionResult 0503  
                                vfprintf@cfmt 0559                                     ??___aodiv 0511  
                                   ??___aomod 0511                                        clear_0 3152  
                                      isa$std 000001                                        _printf 308C  
                                      pad@buf 0515                                        dtoa@fp 051E  
                             _ADCC_Initialize 2F5A                                        fputc@c 0503  
                              _PMD_Initialize 30B4                                        fputs@c 0510  
                                      fputs@i 0511                                        fputs@s 050C  
                                __mediumconst 0000                              _UART3_Initialize 2EF2  
              ??_UART3_SetFramingErrorHandler 0504                                        tblptrh 0004F7  
                                      tblptrl 0004F6                                        tblptru 0004F8  
                      ??_ADCC_StartConversion 0501                              __end_of_vfprintf 3008  
                           _SYSTEM_Initialize 310A                                    __accesstop 0560  
                     __end_of__initialization 315A                            ?_SYSTEM_Initialize 0501  
                               ___rparam_used 000001                                __pcstackCOMRAM 0501  
                         ??_SYSTEM_Initialize 0504                                 __end_of_fputc 2E0C  
                               __end_of_fputs 304C                                 __end_of_putch 31A2  
                      __end_of_PMD_Initialize 30D8                   ADCC_StartConversion@channel 0501  
                                     ??_fputc 0507                     __end_of_SYSTEM_Initialize 3120  
                                     ??_fputs 0510                                       ??_putch 0502  
                                  __pbssBANK5 0560                       __end_of_ADCC_Initialize 2FB6  
                                     _ADFLTRH 0003E2                                       _ADFLTRL 0003E1  
                                     _ADPREVH 0003E9                                       _ADPREVL 0003E8  
                                     _ADSTPTH 0003E0                                       _ADSTPTL 0003DF  
                                     ?_printf 055B                               ?_PMD_Initialize 0501  
                       _UART3_SetErrorHandler 317C                                       _U3ERRIE 0002D9  
                                     _U3ERRIR 0002D8                                       _U3RXPPS 000276  
                                     _OSCCON1 0000AD                                       _OSCCON3 0000AF  
                                     _OSCTUNE 0000B0                                       _SLRCONA 000403  
                                     _SLRCONB 00040B                                       _SLRCONC 000413  
                                     _SLRCOND 00041B                                       _SLRCONE 000423  
                                     _SLRCONF 00042B                 __end_of_ADCC_IsConversionDone 3136  
                                     __Hparam 0000                                       __Lparam 0000  
                                     ___aodiv 2882                                       ___aomod 2A0A  
                                   ?_vfprintf 0553                                  __psmallconst 2600  
                                     __pcinit 314C                                       __ramtop 2600  
                                     __ptext0 2E86                                       __ptext1 308C  
                                     __ptext2 2FB6                                       __ptext3 2B6E  
                                     __ptext4 2606                                       __ptext5 2E0C  
                                     __ptext6 3008                                       __ptext7 2D76  
                                     __ptext8 3198                                       __ptext9 30F4  
                       _OSCILLATOR_Initialize 30D8                      ??_PIN_MANAGER_Initialize 0501  
                        end_of_initialization 315A                                       fputc@fp 0505  
                                     fputs@fp 050E                      __end_of_UART3_Initialize 2F5A  
                           __end_of_vfpfcnvrt 2CCC                                       postdec2 0004DD  
                                     postinc0 0004EE                                       postinc1 0004E6  
                                     postinc2 0004DE                              vfpfcnvrt@convarg 0549  
                            ?_ADCC_Initialize 0501                                    ??_vfprintf 0559  
                      ?_UART3_SetErrorHandler 0501                                     _PORTAbits 0004CE  
                   _UART3_OverrunErrorHandler 058A                                   vfpfcnvrt@ap 0545  
                                 vfpfcnvrt@cp 0551                                   vfpfcnvrt@fp 0541  
                      ?_OSCILLATOR_Initialize 0501                     ?_ADCC_GetConversionResult 0501  
                              __end_of_printf 30B4                           start_initialization 314C  
                                 __end_of_abs 308C                                   __end_of_pad 2E86  
                                 putch@txData 0502          __end_of_UART3_SetOverrunErrorHandler 316E  
                _UART3_SetOverrunErrorHandler 3160              _UART3_DefaultFramingErrorHandler 000000  
                                 vfprintf@fmt 0555                              ??_PMD_Initialize 0501  
                                    ??_printf 055F                                   __pbssCOMRAM 055F  
                               __pcstackBANK5 0590                              ___aodiv@dividend 0501  
               ?_UART3_SetOverrunErrorHandler 0501                                     __pnvBANK5 0587  
                      _PIN_MANAGER_Initialize 2CCC                                     _dtoa$1295 0530  
                                    ?___aodiv 0501                                      ?___aomod 0501  
                            ___aodiv@quotient 0513                                 ??_UART3_Write 0501  
                                 __smallconst 2600                         _ADCC_IsConversionDone 3120  
                                    _LATAbits 0004BE         UART3_SetErrorHandler@interruptHandler 0501  
                                 _U3ERRIRbits 0002D8                                      _PIR9bits 0004B7  
                           ?_UART3_Initialize 0501                       ??_UART3_SetErrorHandler 0504  
                          ??_UART3_Initialize 0504                                     _vfpfcnvrt 2B6E  
                            _uart3RxLastError 055F                             UART3_Write@txData 0501  
                                  _ADCON0bits 0003F3                                    _ADCON1bits 0003F4  
                                  _ADCON2bits 0003F5                                    _ADCON3bits 0003F6  
                         __end_of_UART3_Write 310A                                    _ADSTATbits 0003F7  
                                    __Hrparam 0000              __end_of_ADCC_GetConversionResult 314C  
                                  vfprintf@ap 0557                                      __Lrparam 0000  
                                  vfprintf@fp 0553                ??_UART3_SetOverrunErrorHandler 0504  
                     ??_OSCILLATOR_Initialize 0501                                    ?_vfpfcnvrt 0541  
                             ___aodiv@divisor 0509                               ___aodiv@counter 0511  
                                    __ptext10 304C                                      __ptext11 2A0A  
                                    __ptext20 30D8                                      __ptext12 2882  
                                    __ptext21 2F5A                                      __ptext13 310A  
                                    __ptext22 318A                                      __ptext14 2EF2  
                                    __ptext23 3120                                      __ptext15 3160  
                                    __ptext24 3136                                      __ptext16 316E  
                                    __ptext17 317C                                      __ptext18 30B4  
                                    __ptext19 2CCC                        ?_ADCC_IsConversionDone 0501  
                                  _U3CON0bits 0002D1  UART3_SetOverrunErrorHandler@interruptHandler 0501  
                                    isa$xinst 000000                  __end_of_ADCC_StartConversion 3198  
                                    _vfprintf 2FB6                                     printf@fmt 055B  
                                 _UART3_Write 30F4                              ___aomod@dividend 0501  
                          _UART3_ErrorHandler 0587                     _UART3_DefaultErrorHandler 000000  
                     ?_PIN_MANAGER_Initialize 0501                                      printf@ap 0590  
UART3_SetFramingErrorHandler@interruptHandler 0501                      _ADCC_GetConversionResult 3136  
                             ___aomod@divisor 0509                                   ??_vfpfcnvrt 0547  
                             ___aomod@counter 0511                     _UART3_FramingErrorHandler 058D  
                                ___aodiv@sign 0512                __end_of_PIN_MANAGER_Initialize 2D76  
                           ??_ADCC_Initialize 0501                                  ___aomod@sign 0512  
